
dproxy.gdb:     file format elf32-tradbigmips

Disassembly of section .text:

00400000 <_stext-0x4>:
  400000:	00000000 	nop

00400004 <_stext>:
  400004:	b20000f4 	0xb20000f4
	...
  400018:	00007fef 	0x7fef
  40001c:	00000000 	nop

00400020 <__start>:
  400020:	04100001 	bltzal	zero,400028 <__start+0x8>
  400024:	00000000 	nop
  400028:	3c1c0001 	lui	gp,0x1
  40002c:	279cea38 	addiu	gp,gp,-5576
  400030:	039fe021 	addu	gp,gp,ra
  400034:	0000f821 	move	ra,zero
  400038:	8fa40000 	lw	a0,0(sp)
  40003c:	27a50004 	addiu	a1,sp,4
  400040:	24860001 	addiu	a2,a0,1
  400044:	00063080 	sll	a2,a2,0x2
  400048:	00c53020 	add	a2,a2,a1
  40004c:	8f870268 	lw	a3,616(gp)
  400050:	27bdffe8 	addiu	sp,sp,-24
  400054:	8f820120 	lw	v0,288(gp)
  400058:	00000000 	nop
  40005c:	afa20010 	sw	v0,16(sp)
  400060:	8f990078 	lw	t9,120(gp)
  400064:	00000000 	nop
  400068:	0320f809 	jalr	t9
  40006c:	00000000 	nop
  400070:	27bd0018 	addiu	sp,sp,24
  400074:	1000ffff 	b	400074 <__start+0x54>
  400078:	00000000 	nop
  40007c:	00000000 	nop
  400080:	3c1c0001 	lui	gp,0x1
  400084:	279ce9e0 	addiu	gp,gp,-5664
  400088:	0399e021 	addu	gp,gp,t9
  40008c:	27bdffe0 	addiu	sp,sp,-32
  400090:	afbc0010 	sw	gp,16(sp)
  400094:	8f82000c 	lw	v0,12(gp)
  400098:	00000000 	nop
  40009c:	24421df0 	addiu	v0,v0,7664
  4000a0:	90420000 	lbu	v0,0(v0)
  4000a4:	afbf001c 	sw	ra,28(sp)
  4000a8:	1440002c 	bnez	v0,40015c <__start+0x13c>
  4000ac:	afbc0018 	sw	gp,24(sp)
  4000b0:	8f82000c 	lw	v0,12(gp)
  4000b4:	00000000 	nop
  4000b8:	24420cd4 	addiu	v0,v0,3284
  4000bc:	8c420000 	lw	v0,0(v0)
  4000c0:	00000000 	nop
  4000c4:	8c430000 	lw	v1,0(v0)
  4000c8:	00000000 	nop
  4000cc:	10600013 	beqz	v1,40011c <__start+0xfc>
  4000d0:	24420004 	addiu	v0,v0,4
  4000d4:	8f81000c 	lw	at,12(gp)
  4000d8:	00000000 	nop
  4000dc:	24210cd4 	addiu	at,at,3284
  4000e0:	ac220000 	sw	v0,0(at)
  4000e4:	0060c821 	move	t9,v1
  4000e8:	0320f809 	jalr	t9
  4000ec:	00000000 	nop
  4000f0:	8fbc0010 	lw	gp,16(sp)
  4000f4:	00000000 	nop
  4000f8:	8f82000c 	lw	v0,12(gp)
  4000fc:	00000000 	nop
  400100:	24420cd4 	addiu	v0,v0,3284
  400104:	8c420000 	lw	v0,0(v0)
  400108:	00000000 	nop
  40010c:	8c430000 	lw	v1,0(v0)
  400110:	00000000 	nop
  400114:	1460ffef 	bnez	v1,4000d4 <__start+0xb4>
  400118:	24420004 	addiu	v0,v0,4
  40011c:	8f82020c 	lw	v0,524(gp)
  400120:	00000000 	nop
  400124:	10400008 	beqz	v0,400148 <__start+0x128>
  400128:	00000000 	nop
  40012c:	8f84000c 	lw	a0,12(gp)
  400130:	00000000 	nop
  400134:	24841db0 	addiu	a0,a0,7600
  400138:	0040c821 	move	t9,v0
  40013c:	0320f809 	jalr	t9
  400140:	00000000 	nop
  400144:	8fbc0010 	lw	gp,16(sp)
  400148:	24020001 	li	v0,1
  40014c:	8f81000c 	lw	at,12(gp)
  400150:	00000000 	nop
  400154:	24211df0 	addiu	at,at,7664
  400158:	a0220000 	sb	v0,0(at)
  40015c:	8fbf001c 	lw	ra,28(sp)
  400160:	00000000 	nop
  400164:	03e00008 	jr	ra
  400168:	27bd0020 	addiu	sp,sp,32
  40016c:	3c1c0001 	lui	gp,0x1
  400170:	279ce8f4 	addiu	gp,gp,-5900
  400174:	0399e021 	addu	gp,gp,t9
  400178:	27bdffe0 	addiu	sp,sp,-32
  40017c:	afbc0010 	sw	gp,16(sp)
  400180:	8f820048 	lw	v0,72(gp)
  400184:	afbf001c 	sw	ra,28(sp)
  400188:	8f84000c 	lw	a0,12(gp)
  40018c:	00000000 	nop
  400190:	24841db0 	addiu	a0,a0,7600
  400194:	8f85000c 	lw	a1,12(gp)
  400198:	00000000 	nop
  40019c:	24a51df4 	addiu	a1,a1,7668
  4001a0:	10400006 	beqz	v0,4001bc <__start+0x19c>
  4001a4:	afbc0018 	sw	gp,24(sp)
  4001a8:	0040c821 	move	t9,v0
  4001ac:	0320f809 	jalr	t9
  4001b0:	00000000 	nop
  4001b4:	8fbc0010 	lw	gp,16(sp)
  4001b8:	00000000 	nop
  4001bc:	8f82000c 	lw	v0,12(gp)
  4001c0:	00000000 	nop
  4001c4:	2442e990 	addiu	v0,v0,-5744
  4001c8:	8c420000 	lw	v0,0(v0)
  4001cc:	00000000 	nop
  4001d0:	1040000b 	beqz	v0,400200 <__start+0x1e0>
  4001d4:	00000000 	nop
  4001d8:	8f82005c 	lw	v0,92(gp)
  4001dc:	8f84000c 	lw	a0,12(gp)
  4001e0:	00000000 	nop
  4001e4:	2484e990 	addiu	a0,a0,-5744
  4001e8:	10400005 	beqz	v0,400200 <__start+0x1e0>
  4001ec:	00000000 	nop
  4001f0:	0040c821 	move	t9,v0
  4001f4:	0320f809 	jalr	t9
  4001f8:	00000000 	nop
  4001fc:	8fbc0010 	lw	gp,16(sp)
  400200:	8fbf001c 	lw	ra,28(sp)
  400204:	00000000 	nop
  400208:	03e00008 	jr	ra
  40020c:	27bd0020 	addiu	sp,sp,32

00400210 <is_connected>:
  400210:	3c1c0001 	lui	gp,0x1
  400214:	279ce850 	addiu	gp,gp,-6064
  400218:	0399e021 	addu	gp,gp,t9
  40021c:	27bdffe0 	addiu	sp,sp,-32
  400220:	afbc0010 	sw	gp,16(sp)
  400224:	8f820034 	lw	v0,52(gp)
  400228:	00000000 	nop
  40022c:	8c420504 	lw	v0,1284(v0)
  400230:	afbf001c 	sw	ra,28(sp)
  400234:	afbc0018 	sw	gp,24(sp)
  400238:	8f840034 	lw	a0,52(gp)
  40023c:	00000000 	nop
  400240:	2484090c 	addiu	a0,a0,2316
  400244:	8f85000c 	lw	a1,12(gp)
  400248:	00000000 	nop
  40024c:	24a5ee10 	addiu	a1,a1,-4592
  400250:	1040000f 	beqz	v0,400290 <is_connected+0x80>
  400254:	24030001 	li	v1,1
  400258:	8f990178 	lw	t9,376(gp)
  40025c:	00000000 	nop
  400260:	0320f809 	jalr	t9
  400264:	00000000 	nop
  400268:	8fbc0010 	lw	gp,16(sp)
  40026c:	00402021 	move	a0,v0
  400270:	10400007 	beqz	v0,400290 <is_connected+0x80>
  400274:	00001821 	move	v1,zero
  400278:	8f99015c 	lw	t9,348(gp)
  40027c:	00000000 	nop
  400280:	0320f809 	jalr	t9
  400284:	00000000 	nop
  400288:	8fbc0010 	lw	gp,16(sp)
  40028c:	24030001 	li	v1,1
  400290:	8fbf001c 	lw	ra,28(sp)
  400294:	00601021 	move	v0,v1
  400298:	03e00008 	jr	ra
  40029c:	27bd0020 	addiu	sp,sp,32

004002a0 <dns_init>:
  4002a0:	3c1c0001 	lui	gp,0x1
  4002a4:	279ce7c0 	addiu	gp,gp,-6208
  4002a8:	0399e021 	addu	gp,gp,t9
  4002ac:	27bdffc8 	addiu	sp,sp,-56
  4002b0:	afbc0010 	sw	gp,16(sp)
  4002b4:	afb00028 	sw	s0,40(sp)
  4002b8:	27b00018 	addiu	s0,sp,24
  4002bc:	02002021 	move	a0,s0
  4002c0:	00002821 	move	a1,zero
  4002c4:	24060010 	li	a2,16
  4002c8:	afbf0030 	sw	ra,48(sp)
  4002cc:	afbc002c 	sw	gp,44(sp)
  4002d0:	8f990164 	lw	t9,356(gp)
  4002d4:	00000000 	nop
  4002d8:	0320f809 	jalr	t9
  4002dc:	00000000 	nop
  4002e0:	8fbc0010 	lw	gp,16(sp)
  4002e4:	24040002 	li	a0,2
  4002e8:	24050001 	li	a1,1
  4002ec:	24060011 	li	a2,17
  4002f0:	8f9902bc 	lw	t9,700(gp)
  4002f4:	00000000 	nop
  4002f8:	0320f809 	jalr	t9
  4002fc:	00000000 	nop
  400300:	8fbc0010 	lw	gp,16(sp)
  400304:	00000000 	nop
  400308:	8f8100e4 	lw	at,228(gp)
  40030c:	00000000 	nop
  400310:	ac220000 	sw	v0,0(at)
  400314:	8f84000c 	lw	a0,12(gp)
  400318:	00000000 	nop
  40031c:	2484ee14 	addiu	a0,a0,-4588
  400320:	04400012 	bltz	v0,40036c <dns_init+0xcc>
  400324:	02002821 	move	a1,s0
  400328:	00402021 	move	a0,v0
  40032c:	24020002 	li	v0,2
  400330:	a7a20018 	sh	v0,24(sp)
  400334:	24020035 	li	v0,53
  400338:	24060010 	li	a2,16
  40033c:	a7a2001a 	sh	v0,26(sp)
  400340:	afa0001c 	sw	zero,28(sp)
  400344:	8f990214 	lw	t9,532(gp)
  400348:	00000000 	nop
  40034c:	0320f809 	jalr	t9
  400350:	00000000 	nop
  400354:	8fbc0010 	lw	gp,16(sp)
  400358:	04410010 	bgez	v0,40039c <dns_init+0xfc>
  40035c:	00002021 	move	a0,zero
  400360:	8f84000c 	lw	a0,12(gp)
  400364:	00000000 	nop
  400368:	2484ee2c 	addiu	a0,a0,-4564
  40036c:	8f9900d8 	lw	t9,216(gp)
  400370:	00000000 	nop
  400374:	0320f809 	jalr	t9
  400378:	00000000 	nop
  40037c:	8fbc0010 	lw	gp,16(sp)
  400380:	24040001 	li	a0,1
  400384:	8f9900b4 	lw	t9,180(gp)
  400388:	00000000 	nop
  40038c:	0320f809 	jalr	t9
  400390:	00000000 	nop
  400394:	8fbc0010 	lw	gp,16(sp)
  400398:	00000000 	nop
  40039c:	8f810100 	lw	at,256(gp)
  4003a0:	00000000 	nop
  4003a4:	ac200000 	sw	zero,0(at)
  4003a8:	8f830040 	lw	v1,64(gp)
  4003ac:	24840001 	addiu	a0,a0,1
  4003b0:	2c820020 	sltiu	v0,a0,32
  4003b4:	ac600000 	sw	zero,0(v1)
  4003b8:	1440fffc 	bnez	v0,4003ac <dns_init+0x10c>
  4003bc:	24630004 	addiu	v1,v1,4
  4003c0:	8f8400e4 	lw	a0,228(gp)
  4003c4:	00000000 	nop
  4003c8:	8c840000 	lw	a0,0(a0)
  4003cc:	24020001 	li	v0,1
  4003d0:	00042942 	srl	a1,a0,0x5
  4003d4:	00052880 	sll	a1,a1,0x2
  4003d8:	8f810040 	lw	at,64(gp)
  4003dc:	00000000 	nop
  4003e0:	00252821 	addu	a1,at,a1
  4003e4:	8ca30000 	lw	v1,0(a1)
  4003e8:	3084001f 	andi	a0,a0,0x1f
  4003ec:	00821004 	sllv	v0,v0,a0
  4003f0:	00621825 	or	v1,v1,v0
  4003f4:	8f840034 	lw	a0,52(gp)
  4003f8:	00000000 	nop
  4003fc:	8c840508 	lw	a0,1288(a0)
  400400:	aca30000 	sw	v1,0(a1)
  400404:	8f8102f8 	lw	at,760(gp)
  400408:	00000000 	nop
  40040c:	ac200000 	sw	zero,0(at)
  400410:	8f990298 	lw	t9,664(gp)
  400414:	00000000 	nop
  400418:	0320f809 	jalr	t9
  40041c:	00000000 	nop
  400420:	8fbc0010 	lw	gp,16(sp)
  400424:	8fbf0030 	lw	ra,48(sp)
  400428:	8fb00028 	lw	s0,40(sp)
  40042c:	24020001 	li	v0,1
  400430:	03e00008 	jr	ra
  400434:	27bd0038 	addiu	sp,sp,56

00400438 <dns_handle_new_query>:
  400438:	3c1c0001 	lui	gp,0x1
  40043c:	279ce628 	addiu	gp,gp,-6616
  400440:	0399e021 	addu	gp,gp,t9
  400444:	27bdffd0 	addiu	sp,sp,-48
  400448:	afbc0010 	sw	gp,16(sp)
  40044c:	afb10024 	sw	s1,36(sp)
  400450:	afb00020 	sw	s0,32(sp)
  400454:	afbf002c 	sw	ra,44(sp)
  400458:	afbc0028 	sw	gp,40(sp)
  40045c:	9483022c 	lhu	v1,556(a0)
  400460:	24020001 	li	v0,1
  400464:	00808021 	move	s0,a0
  400468:	10620004 	beq	v1,v0,40047c <dns_handle_new_query+0x44>
  40046c:	2411ffff 	li	s1,-1
  400470:	2402001c 	li	v0,28
  400474:	14620009 	bne	v1,v0,40049c <dns_handle_new_query+0x64>
  400478:	2402000c 	li	v0,12
  40047c:	26050100 	addiu	a1,s0,256
  400480:	8f990118 	lw	t9,280(gp)
  400484:	00000000 	nop
  400488:	0320f809 	jalr	t9
  40048c:	00000000 	nop
  400490:	8fbc0010 	lw	gp,16(sp)
  400494:	1000000b 	b	4004c4 <dns_handle_new_query+0x8c>
  400498:	00408821 	move	s1,v0
  40049c:	1462000a 	bne	v1,v0,4004c8 <dns_handle_new_query+0x90>
  4004a0:	26060100 	addiu	a2,s0,256
  4004a4:	24840100 	addiu	a0,a0,256
  4004a8:	02002821 	move	a1,s0
  4004ac:	8f990264 	lw	t9,612(gp)
  4004b0:	00000000 	nop
  4004b4:	0320f809 	jalr	t9
  4004b8:	00000000 	nop
  4004bc:	8fbc0010 	lw	gp,16(sp)
  4004c0:	00408821 	move	s1,v0
  4004c4:	26060100 	addiu	a2,s0,256
  4004c8:	8f84000c 	lw	a0,12(gp)
  4004cc:	00000000 	nop
  4004d0:	2484ee54 	addiu	a0,a0,-4524
  4004d4:	02002821 	move	a1,s0
  4004d8:	8f9902a0 	lw	t9,672(gp)
  4004dc:	00000000 	nop
  4004e0:	0320f809 	jalr	t9
  4004e4:	00000000 	nop
  4004e8:	8fbc0010 	lw	gp,16(sp)
  4004ec:	12200005 	beqz	s1,400504 <dns_handle_new_query+0xcc>
  4004f0:	24020001 	li	v0,1
  4004f4:	12220054 	beq	s1,v0,400648 <dns_handle_new_query+0x210>
  4004f8:	02002021 	move	a0,s0
  4004fc:	1000006d 	b	4006b4 <dns_handle_new_query+0x27c>
  400500:	00000000 	nop
  400504:	8f990080 	lw	t9,128(gp)
  400508:	00000000 	nop
  40050c:	0320f809 	jalr	t9
  400510:	00000000 	nop
  400514:	8fbc0010 	lw	gp,16(sp)
  400518:	10400030 	beqz	v0,4005dc <dns_handle_new_query+0x1a4>
  40051c:	00000000 	nop
  400520:	96050120 	lhu	a1,288(s0)
  400524:	8f84000c 	lw	a0,12(gp)
  400528:	00000000 	nop
  40052c:	2484ee6c 	addiu	a0,a0,-4500
  400530:	8f9902a0 	lw	t9,672(gp)
  400534:	00000000 	nop
  400538:	0320f809 	jalr	t9
  40053c:	00000000 	nop
  400540:	8fbc0010 	lw	gp,16(sp)
  400544:	00000000 	nop
  400548:	8f8402f8 	lw	a0,760(gp)
  40054c:	00000000 	nop
  400550:	8c840000 	lw	a0,0(a0)
  400554:	02002821 	move	a1,s0
  400558:	8f990208 	lw	t9,520(gp)
  40055c:	00000000 	nop
  400560:	0320f809 	jalr	t9
  400564:	00000000 	nop
  400568:	8fbc0010 	lw	gp,16(sp)
  40056c:	27a50018 	addiu	a1,sp,24
  400570:	8f840034 	lw	a0,52(gp)
  400574:	8f8102f8 	lw	at,760(gp)
  400578:	00000000 	nop
  40057c:	ac220000 	sw	v0,0(at)
  400580:	8f990184 	lw	t9,388(gp)
  400584:	00000000 	nop
  400588:	0320f809 	jalr	t9
  40058c:	00000000 	nop
  400590:	8fbc0010 	lw	gp,16(sp)
  400594:	00000000 	nop
  400598:	8f84000c 	lw	a0,12(gp)
  40059c:	00000000 	nop
  4005a0:	2484ee88 	addiu	a0,a0,-4472
  4005a4:	8f850034 	lw	a1,52(gp)
  4005a8:	8f9902a0 	lw	t9,672(gp)
  4005ac:	00000000 	nop
  4005b0:	0320f809 	jalr	t9
  4005b4:	00000000 	nop
  4005b8:	8fbc0010 	lw	gp,16(sp)
  4005bc:	00000000 	nop
  4005c0:	8f8400e4 	lw	a0,228(gp)
  4005c4:	00000000 	nop
  4005c8:	8c840000 	lw	a0,0(a0)
  4005cc:	8fa50018 	lw	a1,24(sp)
  4005d0:	02003821 	move	a3,s0
  4005d4:	10000015 	b	40062c <dns_handle_new_query+0x1f4>
  4005d8:	24060035 	li	a2,53
  4005dc:	8f84000c 	lw	a0,12(gp)
  4005e0:	00000000 	nop
  4005e4:	2484ee9c 	addiu	a0,a0,-4452
  4005e8:	8f9902a0 	lw	t9,672(gp)
  4005ec:	00000000 	nop
  4005f0:	0320f809 	jalr	t9
  4005f4:	00000000 	nop
  4005f8:	8fbc0010 	lw	gp,16(sp)
  4005fc:	02002021 	move	a0,s0
  400600:	8f990278 	lw	t9,632(gp)
  400604:	00000000 	nop
  400608:	0320f809 	jalr	t9
  40060c:	00000000 	nop
  400610:	8fbc0010 	lw	gp,16(sp)
  400614:	8e0515a4 	lw	a1,5540(s0)
  400618:	8e0615a8 	lw	a2,5544(s0)
  40061c:	8f8400e4 	lw	a0,228(gp)
  400620:	00000000 	nop
  400624:	8c840000 	lw	a0,0(a0)
  400628:	02003821 	move	a3,s0
  40062c:	8f990320 	lw	t9,800(gp)
  400630:	00000000 	nop
  400634:	0320f809 	jalr	t9
  400638:	00000000 	nop
  40063c:	8fbc0010 	lw	gp,16(sp)
  400640:	10000025 	b	4006d8 <dns_handle_new_query+0x2a0>
  400644:	00000000 	nop
  400648:	8f9900a0 	lw	t9,160(gp)
  40064c:	00000000 	nop
  400650:	0320f809 	jalr	t9
  400654:	00000000 	nop
  400658:	8fbc0010 	lw	gp,16(sp)
  40065c:	8e0515a4 	lw	a1,5540(s0)
  400660:	8e0615a8 	lw	a2,5544(s0)
  400664:	8f8400e4 	lw	a0,228(gp)
  400668:	00000000 	nop
  40066c:	8c840000 	lw	a0,0(a0)
  400670:	02003821 	move	a3,s0
  400674:	8f990320 	lw	t9,800(gp)
  400678:	00000000 	nop
  40067c:	0320f809 	jalr	t9
  400680:	00000000 	nop
  400684:	8fbc0010 	lw	gp,16(sp)
  400688:	00000000 	nop
  40068c:	8f84000c 	lw	a0,12(gp)
  400690:	00000000 	nop
  400694:	2484eeb0 	addiu	a0,a0,-4432
  400698:	8f9902a0 	lw	t9,672(gp)
  40069c:	00000000 	nop
  4006a0:	0320f809 	jalr	t9
  4006a4:	00000000 	nop
  4006a8:	8fbc0010 	lw	gp,16(sp)
  4006ac:	1000000a 	b	4006d8 <dns_handle_new_query+0x2a0>
  4006b0:	00000000 	nop
  4006b4:	9605022c 	lhu	a1,556(s0)
  4006b8:	8f84000c 	lw	a0,12(gp)
  4006bc:	00000000 	nop
  4006c0:	2484eebc 	addiu	a0,a0,-4420
  4006c4:	8f9902a0 	lw	t9,672(gp)
  4006c8:	00000000 	nop
  4006cc:	0320f809 	jalr	t9
  4006d0:	00000000 	nop
  4006d4:	8fbc0010 	lw	gp,16(sp)
  4006d8:	8fbf002c 	lw	ra,44(sp)
  4006dc:	8fb10024 	lw	s1,36(sp)
  4006e0:	8fb00020 	lw	s0,32(sp)
  4006e4:	03e00008 	jr	ra
  4006e8:	27bd0030 	addiu	sp,sp,48

004006ec <dns_handle_request>:
  4006ec:	3c1c0001 	lui	gp,0x1
  4006f0:	279ce374 	addiu	gp,gp,-7308
  4006f4:	0399e021 	addu	gp,gp,t9
  4006f8:	27bdffd0 	addiu	sp,sp,-48
  4006fc:	afbc0010 	sw	gp,16(sp)
  400700:	afb1001c 	sw	s1,28(sp)
  400704:	00808821 	move	s1,a0
  400708:	8f8402f8 	lw	a0,760(gp)
  40070c:	00000000 	nop
  400710:	8c840000 	lw	a0,0(a0)
  400714:	02202821 	move	a1,s1
  400718:	afb00018 	sw	s0,24(sp)
  40071c:	afbf0028 	sw	ra,40(sp)
  400720:	afbc0024 	sw	gp,36(sp)
  400724:	afb20020 	sw	s2,32(sp)
  400728:	8f9900c4 	lw	t9,196(gp)
  40072c:	00000000 	nop
  400730:	0320f809 	jalr	t9
  400734:	00000000 	nop
  400738:	8fbc0010 	lw	gp,16(sp)
  40073c:	00000000 	nop
  400740:	8f84000c 	lw	a0,12(gp)
  400744:	00000000 	nop
  400748:	2484eed4 	addiu	a0,a0,-4396
  40074c:	10400050 	beqz	v0,400890 <dns_handle_request+0x1a4>
  400750:	00408021 	move	s0,v0
  400754:	8f9902a0 	lw	t9,672(gp)
  400758:	00000000 	nop
  40075c:	0320f809 	jalr	t9
  400760:	00000000 	nop
  400764:	8fbc0010 	lw	gp,16(sp)
  400768:	8e220120 	lw	v0,288(s1)
  40076c:	8f84000c 	lw	a0,12(gp)
  400770:	00000000 	nop
  400774:	2484eeec 	addiu	a0,a0,-4372
  400778:	3043000f 	andi	v1,v0,0xf
  40077c:	30428000 	andi	v0,v0,0x8000
  400780:	1040003c 	beqz	v0,400874 <dns_handle_request+0x188>
  400784:	02203821 	move	a3,s1
  400788:	14600047 	bnez	v1,4008a8 <dns_handle_request+0x1bc>
  40078c:	26320100 	addiu	s2,s1,256
  400790:	8e0615a8 	lw	a2,5544(s0)
  400794:	8e0515a4 	lw	a1,5540(s0)
  400798:	8f8400e4 	lw	a0,228(gp)
  40079c:	00000000 	nop
  4007a0:	8c840000 	lw	a0,0(a0)
  4007a4:	8f990320 	lw	t9,800(gp)
  4007a8:	00000000 	nop
  4007ac:	0320f809 	jalr	t9
  4007b0:	00000000 	nop
  4007b4:	8fbc0010 	lw	gp,16(sp)
  4007b8:	8e2415a4 	lw	a0,5540(s1)
  4007bc:	8f990154 	lw	t9,340(gp)
  4007c0:	00000000 	nop
  4007c4:	0320f809 	jalr	t9
  4007c8:	00000000 	nop
  4007cc:	8fbc0010 	lw	gp,16(sp)
  4007d0:	00402821 	move	a1,v0
  4007d4:	8f84000c 	lw	a0,12(gp)
  4007d8:	00000000 	nop
  4007dc:	2484ef00 	addiu	a0,a0,-4352
  4007e0:	8f9902a0 	lw	t9,672(gp)
  4007e4:	00000000 	nop
  4007e8:	0320f809 	jalr	t9
  4007ec:	00000000 	nop
  4007f0:	8fbc0010 	lw	gp,16(sp)
  4007f4:	00000000 	nop
  4007f8:	8f8402f8 	lw	a0,760(gp)
  4007fc:	00000000 	nop
  400800:	8c840000 	lw	a0,0(a0)
  400804:	02002821 	move	a1,s0
  400808:	8f9902b4 	lw	t9,692(gp)
  40080c:	00000000 	nop
  400810:	0320f809 	jalr	t9
  400814:	00000000 	nop
  400818:	8fbc0010 	lw	gp,16(sp)
  40081c:	02202821 	move	a1,s1
  400820:	02403021 	move	a2,s2
  400824:	8f84000c 	lw	a0,12(gp)
  400828:	00000000 	nop
  40082c:	2484ef20 	addiu	a0,a0,-4320
  400830:	8f8102f8 	lw	at,760(gp)
  400834:	00000000 	nop
  400838:	ac220000 	sw	v0,0(at)
  40083c:	8f9902a0 	lw	t9,672(gp)
  400840:	00000000 	nop
  400844:	0320f809 	jalr	t9
  400848:	00000000 	nop
  40084c:	8fbc0010 	lw	gp,16(sp)
  400850:	02202021 	move	a0,s1
  400854:	02402821 	move	a1,s2
  400858:	8f99035c 	lw	t9,860(gp)
  40085c:	00000000 	nop
  400860:	0320f809 	jalr	t9
  400864:	00000000 	nop
  400868:	8fbc0010 	lw	gp,16(sp)
  40086c:	1000000e 	b	4008a8 <dns_handle_request+0x1bc>
  400870:	00000000 	nop
  400874:	8f9902a0 	lw	t9,672(gp)
  400878:	00000000 	nop
  40087c:	0320f809 	jalr	t9
  400880:	00000000 	nop
  400884:	8fbc0010 	lw	gp,16(sp)
  400888:	10000007 	b	4008a8 <dns_handle_request+0x1bc>
  40088c:	00000000 	nop
  400890:	02202021 	move	a0,s1
  400894:	8f9900e0 	lw	t9,224(gp)
  400898:	00000000 	nop
  40089c:	0320f809 	jalr	t9
  4008a0:	00000000 	nop
  4008a4:	8fbc0010 	lw	gp,16(sp)
  4008a8:	8fbf0028 	lw	ra,40(sp)
  4008ac:	8fb20020 	lw	s2,32(sp)
  4008b0:	8fb1001c 	lw	s1,28(sp)
  4008b4:	8fb00018 	lw	s0,24(sp)
  4008b8:	03e00008 	jr	ra
  4008bc:	27bd0030 	addiu	sp,sp,48

004008c0 <dns_main_loop>:
  4008c0:	3c1c0001 	lui	gp,0x1
  4008c4:	279ce1a0 	addiu	gp,gp,-7776
  4008c8:	0399e021 	addu	gp,gp,t9
  4008cc:	27bde780 	addiu	sp,sp,-6272
  4008d0:	afbc0018 	sw	gp,24(sp)
  4008d4:	8f830034 	lw	v1,52(gp)
  4008d8:	00000000 	nop
  4008dc:	8c630508 	lw	v1,1288(v1)
  4008e0:	3c028888 	lui	v0,0x8888
  4008e4:	34428889 	ori	v0,v0,0x8889
  4008e8:	00620018 	mult	v1,v0
  4008ec:	000327c3 	sra	a0,v1,0x1f
  4008f0:	afb21870 	sw	s2,6256(sp)
  4008f4:	afbf187c 	sw	ra,6268(sp)
  4008f8:	afbc1878 	sw	gp,6264(sp)
  4008fc:	afb31874 	sw	s3,6260(sp)
  400900:	afb1186c 	sw	s1,6252(sp)
  400904:	afb01868 	sw	s0,6248(sp)
  400908:	00001010 	mfhi	v0
  40090c:	00431021 	addu	v0,v0,v1
  400910:	00021143 	sra	v0,v0,0x5
  400914:	00449023 	subu	s2,v0,a0
  400918:	8f820100 	lw	v0,256(gp)
  40091c:	00000000 	nop
  400920:	8c420000 	lw	v0,0(v0)
  400924:	00000000 	nop
  400928:	144000e9 	bnez	v0,400cd0 <dns_main_loop+0x410>
  40092c:	24020001 	li	v0,1
  400930:	27a50028 	addiu	a1,sp,40
  400934:	8f830040 	lw	v1,64(gp)
  400938:	afa20020 	sw	v0,32(sp)
  40093c:	afa00024 	sw	zero,36(sp)
  400940:	00a01021 	move	v0,a1
  400944:	24640080 	addiu	a0,v1,128
  400948:	8c660000 	lw	a2,0(v1)
  40094c:	8c670004 	lw	a3,4(v1)
  400950:	8c680008 	lw	t0,8(v1)
  400954:	8c69000c 	lw	t1,12(v1)
  400958:	ac460000 	sw	a2,0(v0)
  40095c:	ac470004 	sw	a3,4(v0)
  400960:	ac480008 	sw	t0,8(v0)
  400964:	ac49000c 	sw	t1,12(v0)
  400968:	24630010 	addiu	v1,v1,16
  40096c:	1464fff6 	bne	v1,a0,400948 <dns_main_loop+0x88>
  400970:	24420010 	addiu	v0,v0,16
  400974:	27a20020 	addiu	v0,sp,32
  400978:	24040400 	li	a0,1024
  40097c:	00003021 	move	a2,zero
  400980:	00003821 	move	a3,zero
  400984:	afa20010 	sw	v0,16(sp)
  400988:	8f9902b8 	lw	t9,696(gp)
  40098c:	00000000 	nop
  400990:	0320f809 	jalr	t9
  400994:	00000000 	nop
  400998:	8fbc0018 	lw	gp,24(sp)
  40099c:	10400013 	beqz	v0,4009ec <dns_main_loop+0x12c>
  4009a0:	27b000a8 	addiu	s0,sp,168
  4009a4:	8f8400e4 	lw	a0,228(gp)
  4009a8:	00000000 	nop
  4009ac:	8c840000 	lw	a0,0(a0)
  4009b0:	02002821 	move	a1,s0
  4009b4:	8f990270 	lw	t9,624(gp)
  4009b8:	00000000 	nop
  4009bc:	0320f809 	jalr	t9
  4009c0:	00000000 	nop
  4009c4:	8fbc0018 	lw	gp,24(sp)
  4009c8:	02002021 	move	a0,s0
  4009cc:	afa001c4 	sw	zero,452(sp)
  4009d0:	8f9901f8 	lw	t9,504(gp)
  4009d4:	00000000 	nop
  4009d8:	0320f809 	jalr	t9
  4009dc:	00000000 	nop
  4009e0:	8fbc0018 	lw	gp,24(sp)
  4009e4:	100000b4 	b	400cb8 <dns_main_loop+0x3f8>
  4009e8:	00000000 	nop
  4009ec:	8f9002f8 	lw	s0,760(gp)
  4009f0:	00000000 	nop
  4009f4:	8e100000 	lw	s0,0(s0)
  4009f8:	00000000 	nop
  4009fc:	12000097 	beqz	s0,400c5c <dns_main_loop+0x39c>
  400a00:	00000000 	nop
  400a04:	8e02011c 	lw	v0,284(s0)
  400a08:	8f84000c 	lw	a0,12(gp)
  400a0c:	00000000 	nop
  400a10:	2484ef3c 	addiu	a0,a0,-4292
  400a14:	24420001 	addiu	v0,v0,1
  400a18:	284300f1 	slti	v1,v0,241
  400a1c:	8e1317b4 	lw	s3,6068(s0)
  400a20:	14600025 	bnez	v1,400ab8 <dns_main_loop+0x1f8>
  400a24:	ae02011c 	sw	v0,284(s0)
  400a28:	8f9902a0 	lw	t9,672(gp)
  400a2c:	00000000 	nop
  400a30:	0320f809 	jalr	t9
  400a34:	00000000 	nop
  400a38:	8fbc0018 	lw	gp,24(sp)
  400a3c:	02002021 	move	a0,s0
  400a40:	8f990278 	lw	t9,632(gp)
  400a44:	00000000 	nop
  400a48:	0320f809 	jalr	t9
  400a4c:	00000000 	nop
  400a50:	8fbc0018 	lw	gp,24(sp)
  400a54:	8e0615a8 	lw	a2,5544(s0)
  400a58:	8e0515a4 	lw	a1,5540(s0)
  400a5c:	8f8400e4 	lw	a0,228(gp)
  400a60:	00000000 	nop
  400a64:	8c840000 	lw	a0,0(a0)
  400a68:	02003821 	move	a3,s0
  400a6c:	8f990320 	lw	t9,800(gp)
  400a70:	00000000 	nop
  400a74:	0320f809 	jalr	t9
  400a78:	00000000 	nop
  400a7c:	8fbc0018 	lw	gp,24(sp)
  400a80:	00000000 	nop
  400a84:	8f8402f8 	lw	a0,760(gp)
  400a88:	00000000 	nop
  400a8c:	8c840000 	lw	a0,0(a0)
  400a90:	02002821 	move	a1,s0
  400a94:	8f9902b4 	lw	t9,692(gp)
  400a98:	00000000 	nop
  400a9c:	0320f809 	jalr	t9
  400aa0:	00000000 	nop
  400aa4:	8fbc0018 	lw	gp,24(sp)
  400aa8:	00000000 	nop
  400aac:	8f8102f8 	lw	at,760(gp)
  400ab0:	00000000 	nop
  400ab4:	ac220000 	sw	v0,0(at)
  400ab8:	8e03011c 	lw	v1,284(s0)
  400abc:	00000000 	nop
  400ac0:	30620001 	andi	v0,v1,0x1
  400ac4:	14400062 	bnez	v0,400c50 <dns_main_loop+0x390>
  400ac8:	286400f0 	slti	a0,v1,240
  400acc:	10800060 	beqz	a0,400c50 <dns_main_loop+0x390>
  400ad0:	000317c2 	srl	v0,v1,0x1f
  400ad4:	00621021 	addu	v0,v1,v0
  400ad8:	00021043 	sra	v0,v0,0x1
  400adc:	00021a00 	sll	v1,v0,0x8
  400ae0:	28420005 	slti	v0,v0,5
  400ae4:	8f84000c 	lw	a0,12(gp)
  400ae8:	00000000 	nop
  400aec:	2484ef50 	addiu	a0,a0,-4272
  400af0:	8f910034 	lw	s1,52(gp)
  400af4:	00000000 	nop
  400af8:	10400003 	beqz	v0,400b08 <dns_main_loop+0x248>
  400afc:	02238821 	addu	s1,s1,v1
  400b00:	1620002f 	bnez	s1,400bc0 <dns_main_loop+0x300>
  400b04:	27a51860 	addiu	a1,sp,6240
  400b08:	8f9902a0 	lw	t9,672(gp)
  400b0c:	00000000 	nop
  400b10:	0320f809 	jalr	t9
  400b14:	00000000 	nop
  400b18:	8fbc0018 	lw	gp,24(sp)
  400b1c:	02002021 	move	a0,s0
  400b20:	8f990278 	lw	t9,632(gp)
  400b24:	00000000 	nop
  400b28:	0320f809 	jalr	t9
  400b2c:	00000000 	nop
  400b30:	8fbc0018 	lw	gp,24(sp)
  400b34:	8e0515a4 	lw	a1,5540(s0)
  400b38:	8e0615a8 	lw	a2,5544(s0)
  400b3c:	8f8400e4 	lw	a0,228(gp)
  400b40:	00000000 	nop
  400b44:	8c840000 	lw	a0,0(a0)
  400b48:	02003821 	move	a3,s0
  400b4c:	8f990320 	lw	t9,800(gp)
  400b50:	00000000 	nop
  400b54:	0320f809 	jalr	t9
  400b58:	00000000 	nop
  400b5c:	8fbc0018 	lw	gp,24(sp)
  400b60:	00000000 	nop
  400b64:	8f8402f8 	lw	a0,760(gp)
  400b68:	00000000 	nop
  400b6c:	8c840000 	lw	a0,0(a0)
  400b70:	02002821 	move	a1,s0
  400b74:	8f9902b4 	lw	t9,692(gp)
  400b78:	00000000 	nop
  400b7c:	0320f809 	jalr	t9
  400b80:	00000000 	nop
  400b84:	8fbc0018 	lw	gp,24(sp)
  400b88:	00000000 	nop
  400b8c:	8f84000c 	lw	a0,12(gp)
  400b90:	00000000 	nop
  400b94:	2484ef70 	addiu	a0,a0,-4240
  400b98:	8f8102f8 	lw	at,760(gp)
  400b9c:	00000000 	nop
  400ba0:	ac220000 	sw	v0,0(at)
  400ba4:	8f9902a0 	lw	t9,672(gp)
  400ba8:	00000000 	nop
  400bac:	0320f809 	jalr	t9
  400bb0:	00000000 	nop
  400bb4:	8fbc0018 	lw	gp,24(sp)
  400bb8:	10000026 	b	400c54 <dns_main_loop+0x394>
  400bbc:	02608021 	move	s0,s3
  400bc0:	02202021 	move	a0,s1
  400bc4:	8f990184 	lw	t9,388(gp)
  400bc8:	00000000 	nop
  400bcc:	0320f809 	jalr	t9
  400bd0:	00000000 	nop
  400bd4:	8fbc0018 	lw	gp,24(sp)
  400bd8:	00000000 	nop
  400bdc:	8f84000c 	lw	a0,12(gp)
  400be0:	00000000 	nop
  400be4:	2484ef98 	addiu	a0,a0,-4200
  400be8:	8f9902a0 	lw	t9,672(gp)
  400bec:	00000000 	nop
  400bf0:	0320f809 	jalr	t9
  400bf4:	00000000 	nop
  400bf8:	8fbc0018 	lw	gp,24(sp)
  400bfc:	02202821 	move	a1,s1
  400c00:	8f84000c 	lw	a0,12(gp)
  400c04:	00000000 	nop
  400c08:	2484efc0 	addiu	a0,a0,-4160
  400c0c:	8f9902a0 	lw	t9,672(gp)
  400c10:	00000000 	nop
  400c14:	0320f809 	jalr	t9
  400c18:	00000000 	nop
  400c1c:	8fbc0018 	lw	gp,24(sp)
  400c20:	00000000 	nop
  400c24:	8f8400e4 	lw	a0,228(gp)
  400c28:	00000000 	nop
  400c2c:	8c840000 	lw	a0,0(a0)
  400c30:	8fa51860 	lw	a1,6240(sp)
  400c34:	02003821 	move	a3,s0
  400c38:	24060035 	li	a2,53
  400c3c:	8f990320 	lw	t9,800(gp)
  400c40:	00000000 	nop
  400c44:	0320f809 	jalr	t9
  400c48:	00000000 	nop
  400c4c:	8fbc0018 	lw	gp,24(sp)
  400c50:	02608021 	move	s0,s3
  400c54:	1660ff6b 	bnez	s3,400a04 <dns_main_loop+0x144>
  400c58:	00000000 	nop
  400c5c:	2652ffff 	addiu	s2,s2,-1
  400c60:	16400015 	bnez	s2,400cb8 <dns_main_loop+0x3f8>
  400c64:	00000000 	nop
  400c68:	8f840034 	lw	a0,52(gp)
  400c6c:	00000000 	nop
  400c70:	8c840508 	lw	a0,1288(a0)
  400c74:	8f990298 	lw	t9,664(gp)
  400c78:	00000000 	nop
  400c7c:	0320f809 	jalr	t9
  400c80:	00000000 	nop
  400c84:	8fbc0018 	lw	gp,24(sp)
  400c88:	00000000 	nop
  400c8c:	8f820034 	lw	v0,52(gp)
  400c90:	00000000 	nop
  400c94:	8c420508 	lw	v0,1288(v0)
  400c98:	3c038888 	lui	v1,0x8888
  400c9c:	34638889 	ori	v1,v1,0x8889
  400ca0:	00430018 	mult	v0,v1
  400ca4:	000227c3 	sra	a0,v0,0x1f
  400ca8:	00001810 	mfhi	v1
  400cac:	00621821 	addu	v1,v1,v0
  400cb0:	00031943 	sra	v1,v1,0x5
  400cb4:	00649023 	subu	s2,v1,a0
  400cb8:	8f820100 	lw	v0,256(gp)
  400cbc:	00000000 	nop
  400cc0:	8c420000 	lw	v0,0(v0)
  400cc4:	00000000 	nop
  400cc8:	1040ff19 	beqz	v0,400930 <dns_main_loop+0x70>
  400ccc:	24020001 	li	v0,1
  400cd0:	8fbf187c 	lw	ra,6268(sp)
  400cd4:	8fb31874 	lw	s3,6260(sp)
  400cd8:	8fb21870 	lw	s2,6256(sp)
  400cdc:	8fb1186c 	lw	s1,6252(sp)
  400ce0:	8fb01868 	lw	s0,6248(sp)
  400ce4:	00001021 	move	v0,zero
  400ce8:	03e00008 	jr	ra
  400cec:	27bd1880 	addiu	sp,sp,6272

00400cf0 <debug_perror>:
  400cf0:	3c1c0001 	lui	gp,0x1
  400cf4:	279cdd70 	addiu	gp,gp,-8848
  400cf8:	0399e021 	addu	gp,gp,t9
  400cfc:	27bdffd8 	addiu	sp,sp,-40
  400d00:	afbc0010 	sw	gp,16(sp)
  400d04:	afbf0020 	sw	ra,32(sp)
  400d08:	afb00018 	sw	s0,24(sp)
  400d0c:	afbc001c 	sw	gp,28(sp)
  400d10:	00808021 	move	s0,a0
  400d14:	8f9900bc 	lw	t9,188(gp)
  400d18:	00000000 	nop
  400d1c:	0320f809 	jalr	t9
  400d20:	00000000 	nop
  400d24:	8fbc0010 	lw	gp,16(sp)
  400d28:	8c440000 	lw	a0,0(v0)
  400d2c:	8f990340 	lw	t9,832(gp)
  400d30:	00000000 	nop
  400d34:	0320f809 	jalr	t9
  400d38:	00000000 	nop
  400d3c:	8fbc0010 	lw	gp,16(sp)
  400d40:	00403021 	move	a2,v0
  400d44:	02002821 	move	a1,s0
  400d48:	8f84000c 	lw	a0,12(gp)
  400d4c:	00000000 	nop
  400d50:	2484efe0 	addiu	a0,a0,-4128
  400d54:	8f9902a0 	lw	t9,672(gp)
  400d58:	00000000 	nop
  400d5c:	0320f809 	jalr	t9
  400d60:	00000000 	nop
  400d64:	8fbc0010 	lw	gp,16(sp)
  400d68:	8fbf0020 	lw	ra,32(sp)
  400d6c:	8fb00018 	lw	s0,24(sp)
  400d70:	03e00008 	jr	ra
  400d74:	27bd0028 	addiu	sp,sp,40

00400d78 <debug>:
  400d78:	3c1c0001 	lui	gp,0x1
  400d7c:	279cdce8 	addiu	gp,gp,-8984
  400d80:	0399e021 	addu	gp,gp,t9
  400d84:	27bdfbd8 	addiu	sp,sp,-1064
  400d88:	afbc0010 	sw	gp,16(sp)
  400d8c:	afa70434 	sw	a3,1076(sp)
  400d90:	afbf0424 	sw	ra,1060(sp)
  400d94:	afa5042c 	sw	a1,1068(sp)
  400d98:	afa60430 	sw	a2,1072(sp)
  400d9c:	afb1041c 	sw	s1,1052(sp)
  400da0:	afb00418 	sw	s0,1048(sp)
  400da4:	afbc0420 	sw	gp,1056(sp)
  400da8:	00808021 	move	s0,a0
  400dac:	8f990310 	lw	t9,784(gp)
  400db0:	00000000 	nop
  400db4:	0320f809 	jalr	t9
  400db8:	00000000 	nop
  400dbc:	8fbc0010 	lw	gp,16(sp)
  400dc0:	00403021 	move	a2,v0
  400dc4:	8f85000c 	lw	a1,12(gp)
  400dc8:	00000000 	nop
  400dcc:	24a5efec 	addiu	a1,a1,-4116
  400dd0:	27a40018 	addiu	a0,sp,24
  400dd4:	8f99011c 	lw	t9,284(gp)
  400dd8:	00000000 	nop
  400ddc:	0320f809 	jalr	t9
  400de0:	00000000 	nop
  400de4:	8fbc0010 	lw	gp,16(sp)
  400de8:	27a40018 	addiu	a0,sp,24
  400dec:	8f99007c 	lw	t9,124(gp)
  400df0:	00000000 	nop
  400df4:	0320f809 	jalr	t9
  400df8:	00000000 	nop
  400dfc:	8fbc0010 	lw	gp,16(sp)
  400e00:	27b10018 	addiu	s1,sp,24
  400e04:	24050400 	li	a1,1024
  400e08:	00a22823 	subu	a1,a1,v0
  400e0c:	02221021 	addu	v0,s1,v0
  400e10:	00402021 	move	a0,v0
  400e14:	02003021 	move	a2,s0
  400e18:	27a7042c 	addiu	a3,sp,1068
  400e1c:	8f9902c8 	lw	t9,712(gp)
  400e20:	00000000 	nop
  400e24:	0320f809 	jalr	t9
  400e28:	00000000 	nop
  400e2c:	8fbc0010 	lw	gp,16(sp)
  400e30:	00000000 	nop
  400e34:	8f820034 	lw	v0,52(gp)
  400e38:	00000000 	nop
  400e3c:	80420b0c 	lb	v0,2828(v0)
  400e40:	8f840034 	lw	a0,52(gp)
  400e44:	00000000 	nop
  400e48:	24840b0c 	addiu	a0,a0,2828
  400e4c:	8f85000c 	lw	a1,12(gp)
  400e50:	00000000 	nop
  400e54:	24a5eff8 	addiu	a1,a1,-4104
  400e58:	10400021 	beqz	v0,400ee0 <debug+0x168>
  400e5c:	00000000 	nop
  400e60:	8f990178 	lw	t9,376(gp)
  400e64:	00000000 	nop
  400e68:	0320f809 	jalr	t9
  400e6c:	00000000 	nop
  400e70:	8fbc0010 	lw	gp,16(sp)
  400e74:	00408021 	move	s0,v0
  400e78:	8f85000c 	lw	a1,12(gp)
  400e7c:	00000000 	nop
  400e80:	24a5effc 	addiu	a1,a1,-4100
  400e84:	14400008 	bnez	v0,400ea8 <debug+0x130>
  400e88:	24040003 	li	a0,3
  400e8c:	8f990144 	lw	t9,324(gp)
  400e90:	00000000 	nop
  400e94:	0320f809 	jalr	t9
  400e98:	00000000 	nop
  400e9c:	8fbc0010 	lw	gp,16(sp)
  400ea0:	1000001d 	b	400f18 <debug+0x1a0>
  400ea4:	00000000 	nop
  400ea8:	02202021 	move	a0,s1
  400eac:	00402821 	move	a1,v0
  400eb0:	8f990060 	lw	t9,96(gp)
  400eb4:	00000000 	nop
  400eb8:	0320f809 	jalr	t9
  400ebc:	00000000 	nop
  400ec0:	8fbc0010 	lw	gp,16(sp)
  400ec4:	02002021 	move	a0,s0
  400ec8:	8f99015c 	lw	t9,348(gp)
  400ecc:	00000000 	nop
  400ed0:	0320f809 	jalr	t9
  400ed4:	00000000 	nop
  400ed8:	8fbc0010 	lw	gp,16(sp)
  400edc:	00000000 	nop
  400ee0:	8f820034 	lw	v0,52(gp)
  400ee4:	00000000 	nop
  400ee8:	8c420500 	lw	v0,1280(v0)
  400eec:	00000000 	nop
  400ef0:	14400009 	bnez	v0,400f18 <debug+0x1a0>
  400ef4:	27a40018 	addiu	a0,sp,24
  400ef8:	8f850110 	lw	a1,272(gp)
  400efc:	00000000 	nop
  400f00:	8ca50000 	lw	a1,0(a1)
  400f04:	8f990060 	lw	t9,96(gp)
  400f08:	00000000 	nop
  400f0c:	0320f809 	jalr	t9
  400f10:	00000000 	nop
  400f14:	8fbc0010 	lw	gp,16(sp)
  400f18:	8fbf0424 	lw	ra,1060(sp)
  400f1c:	8fb1041c 	lw	s1,1052(sp)
  400f20:	8fb00418 	lw	s0,1048(sp)
  400f24:	03e00008 	jr	ra
  400f28:	27bd0428 	addiu	sp,sp,1064

00400f2c <usage>:
  400f2c:	3c1c0001 	lui	gp,0x1
  400f30:	279cdb34 	addiu	gp,gp,-9420
  400f34:	0399e021 	addu	gp,gp,t9
  400f38:	27bdffd8 	addiu	sp,sp,-40
  400f3c:	afbc0010 	sw	gp,16(sp)
  400f40:	afb00018 	sw	s0,24(sp)
  400f44:	00808021 	move	s0,a0
  400f48:	8f840110 	lw	a0,272(gp)
  400f4c:	00000000 	nop
  400f50:	8c840000 	lw	a0,0(a0)
  400f54:	00a03021 	move	a2,a1
  400f58:	8f85000c 	lw	a1,12(gp)
  400f5c:	00000000 	nop
  400f60:	24a5f018 	addiu	a1,a1,-4072
  400f64:	afbf0020 	sw	ra,32(sp)
  400f68:	afbc001c 	sw	gp,28(sp)
  400f6c:	8f990224 	lw	t9,548(gp)
  400f70:	00000000 	nop
  400f74:	0320f809 	jalr	t9
  400f78:	00000000 	nop
  400f7c:	8fbc0010 	lw	gp,16(sp)
  400f80:	00000000 	nop
  400f84:	8f840110 	lw	a0,272(gp)
  400f88:	00000000 	nop
  400f8c:	8c840000 	lw	a0,0(a0)
  400f90:	02003021 	move	a2,s0
  400f94:	8f85000c 	lw	a1,12(gp)
  400f98:	00000000 	nop
  400f9c:	24a5f01c 	addiu	a1,a1,-4068
  400fa0:	8f990224 	lw	t9,548(gp)
  400fa4:	00000000 	nop
  400fa8:	0320f809 	jalr	t9
  400fac:	00000000 	nop
  400fb0:	8fbc0010 	lw	gp,16(sp)
  400fb4:	00000000 	nop
  400fb8:	8f850110 	lw	a1,272(gp)
  400fbc:	00000000 	nop
  400fc0:	8ca50000 	lw	a1,0(a1)
  400fc4:	8f84000c 	lw	a0,12(gp)
  400fc8:	00000000 	nop
  400fcc:	2484f04c 	addiu	a0,a0,-4020
  400fd0:	8f990060 	lw	t9,96(gp)
  400fd4:	00000000 	nop
  400fd8:	0320f809 	jalr	t9
  400fdc:	00000000 	nop
  400fe0:	8fbc0010 	lw	gp,16(sp)
  400fe4:	00000000 	nop
  400fe8:	8f850110 	lw	a1,272(gp)
  400fec:	00000000 	nop
  400ff0:	8ca50000 	lw	a1,0(a1)
  400ff4:	8f84000c 	lw	a0,12(gp)
  400ff8:	00000000 	nop
  400ffc:	2484f088 	addiu	a0,a0,-3960
  401000:	8f990060 	lw	t9,96(gp)
  401004:	00000000 	nop
  401008:	0320f809 	jalr	t9
  40100c:	00000000 	nop
  401010:	8fbc0010 	lw	gp,16(sp)
  401014:	00000000 	nop
  401018:	8f850110 	lw	a1,272(gp)
  40101c:	00000000 	nop
  401020:	8ca50000 	lw	a1,0(a1)
  401024:	8f84000c 	lw	a0,12(gp)
  401028:	00000000 	nop
  40102c:	2484f0b0 	addiu	a0,a0,-3920
  401030:	8f990060 	lw	t9,96(gp)
  401034:	00000000 	nop
  401038:	0320f809 	jalr	t9
  40103c:	00000000 	nop
  401040:	8fbc0010 	lw	gp,16(sp)
  401044:	00000000 	nop
  401048:	8f850110 	lw	a1,272(gp)
  40104c:	00000000 	nop
  401050:	8ca50000 	lw	a1,0(a1)
  401054:	8f84000c 	lw	a0,12(gp)
  401058:	00000000 	nop
  40105c:	2484f0e0 	addiu	a0,a0,-3872
  401060:	8f990060 	lw	t9,96(gp)
  401064:	00000000 	nop
  401068:	0320f809 	jalr	t9
  40106c:	00000000 	nop
  401070:	8fbc0010 	lw	gp,16(sp)
  401074:	8fbf0020 	lw	ra,32(sp)
  401078:	8fb00018 	lw	s0,24(sp)
  40107c:	03e00008 	jr	ra
  401080:	27bd0028 	addiu	sp,sp,40

00401084 <get_options>:
  401084:	3c1c0001 	lui	gp,0x1
  401088:	279cd9dc 	addiu	gp,gp,-9764
  40108c:	0399e021 	addu	gp,gp,t9
  401090:	27bdffc8 	addiu	sp,sp,-56
  401094:	afbc0010 	sw	gp,16(sp)
  401098:	afb40028 	sw	s4,40(sp)
  40109c:	afb30024 	sw	s3,36(sp)
  4010a0:	afb20020 	sw	s2,32(sp)
  4010a4:	afb1001c 	sw	s1,28(sp)
  4010a8:	afbf0030 	sw	ra,48(sp)
  4010ac:	afbc002c 	sw	gp,44(sp)
  4010b0:	afb00018 	sw	s0,24(sp)
  4010b4:	8cb00000 	lw	s0,0(a1)
  4010b8:	00a09021 	move	s2,a1
  4010bc:	0080a021 	move	s4,a0
  4010c0:	00008821 	move	s1,zero
  4010c4:	8f9901b8 	lw	t9,440(gp)
  4010c8:	00000000 	nop
  4010cc:	0320f809 	jalr	t9
  4010d0:	00000000 	nop
  4010d4:	8fbc0010 	lw	gp,16(sp)
  4010d8:	10000022 	b	401164 <get_options+0xe0>
  4010dc:	00009821 	move	s3,zero
  4010e0:	24020063 	li	v0,99
  4010e4:	1062000b 	beq	v1,v0,401114 <get_options+0x90>
  4010e8:	00000000 	nop
  4010ec:	10800003 	beqz	a0,4010fc <get_options+0x78>
  4010f0:	24020050 	li	v0,80
  4010f4:	10000003 	b	401104 <get_options+0x80>
  4010f8:	24130001 	li	s3,1
  4010fc:	24110001 	li	s1,1
  401100:	24020064 	li	v0,100
  401104:	10620017 	beq	v1,v0,401164 <get_options+0xe0>
  401108:	00000000 	nop
  40110c:	1000000b 	b	40113c <get_options+0xb8>
  401110:	02002021 	move	a0,s0
  401114:	8f8402cc 	lw	a0,716(gp)
  401118:	00000000 	nop
  40111c:	8c840000 	lw	a0,0(a0)
  401120:	8f9902f4 	lw	t9,756(gp)
  401124:	00000000 	nop
  401128:	0320f809 	jalr	t9
  40112c:	00000000 	nop
  401130:	8fbc0010 	lw	gp,16(sp)
  401134:	1000000c 	b	401168 <get_options+0xe4>
  401138:	02802021 	move	a0,s4
  40113c:	8f85000c 	lw	a1,12(gp)
  401140:	00000000 	nop
  401144:	24a5f0f8 	addiu	a1,a1,-3848
  401148:	8f990308 	lw	t9,776(gp)
  40114c:	00000000 	nop
  401150:	0320f809 	jalr	t9
  401154:	00000000 	nop
  401158:	8fbc0010 	lw	gp,16(sp)
  40115c:	10000022 	b	4011e8 <get_options+0x164>
  401160:	2402ffff 	li	v0,-1
  401164:	02802021 	move	a0,s4
  401168:	02402821 	move	a1,s2
  40116c:	8f86000c 	lw	a2,12(gp)
  401170:	00000000 	nop
  401174:	24c6f0fc 	addiu	a2,a2,-3844
  401178:	8f990170 	lw	t9,368(gp)
  40117c:	00000000 	nop
  401180:	0320f809 	jalr	t9
  401184:	00000000 	nop
  401188:	8fbc0010 	lw	gp,16(sp)
  40118c:	00021600 	sll	v0,v0,0x18
  401190:	00021e03 	sra	v1,v0,0x18
  401194:	2402ffff 	li	v0,-1
  401198:	1462ffd1 	bne	v1,v0,4010e0 <get_options+0x5c>
  40119c:	28640064 	slti	a0,v1,100
  4011a0:	12200004 	beqz	s1,4011b4 <get_options+0x130>
  4011a4:	00000000 	nop
  4011a8:	8f810034 	lw	at,52(gp)
  4011ac:	00000000 	nop
  4011b0:	ac200500 	sw	zero,1280(at)
  4011b4:	1260000c 	beqz	s3,4011e8 <get_options+0x164>
  4011b8:	00001021 	move	v0,zero
  4011bc:	8f990108 	lw	t9,264(gp)
  4011c0:	00000000 	nop
  4011c4:	0320f809 	jalr	t9
  4011c8:	00000000 	nop
  4011cc:	8fbc0010 	lw	gp,16(sp)
  4011d0:	00002021 	move	a0,zero
  4011d4:	8f9900b4 	lw	t9,180(gp)
  4011d8:	00000000 	nop
  4011dc:	0320f809 	jalr	t9
  4011e0:	00000000 	nop
  4011e4:	8fbc0010 	lw	gp,16(sp)
  4011e8:	8fbf0030 	lw	ra,48(sp)
  4011ec:	8fb40028 	lw	s4,40(sp)
  4011f0:	8fb30024 	lw	s3,36(sp)
  4011f4:	8fb20020 	lw	s2,32(sp)
  4011f8:	8fb1001c 	lw	s1,28(sp)
  4011fc:	8fb00018 	lw	s0,24(sp)
  401200:	03e00008 	jr	ra
  401204:	27bd0038 	addiu	sp,sp,56

00401208 <sig_hup>:
  401208:	3c1c0001 	lui	gp,0x1
  40120c:	279cd858 	addiu	gp,gp,-10152
  401210:	0399e021 	addu	gp,gp,t9
  401214:	27bdffe0 	addiu	sp,sp,-32
  401218:	afbc0010 	sw	gp,16(sp)
  40121c:	8f8500dc 	lw	a1,220(gp)
  401220:	24040001 	li	a0,1
  401224:	afbf001c 	sw	ra,28(sp)
  401228:	afbc0018 	sw	gp,24(sp)
  40122c:	8f9901d8 	lw	t9,472(gp)
  401230:	00000000 	nop
  401234:	0320f809 	jalr	t9
  401238:	00000000 	nop
  40123c:	8fbc0010 	lw	gp,16(sp)
  401240:	00000000 	nop
  401244:	8f840034 	lw	a0,52(gp)
  401248:	00000000 	nop
  40124c:	2484050c 	addiu	a0,a0,1292
  401250:	8f9902f4 	lw	t9,756(gp)
  401254:	00000000 	nop
  401258:	0320f809 	jalr	t9
  40125c:	00000000 	nop
  401260:	8fbc0010 	lw	gp,16(sp)
  401264:	8fbf001c 	lw	ra,28(sp)
  401268:	00000000 	nop
  40126c:	03e00008 	jr	ra
  401270:	27bd0020 	addiu	sp,sp,32

00401274 <main>:
  401274:	3c1c0001 	lui	gp,0x1
  401278:	279cd7ec 	addiu	gp,gp,-10260
  40127c:	0399e021 	addu	gp,gp,t9
  401280:	27bdffe0 	addiu	sp,sp,-32
  401284:	afbc0010 	sw	gp,16(sp)
  401288:	afbf001c 	sw	ra,28(sp)
  40128c:	afbc0018 	sw	gp,24(sp)
  401290:	8f9900fc 	lw	t9,252(gp)
  401294:	00000000 	nop
  401298:	0320f809 	jalr	t9
  40129c:	00000000 	nop
  4012a0:	8fbc0010 	lw	gp,16(sp)
  4012a4:	00000000 	nop
  4012a8:	8f8500dc 	lw	a1,220(gp)
  4012ac:	04400029 	bltz	v0,401354 <main+0xe0>
  4012b0:	24040001 	li	a0,1
  4012b4:	8f9901d8 	lw	t9,472(gp)
  4012b8:	00000000 	nop
  4012bc:	0320f809 	jalr	t9
  4012c0:	00000000 	nop
  4012c4:	8fbc0010 	lw	gp,16(sp)
  4012c8:	00000000 	nop
  4012cc:	8f99006c 	lw	t9,108(gp)
  4012d0:	00000000 	nop
  4012d4:	0320f809 	jalr	t9
  4012d8:	00000000 	nop
  4012dc:	8fbc0010 	lw	gp,16(sp)
  4012e0:	00000000 	nop
  4012e4:	8f820034 	lw	v0,52(gp)
  4012e8:	00000000 	nop
  4012ec:	8c420500 	lw	v0,1280(v0)
  4012f0:	00000000 	nop
  4012f4:	1040001d 	beqz	v0,40136c <main+0xf8>
  4012f8:	00000000 	nop
  4012fc:	8f990198 	lw	t9,408(gp)
  401300:	00000000 	nop
  401304:	0320f809 	jalr	t9
  401308:	00000000 	nop
  40130c:	8fbc0010 	lw	gp,16(sp)
  401310:	00401821 	move	v1,v0
  401314:	2402ffff 	li	v0,-1
  401318:	10620005 	beq	v1,v0,401330 <main+0xbc>
  40131c:	00000000 	nop
  401320:	10600012 	beqz	v1,40136c <main+0xf8>
  401324:	00002021 	move	a0,zero
  401328:	1000000a 	b	401354 <main+0xe0>
  40132c:	00000000 	nop
  401330:	8f84000c 	lw	a0,12(gp)
  401334:	00000000 	nop
  401338:	2484f104 	addiu	a0,a0,-3836
  40133c:	8f9900d8 	lw	t9,216(gp)
  401340:	00000000 	nop
  401344:	0320f809 	jalr	t9
  401348:	00000000 	nop
  40134c:	8fbc0010 	lw	gp,16(sp)
  401350:	2404ffff 	li	a0,-1
  401354:	8f9900b4 	lw	t9,180(gp)
  401358:	00000000 	nop
  40135c:	0320f809 	jalr	t9
  401360:	00000000 	nop
  401364:	8fbc0010 	lw	gp,16(sp)
  401368:	00000000 	nop
  40136c:	8f9902ec 	lw	t9,748(gp)
  401370:	00000000 	nop
  401374:	0320f809 	jalr	t9
  401378:	00000000 	nop
  40137c:	8fbc0010 	lw	gp,16(sp)
  401380:	8fbf001c 	lw	ra,28(sp)
  401384:	00001021 	move	v0,zero
  401388:	03e00008 	jr	ra
  40138c:	27bd0020 	addiu	sp,sp,32

00401390 <dns_decode_reverse_name>:
  401390:	3c1c0001 	lui	gp,0x1
  401394:	279cd6d0 	addiu	gp,gp,-10544
  401398:	0399e021 	addu	gp,gp,t9
  40139c:	27bdfee0 	addiu	sp,sp,-288
  4013a0:	afbc0010 	sw	gp,16(sp)
  4013a4:	afbf011c 	sw	ra,284(sp)
  4013a8:	afbc0118 	sw	gp,280(sp)
  4013ac:	00803821 	move	a3,a0
  4013b0:	00003021 	move	a2,zero
  4013b4:	00002821 	move	a1,zero
  4013b8:	24030002 	li	v1,2
  4013bc:	00e51021 	addu	v0,a3,a1
  4013c0:	80420000 	lb	v0,0(v0)
  4013c4:	2408002e 	li	t0,46
  4013c8:	14480002 	bne	v0,t0,4013d4 <dns_decode_reverse_name+0x44>
  4013cc:	24a50001 	addiu	a1,a1,1
  4013d0:	2463ffff 	addiu	v1,v1,-1
  4013d4:	0461fffa 	bgez	v1,4013c0 <dns_decode_reverse_name+0x30>
  4013d8:	00e51021 	addu	v0,a3,a1
  4013dc:	00e52021 	addu	a0,a3,a1
  4013e0:	80820000 	lb	v0,0(a0)
  4013e4:	90840000 	lbu	a0,0(a0)
  4013e8:	1048000b 	beq	v0,t0,401418 <dns_decode_reverse_name+0x88>
  4013ec:	27a90018 	addiu	t1,sp,24
  4013f0:	03a61021 	addu	v0,sp,a2
  4013f4:	24a50001 	addiu	a1,a1,1
  4013f8:	a0440018 	sb	a0,24(v0)
  4013fc:	00e52021 	addu	a0,a3,a1
  401400:	80830000 	lb	v1,0(a0)
  401404:	2402002e 	li	v0,46
  401408:	90840000 	lbu	a0,0(a0)
  40140c:	1462fff8 	bne	v1,v0,4013f0 <dns_decode_reverse_name+0x60>
  401410:	24c60001 	addiu	a2,a2,1
  401414:	27a90018 	addiu	t1,sp,24
  401418:	00c91821 	addu	v1,a2,t1
  40141c:	00e52021 	addu	a0,a3,a1
  401420:	2402002e 	li	v0,46
  401424:	a0620000 	sb	v0,0(v1)
  401428:	24c60001 	addiu	a2,a2,1
  40142c:	a0800000 	sb	zero,0(a0)
  401430:	00002821 	move	a1,zero
  401434:	24030001 	li	v1,1
  401438:	00e51021 	addu	v0,a3,a1
  40143c:	80420000 	lb	v0,0(v0)
  401440:	2408002e 	li	t0,46
  401444:	14480002 	bne	v0,t0,401450 <dns_decode_reverse_name+0xc0>
  401448:	24a50001 	addiu	a1,a1,1
  40144c:	2463ffff 	addiu	v1,v1,-1
  401450:	0461fffa 	bgez	v1,40143c <dns_decode_reverse_name+0xac>
  401454:	00e51021 	addu	v0,a3,a1
  401458:	00e52021 	addu	a0,a3,a1
  40145c:	80820000 	lb	v0,0(a0)
  401460:	90840000 	lbu	a0,0(a0)
  401464:	1048000a 	beq	v0,t0,401490 <dns_decode_reverse_name+0x100>
  401468:	00000000 	nop
  40146c:	00c91021 	addu	v0,a2,t1
  401470:	24a50001 	addiu	a1,a1,1
  401474:	a0440000 	sb	a0,0(v0)
  401478:	00e52021 	addu	a0,a3,a1
  40147c:	80830000 	lb	v1,0(a0)
  401480:	2402002e 	li	v0,46
  401484:	90840000 	lbu	a0,0(a0)
  401488:	1462fff8 	bne	v1,v0,40146c <dns_decode_reverse_name+0xdc>
  40148c:	24c60001 	addiu	a2,a2,1
  401490:	27a90018 	addiu	t1,sp,24
  401494:	00c91821 	addu	v1,a2,t1
  401498:	00002821 	move	a1,zero
  40149c:	2402002e 	li	v0,46
  4014a0:	a0620000 	sb	v0,0(v1)
  4014a4:	24c60001 	addiu	a2,a2,1
  4014a8:	00a01821 	move	v1,a1
  4014ac:	00e51021 	addu	v0,a3,a1
  4014b0:	80420000 	lb	v0,0(v0)
  4014b4:	2408002e 	li	t0,46
  4014b8:	14480002 	bne	v0,t0,4014c4 <dns_decode_reverse_name+0x134>
  4014bc:	24a50001 	addiu	a1,a1,1
  4014c0:	2463ffff 	addiu	v1,v1,-1
  4014c4:	0461fffa 	bgez	v1,4014b0 <dns_decode_reverse_name+0x120>
  4014c8:	00e51021 	addu	v0,a3,a1
  4014cc:	00e52021 	addu	a0,a3,a1
  4014d0:	80820000 	lb	v0,0(a0)
  4014d4:	90840000 	lbu	a0,0(a0)
  4014d8:	1048000b 	beq	v0,t0,401508 <dns_decode_reverse_name+0x178>
  4014dc:	27a80018 	addiu	t0,sp,24
  4014e0:	00c91021 	addu	v0,a2,t1
  4014e4:	24a50001 	addiu	a1,a1,1
  4014e8:	a0440000 	sb	a0,0(v0)
  4014ec:	00e52021 	addu	a0,a3,a1
  4014f0:	80830000 	lb	v1,0(a0)
  4014f4:	2402002e 	li	v0,46
  4014f8:	90840000 	lbu	a0,0(a0)
  4014fc:	1462fff8 	bne	v1,v0,4014e0 <dns_decode_reverse_name+0x150>
  401500:	24c60001 	addiu	a2,a2,1
  401504:	27a80018 	addiu	t0,sp,24
  401508:	00c81821 	addu	v1,a2,t0
  40150c:	2402002e 	li	v0,46
  401510:	80e40000 	lb	a0,0(a3)
  401514:	a0620000 	sb	v0,0(v1)
  401518:	2402002e 	li	v0,46
  40151c:	1082000a 	beq	a0,v0,401548 <dns_decode_reverse_name+0x1b8>
  401520:	24c60001 	addiu	a2,a2,1
  401524:	00e02821 	move	a1,a3
  401528:	90a30000 	lbu	v1,0(a1)
  40152c:	24a50001 	addiu	a1,a1,1
  401530:	00c81021 	addu	v0,a2,t0
  401534:	80a40000 	lb	a0,0(a1)
  401538:	a0430000 	sb	v1,0(v0)
  40153c:	2402002e 	li	v0,46
  401540:	1482fff9 	bne	a0,v0,401528 <dns_decode_reverse_name+0x198>
  401544:	24c60001 	addiu	a2,a2,1
  401548:	27a50018 	addiu	a1,sp,24
  40154c:	00a61021 	addu	v0,a1,a2
  401550:	00e02021 	move	a0,a3
  401554:	a0400000 	sb	zero,0(v0)
  401558:	8f990380 	lw	t9,896(gp)
  40155c:	00000000 	nop
  401560:	0320f809 	jalr	t9
  401564:	00000000 	nop
  401568:	8fbc0010 	lw	gp,16(sp)
  40156c:	8fbf011c 	lw	ra,284(sp)
  401570:	00000000 	nop
  401574:	03e00008 	jr	ra
  401578:	27bd0120 	addiu	sp,sp,288

0040157c <dns_decode_name>:
  40157c:	3c1c0001 	lui	gp,0x1
  401580:	279cd4e4 	addiu	gp,gp,-11036
  401584:	0399e021 	addu	gp,gp,t9
  401588:	8ca30000 	lw	v1,0(a1)
  40158c:	00804021 	move	t0,a0
  401590:	80620000 	lb	v0,0(v1)
  401594:	90640000 	lbu	a0,0(v1)
  401598:	10400019 	beqz	v0,401600 <dns_decode_name+0x84>
  40159c:	00003821 	move	a3,zero
  4015a0:	00041600 	sll	v0,a0,0x18
  4015a4:	24630001 	addiu	v1,v1,1
  4015a8:	00021603 	sra	v0,v0,0x18
  4015ac:	1840000b 	blez	v0,4015dc <dns_decode_name+0x60>
  4015b0:	aca30000 	sw	v1,0(a1)
  4015b4:	00403021 	move	a2,v0
  4015b8:	8ca20000 	lw	v0,0(a1)
  4015bc:	01072021 	addu	a0,t0,a3
  4015c0:	90430000 	lbu	v1,0(v0)
  4015c4:	24c6ffff 	addiu	a2,a2,-1
  4015c8:	24420001 	addiu	v0,v0,1
  4015cc:	a0830000 	sb	v1,0(a0)
  4015d0:	24e70001 	addiu	a3,a3,1
  4015d4:	14c0fff8 	bnez	a2,4015b8 <dns_decode_name+0x3c>
  4015d8:	aca20000 	sw	v0,0(a1)
  4015dc:	01071021 	addu	v0,t0,a3
  4015e0:	2403002e 	li	v1,46
  4015e4:	a0430000 	sb	v1,0(v0)
  4015e8:	8ca30000 	lw	v1,0(a1)
  4015ec:	00000000 	nop
  4015f0:	80620000 	lb	v0,0(v1)
  4015f4:	90640000 	lbu	a0,0(v1)
  4015f8:	1440ffe9 	bnez	v0,4015a0 <dns_decode_name+0x24>
  4015fc:	24e70001 	addiu	a3,a3,1
  401600:	8ca20000 	lw	v0,0(a1)
  401604:	01072021 	addu	a0,t0,a3
  401608:	90430000 	lbu	v1,0(v0)
  40160c:	24420001 	addiu	v0,v0,1
  401610:	a083ffff 	sb	v1,-1(a0)
  401614:	03e00008 	jr	ra
  401618:	aca20000 	sw	v0,0(a1)

0040161c <dns_decode_rr>:
  40161c:	3c1c0001 	lui	gp,0x1
  401620:	279cd444 	addiu	gp,gp,-11196
  401624:	0399e021 	addu	gp,gp,t9
  401628:	27bdffc0 	addiu	sp,sp,-64
  40162c:	afbc0010 	sw	gp,16(sp)
  401630:	afb20030 	sw	s2,48(sp)
  401634:	afb1002c 	sw	s1,44(sp)
  401638:	afb00028 	sw	s0,40(sp)
  40163c:	afbf0038 	sw	ra,56(sp)
  401640:	afbc0034 	sw	gp,52(sp)
  401644:	8ca30000 	lw	v1,0(a1)
  401648:	afa7004c 	sw	a3,76(sp)
  40164c:	80620000 	lb	v0,0(v1)
  401650:	00a08021 	move	s0,a1
  401654:	304200c0 	andi	v0,v0,0xc0
  401658:	24680001 	addiu	t0,v1,1
  40165c:	24690002 	addiu	t1,v1,2
  401660:	00c09021 	move	s2,a2
  401664:	10400007 	beqz	v0,401684 <dns_decode_rr+0x68>
  401668:	00808821 	move	s1,a0
  40166c:	aca80000 	sw	t0,0(a1)
  401670:	80620001 	lb	v0,1(v1)
  401674:	27a5004c 	addiu	a1,sp,76
  401678:	00e21021 	addu	v0,a3,v0
  40167c:	ae090000 	sw	t1,0(s0)
  401680:	afa2004c 	sw	v0,76(sp)
  401684:	8f99022c 	lw	t9,556(gp)
  401688:	00000000 	nop
  40168c:	0320f809 	jalr	t9
  401690:	00000000 	nop
  401694:	8fbc0010 	lw	gp,16(sp)
  401698:	8e050000 	lw	a1,0(s0)
  40169c:	27a40018 	addiu	a0,sp,24
  4016a0:	24060002 	li	a2,2
  4016a4:	8f99033c 	lw	t9,828(gp)
  4016a8:	00000000 	nop
  4016ac:	0320f809 	jalr	t9
  4016b0:	00000000 	nop
  4016b4:	8fbc0010 	lw	gp,16(sp)
  4016b8:	8e030000 	lw	v1,0(s0)
  4016bc:	97a20018 	lhu	v0,24(sp)
  4016c0:	24630002 	addiu	v1,v1,2
  4016c4:	00602821 	move	a1,v1
  4016c8:	27a4001a 	addiu	a0,sp,26
  4016cc:	ae030000 	sw	v1,0(s0)
  4016d0:	24060002 	li	a2,2
  4016d4:	a6220100 	sh	v0,256(s1)
  4016d8:	8f99033c 	lw	t9,828(gp)
  4016dc:	00000000 	nop
  4016e0:	0320f809 	jalr	t9
  4016e4:	00000000 	nop
  4016e8:	8fbc0010 	lw	gp,16(sp)
  4016ec:	8e020000 	lw	v0,0(s0)
  4016f0:	97a3001a 	lhu	v1,26(sp)
  4016f4:	24420002 	addiu	v0,v0,2
  4016f8:	00402821 	move	a1,v0
  4016fc:	ae020000 	sw	v0,0(s0)
  401700:	24020001 	li	v0,1
  401704:	27a40020 	addiu	a0,sp,32
  401708:	24060004 	li	a2,4
  40170c:	12420024 	beq	s2,v0,4017a0 <dns_decode_rr+0x184>
  401710:	a6230102 	sh	v1,258(s1)
  401714:	8f99033c 	lw	t9,828(gp)
  401718:	00000000 	nop
  40171c:	0320f809 	jalr	t9
  401720:	00000000 	nop
  401724:	8fbc0010 	lw	gp,16(sp)
  401728:	8e050000 	lw	a1,0(s0)
  40172c:	8fa20020 	lw	v0,32(sp)
  401730:	24a50004 	addiu	a1,a1,4
  401734:	ae050000 	sw	a1,0(s0)
  401738:	27a4001c 	addiu	a0,sp,28
  40173c:	24060002 	li	a2,2
  401740:	ae220104 	sw	v0,260(s1)
  401744:	8f99033c 	lw	t9,828(gp)
  401748:	00000000 	nop
  40174c:	0320f809 	jalr	t9
  401750:	00000000 	nop
  401754:	8fbc0010 	lw	gp,16(sp)
  401758:	8e020000 	lw	v0,0(s0)
  40175c:	97a3001c 	lhu	v1,28(sp)
  401760:	24420002 	addiu	v0,v0,2
  401764:	00603021 	move	a2,v1
  401768:	00402821 	move	a1,v0
  40176c:	a6230108 	sh	v1,264(s1)
  401770:	ae020000 	sw	v0,0(s0)
  401774:	2624010a 	addiu	a0,s1,266
  401778:	8f9902fc 	lw	t9,764(gp)
  40177c:	00000000 	nop
  401780:	0320f809 	jalr	t9
  401784:	00000000 	nop
  401788:	8fbc0010 	lw	gp,16(sp)
  40178c:	8e020000 	lw	v0,0(s0)
  401790:	96230108 	lhu	v1,264(s1)
  401794:	00000000 	nop
  401798:	00431021 	addu	v0,v0,v1
  40179c:	ae020000 	sw	v0,0(s0)
  4017a0:	96230100 	lhu	v1,256(s1)
  4017a4:	2402000c 	li	v0,12
  4017a8:	14620006 	bne	v1,v0,4017c4 <dns_decode_rr+0x1a8>
  4017ac:	02202021 	move	a0,s1
  4017b0:	8f990098 	lw	t9,152(gp)
  4017b4:	00000000 	nop
  4017b8:	0320f809 	jalr	t9
  4017bc:	00000000 	nop
  4017c0:	8fbc0010 	lw	gp,16(sp)
  4017c4:	8fbf0038 	lw	ra,56(sp)
  4017c8:	8fb20030 	lw	s2,48(sp)
  4017cc:	8fb1002c 	lw	s1,44(sp)
  4017d0:	8fb00028 	lw	s0,40(sp)
  4017d4:	03e00008 	jr	ra
  4017d8:	27bd0040 	addiu	sp,sp,64

004017dc <dns_decode_message>:
  4017dc:	3c1c0001 	lui	gp,0x1
  4017e0:	279cd284 	addiu	gp,gp,-11644
  4017e4:	0399e021 	addu	gp,gp,t9
  4017e8:	27bdffb8 	addiu	sp,sp,-72
  4017ec:	afbc0010 	sw	gp,16(sp)
  4017f0:	afbf0040 	sw	ra,64(sp)
  4017f4:	afb30034 	sw	s3,52(sp)
  4017f8:	afb20030 	sw	s2,48(sp)
  4017fc:	afbc003c 	sw	gp,60(sp)
  401800:	afb40038 	sw	s4,56(sp)
  401804:	afb1002c 	sw	s1,44(sp)
  401808:	afb00028 	sw	s0,40(sp)
  40180c:	8cb40000 	lw	s4,0(a1)
  401810:	00a09021 	move	s2,a1
  401814:	00809821 	move	s3,a0
  401818:	02802821 	move	a1,s4
  40181c:	27a40018 	addiu	a0,sp,24
  401820:	24060002 	li	a2,2
  401824:	8f99033c 	lw	t9,828(gp)
  401828:	00000000 	nop
  40182c:	0320f809 	jalr	t9
  401830:	00000000 	nop
  401834:	8fbc0010 	lw	gp,16(sp)
  401838:	8e430000 	lw	v1,0(s2)
  40183c:	97a20018 	lhu	v0,24(sp)
  401840:	24630002 	addiu	v1,v1,2
  401844:	00602821 	move	a1,v1
  401848:	ae430000 	sw	v1,0(s2)
  40184c:	27a4001a 	addiu	a0,sp,26
  401850:	24060002 	li	a2,2
  401854:	a6620000 	sh	v0,0(s3)
  401858:	8f99033c 	lw	t9,828(gp)
  40185c:	00000000 	nop
  401860:	0320f809 	jalr	t9
  401864:	00000000 	nop
  401868:	8fbc0010 	lw	gp,16(sp)
  40186c:	97a2001a 	lhu	v0,26(sp)
  401870:	27a4001c 	addiu	a0,sp,28
  401874:	a6620002 	sh	v0,2(s3)
  401878:	8e420000 	lw	v0,0(s2)
  40187c:	24060002 	li	a2,2
  401880:	24420002 	addiu	v0,v0,2
  401884:	00402821 	move	a1,v0
  401888:	ae420000 	sw	v0,0(s2)
  40188c:	8f99033c 	lw	t9,828(gp)
  401890:	00000000 	nop
  401894:	0320f809 	jalr	t9
  401898:	00000000 	nop
  40189c:	8fbc0010 	lw	gp,16(sp)
  4018a0:	8e430000 	lw	v1,0(s2)
  4018a4:	97a2001c 	lhu	v0,28(sp)
  4018a8:	24630002 	addiu	v1,v1,2
  4018ac:	00602821 	move	a1,v1
  4018b0:	27a4001e 	addiu	a0,sp,30
  4018b4:	ae430000 	sw	v1,0(s2)
  4018b8:	24060002 	li	a2,2
  4018bc:	a6620004 	sh	v0,4(s3)
  4018c0:	8f99033c 	lw	t9,828(gp)
  4018c4:	00000000 	nop
  4018c8:	0320f809 	jalr	t9
  4018cc:	00000000 	nop
  4018d0:	8fbc0010 	lw	gp,16(sp)
  4018d4:	8e430000 	lw	v1,0(s2)
  4018d8:	97a2001e 	lhu	v0,30(sp)
  4018dc:	24630002 	addiu	v1,v1,2
  4018e0:	00602821 	move	a1,v1
  4018e4:	ae430000 	sw	v1,0(s2)
  4018e8:	27a40020 	addiu	a0,sp,32
  4018ec:	24060002 	li	a2,2
  4018f0:	a6620006 	sh	v0,6(s3)
  4018f4:	8f99033c 	lw	t9,828(gp)
  4018f8:	00000000 	nop
  4018fc:	0320f809 	jalr	t9
  401900:	00000000 	nop
  401904:	8fbc0010 	lw	gp,16(sp)
  401908:	8e450000 	lw	a1,0(s2)
  40190c:	97a20020 	lhu	v0,32(sp)
  401910:	24a50002 	addiu	a1,a1,2
  401914:	27a40022 	addiu	a0,sp,34
  401918:	a6620008 	sh	v0,8(s3)
  40191c:	ae450000 	sw	a1,0(s2)
  401920:	24060002 	li	a2,2
  401924:	8f99033c 	lw	t9,828(gp)
  401928:	00000000 	nop
  40192c:	0320f809 	jalr	t9
  401930:	00000000 	nop
  401934:	8fbc0010 	lw	gp,16(sp)
  401938:	8e430000 	lw	v1,0(s2)
  40193c:	96640006 	lhu	a0,6(s3)
  401940:	97a20022 	lhu	v0,34(sp)
  401944:	24630002 	addiu	v1,v1,2
  401948:	2c840002 	sltiu	a0,a0,2
  40194c:	a662000a 	sh	v0,10(s3)
  401950:	14800009 	bnez	a0,401978 <dns_decode_message+0x19c>
  401954:	ae430000 	sw	v1,0(s2)
  401958:	8f84000c 	lw	a0,12(gp)
  40195c:	00000000 	nop
  401960:	2484f110 	addiu	a0,a0,-3824
  401964:	8f9902dc 	lw	t9,732(gp)
  401968:	00000000 	nop
  40196c:	0320f809 	jalr	t9
  401970:	00000000 	nop
  401974:	8fbc0010 	lw	gp,16(sp)
  401978:	96620004 	lhu	v0,4(s3)
  40197c:	00000000 	nop
  401980:	10400013 	beqz	v0,4019d0 <dns_decode_message+0x1f4>
  401984:	00008821 	move	s1,zero
  401988:	2670000c 	addiu	s0,s3,12
  40198c:	02002021 	move	a0,s0
  401990:	02402821 	move	a1,s2
  401994:	24060001 	li	a2,1
  401998:	02803821 	move	a3,s4
  40199c:	8f990360 	lw	t9,864(gp)
  4019a0:	00000000 	nop
  4019a4:	0320f809 	jalr	t9
  4019a8:	00000000 	nop
  4019ac:	8fbc0010 	lw	gp,16(sp)
  4019b0:	96620004 	lhu	v0,4(s3)
  4019b4:	26310001 	addiu	s1,s1,1
  4019b8:	0222102a 	slt	v0,s1,v0
  4019bc:	2a230005 	slti	v1,s1,5
  4019c0:	10400003 	beqz	v0,4019d0 <dns_decode_message+0x1f4>
  4019c4:	2610020c 	addiu	s0,s0,524
  4019c8:	1460fff1 	bnez	v1,401990 <dns_decode_message+0x1b4>
  4019cc:	02002021 	move	a0,s0
  4019d0:	96620006 	lhu	v0,6(s3)
  4019d4:	00000000 	nop
  4019d8:	10400013 	beqz	v0,401a28 <dns_decode_message+0x24c>
  4019dc:	00008821 	move	s1,zero
  4019e0:	26700a48 	addiu	s0,s3,2632
  4019e4:	02002021 	move	a0,s0
  4019e8:	02402821 	move	a1,s2
  4019ec:	00003021 	move	a2,zero
  4019f0:	02803821 	move	a3,s4
  4019f4:	8f990360 	lw	t9,864(gp)
  4019f8:	00000000 	nop
  4019fc:	0320f809 	jalr	t9
  401a00:	00000000 	nop
  401a04:	8fbc0010 	lw	gp,16(sp)
  401a08:	96620006 	lhu	v0,6(s3)
  401a0c:	26310001 	addiu	s1,s1,1
  401a10:	0222102a 	slt	v0,s1,v0
  401a14:	2a230005 	slti	v1,s1,5
  401a18:	10400003 	beqz	v0,401a28 <dns_decode_message+0x24c>
  401a1c:	2610020c 	addiu	s0,s0,524
  401a20:	1460fff1 	bnez	v1,4019e8 <dns_decode_message+0x20c>
  401a24:	02002021 	move	a0,s0
  401a28:	8fbf0040 	lw	ra,64(sp)
  401a2c:	8fb40038 	lw	s4,56(sp)
  401a30:	8fb30034 	lw	s3,52(sp)
  401a34:	8fb20030 	lw	s2,48(sp)
  401a38:	8fb1002c 	lw	s1,44(sp)
  401a3c:	8fb00028 	lw	s0,40(sp)
  401a40:	00001021 	move	v0,zero
  401a44:	03e00008 	jr	ra
  401a48:	27bd0048 	addiu	sp,sp,72

00401a4c <dns_decode_request>:
  401a4c:	3c1c0001 	lui	gp,0x1
  401a50:	279cd014 	addiu	gp,gp,-12268
  401a54:	0399e021 	addu	gp,gp,t9
  401a58:	27bdffd0 	addiu	sp,sp,-48
  401a5c:	afbc0010 	sw	gp,16(sp)
  401a60:	248215ac 	addiu	v0,a0,5548
  401a64:	afb10024 	sw	s1,36(sp)
  401a68:	00808821 	move	s1,a0
  401a6c:	262517b0 	addiu	a1,s1,6064
  401a70:	24840120 	addiu	a0,a0,288
  401a74:	ae2217b0 	sw	v0,6064(s1)
  401a78:	afbf002c 	sw	ra,44(sp)
  401a7c:	afbc0028 	sw	gp,40(sp)
  401a80:	afb00020 	sw	s0,32(sp)
  401a84:	8f9901e4 	lw	t9,484(gp)
  401a88:	00000000 	nop
  401a8c:	0320f809 	jalr	t9
  401a90:	00000000 	nop
  401a94:	8fbc0010 	lw	gp,16(sp)
  401a98:	9623022c 	lhu	v1,556(s1)
  401a9c:	2402000c 	li	v0,12
  401aa0:	14620010 	bne	v1,v0,401ae4 <dns_decode_request+0x98>
  401aa4:	24020001 	li	v0,1
  401aa8:	26240100 	addiu	a0,s1,256
  401aac:	2625012c 	addiu	a1,s1,300
  401ab0:	10000013 	b	401b00 <dns_decode_request+0xb4>
  401ab4:	24060014 	li	a2,20
  401ab8:	27a5001c 	addiu	a1,sp,28
  401abc:	26020c72 	addiu	v0,s0,3186
  401ac0:	afa2001c 	sw	v0,28(sp)
  401ac4:	8f99022c 	lw	t9,556(gp)
  401ac8:	00000000 	nop
  401acc:	0320f809 	jalr	t9
  401ad0:	00000000 	nop
  401ad4:	8fbc0010 	lw	gp,16(sp)
  401ad8:	26240100 	addiu	a0,s1,256
  401adc:	1000002e 	b	401b98 <dns_decode_request+0x14c>
  401ae0:	26050b68 	addiu	a1,s0,2920
  401ae4:	10620003 	beq	v1,v0,401af4 <dns_decode_request+0xa8>
  401ae8:	2402001c 	li	v0,28
  401aec:	14620009 	bne	v1,v0,401b14 <dns_decode_request+0xc8>
  401af0:	00000000 	nop
  401af4:	2625012c 	addiu	a1,s1,300
  401af8:	02202021 	move	a0,s1
  401afc:	24060100 	li	a2,256
  401b00:	8f9901c0 	lw	t9,448(gp)
  401b04:	00000000 	nop
  401b08:	0320f809 	jalr	t9
  401b0c:	00000000 	nop
  401b10:	8fbc0010 	lw	gp,16(sp)
  401b14:	96280126 	lhu	t0,294(s1)
  401b18:	00000000 	nop
  401b1c:	1100002c 	beqz	t0,401bd0 <dns_decode_request+0x184>
  401b20:	00002821 	move	a1,zero
  401b24:	02208021 	move	s0,s1
  401b28:	9624022c 	lhu	a0,556(s1)
  401b2c:	96030c68 	lhu	v1,3176(s0)
  401b30:	24a50001 	addiu	a1,a1,1
  401b34:	3102ffff 	andi	v0,t0,0xffff
  401b38:	28a70005 	slti	a3,a1,5
  401b3c:	14830020 	bne	a0,v1,401bc0 <dns_decode_request+0x174>
  401b40:	00a2302a 	slt	a2,a1,v0
  401b44:	24020001 	li	v0,1
  401b48:	10820003 	beq	a0,v0,401b58 <dns_decode_request+0x10c>
  401b4c:	2402001c 	li	v0,28
  401b50:	14820019 	bne	a0,v0,401bb8 <dns_decode_request+0x16c>
  401b54:	2402000c 	li	v0,12
  401b58:	26050c72 	addiu	a1,s0,3186
  401b5c:	27a40018 	addiu	a0,sp,24
  401b60:	24060004 	li	a2,4
  401b64:	8f99033c 	lw	t9,828(gp)
  401b68:	00000000 	nop
  401b6c:	0320f809 	jalr	t9
  401b70:	00000000 	nop
  401b74:	8fbc0010 	lw	gp,16(sp)
  401b78:	8fa40018 	lw	a0,24(sp)
  401b7c:	8f990154 	lw	t9,340(gp)
  401b80:	00000000 	nop
  401b84:	0320f809 	jalr	t9
  401b88:	00000000 	nop
  401b8c:	8fbc0010 	lw	gp,16(sp)
  401b90:	00402821 	move	a1,v0
  401b94:	26240100 	addiu	a0,s1,256
  401b98:	24060014 	li	a2,20
  401b9c:	8f9901c0 	lw	t9,448(gp)
  401ba0:	00000000 	nop
  401ba4:	0320f809 	jalr	t9
  401ba8:	00000000 	nop
  401bac:	8fbc0010 	lw	gp,16(sp)
  401bb0:	10000007 	b	401bd0 <dns_decode_request+0x184>
  401bb4:	00000000 	nop
  401bb8:	1082ffbf 	beq	a0,v0,401ab8 <dns_decode_request+0x6c>
  401bbc:	02202021 	move	a0,s1
  401bc0:	10c00003 	beqz	a2,401bd0 <dns_decode_request+0x184>
  401bc4:	2610020c 	addiu	s0,s0,524
  401bc8:	14e0ffd7 	bnez	a3,401b28 <dns_decode_request+0xdc>
  401bcc:	00000000 	nop
  401bd0:	8fbf002c 	lw	ra,44(sp)
  401bd4:	8fb10024 	lw	s1,36(sp)
  401bd8:	8fb00020 	lw	s0,32(sp)
  401bdc:	03e00008 	jr	ra
  401be0:	27bd0030 	addiu	sp,sp,48
	...

00401bf0 <dns_list_add>:
  401bf0:	3c1c0001 	lui	gp,0x1
  401bf4:	279cce70 	addiu	gp,gp,-12688
  401bf8:	0399e021 	addu	gp,gp,t9
  401bfc:	27bdffd0 	addiu	sp,sp,-48
  401c00:	afbc0010 	sw	gp,16(sp)
  401c04:	afb20020 	sw	s2,32(sp)
  401c08:	00809021 	move	s2,a0
  401c0c:	3404ed30 	li	a0,0xed30
  401c10:	afb1001c 	sw	s1,28(sp)
  401c14:	afb00018 	sw	s0,24(sp)
  401c18:	afbf0028 	sw	ra,40(sp)
  401c1c:	afbc0024 	sw	gp,36(sp)
  401c20:	00a08821 	move	s1,a1
  401c24:	8f9902d4 	lw	t9,724(gp)
  401c28:	00000000 	nop
  401c2c:	0320f809 	jalr	t9
  401c30:	00000000 	nop
  401c34:	8fbc0010 	lw	gp,16(sp)
  401c38:	00408021 	move	s0,v0
  401c3c:	1200001e 	beqz	s0,401cb8 <dns_list_add+0xc8>
  401c40:	02401021 	move	v0,s2
  401c44:	02002821 	move	a1,s0
  401c48:	8f84000c 	lw	a0,12(gp)
  401c4c:	00000000 	nop
  401c50:	2484f120 	addiu	a0,a0,-3808
  401c54:	8f9902a0 	lw	t9,672(gp)
  401c58:	00000000 	nop
  401c5c:	0320f809 	jalr	t9
  401c60:	00000000 	nop
  401c64:	8fbc0010 	lw	gp,16(sp)
  401c68:	02202821 	move	a1,s1
  401c6c:	02001021 	move	v0,s0
  401c70:	262317b0 	addiu	v1,s1,6064
  401c74:	8ca40000 	lw	a0,0(a1)
  401c78:	8ca60004 	lw	a2,4(a1)
  401c7c:	8ca70008 	lw	a3,8(a1)
  401c80:	8ca8000c 	lw	t0,12(a1)
  401c84:	ac440000 	sw	a0,0(v0)
  401c88:	ac460004 	sw	a2,4(v0)
  401c8c:	ac470008 	sw	a3,8(v0)
  401c90:	ac48000c 	sw	t0,12(v0)
  401c94:	24a50010 	addiu	a1,a1,16
  401c98:	14a3fff6 	bne	a1,v1,401c74 <dns_list_add+0x84>
  401c9c:	24420010 	addiu	v0,v0,16
  401ca0:	8ca30000 	lw	v1,0(a1)
  401ca4:	8ca40004 	lw	a0,4(a1)
  401ca8:	ac430000 	sw	v1,0(v0)
  401cac:	ac440004 	sw	a0,4(v0)
  401cb0:	ae1217b4 	sw	s2,6068(s0)
  401cb4:	02001021 	move	v0,s0
  401cb8:	8fbf0028 	lw	ra,40(sp)
  401cbc:	8fb20020 	lw	s2,32(sp)
  401cc0:	8fb1001c 	lw	s1,28(sp)
  401cc4:	8fb00018 	lw	s0,24(sp)
  401cc8:	03e00008 	jr	ra
  401ccc:	27bd0030 	addiu	sp,sp,48

00401cd0 <dns_list_find_by_id>:
  401cd0:	3c1c0001 	lui	gp,0x1
  401cd4:	279ccd90 	addiu	gp,gp,-12912
  401cd8:	0399e021 	addu	gp,gp,t9
  401cdc:	27bdffd8 	addiu	sp,sp,-40
  401ce0:	afbc0010 	sw	gp,16(sp)
  401ce4:	afb00018 	sw	s0,24(sp)
  401ce8:	00808021 	move	s0,a0
  401cec:	afb1001c 	sw	s1,28(sp)
  401cf0:	afbf0024 	sw	ra,36(sp)
  401cf4:	afbc0020 	sw	gp,32(sp)
  401cf8:	00a08821 	move	s1,a1
  401cfc:	8f9901ec 	lw	t9,492(gp)
  401d00:	00000000 	nop
  401d04:	0320f809 	jalr	t9
  401d08:	00000000 	nop
  401d0c:	8fbc0010 	lw	gp,16(sp)
  401d10:	12000015 	beqz	s0,401d68 <dns_list_find_by_id+0x98>
  401d14:	00000000 	nop
  401d18:	96060120 	lhu	a2,288(s0)
  401d1c:	96270120 	lhu	a3,288(s1)
  401d20:	8f84000c 	lw	a0,12(gp)
  401d24:	00000000 	nop
  401d28:	2484f12c 	addiu	a0,a0,-3796
  401d2c:	2605012c 	addiu	a1,s0,300
  401d30:	8f9902a0 	lw	t9,672(gp)
  401d34:	00000000 	nop
  401d38:	0320f809 	jalr	t9
  401d3c:	00000000 	nop
  401d40:	8fbc0010 	lw	gp,16(sp)
  401d44:	96030120 	lhu	v1,288(s0)
  401d48:	96220120 	lhu	v0,288(s1)
  401d4c:	00000000 	nop
  401d50:	10620006 	beq	v1,v0,401d6c <dns_list_find_by_id+0x9c>
  401d54:	02002021 	move	a0,s0
  401d58:	8e1017b4 	lw	s0,6068(s0)
  401d5c:	00000000 	nop
  401d60:	1600ffed 	bnez	s0,401d18 <dns_list_find_by_id+0x48>
  401d64:	00000000 	nop
  401d68:	00002021 	move	a0,zero
  401d6c:	8fbf0024 	lw	ra,36(sp)
  401d70:	8fb1001c 	lw	s1,28(sp)
  401d74:	8fb00018 	lw	s0,24(sp)
  401d78:	00801021 	move	v0,a0
  401d7c:	03e00008 	jr	ra
  401d80:	27bd0028 	addiu	sp,sp,40

00401d84 <dns_list_remove>:
  401d84:	3c1c0001 	lui	gp,0x1
  401d88:	279cccdc 	addiu	gp,gp,-13092
  401d8c:	0399e021 	addu	gp,gp,t9
  401d90:	27bdffd8 	addiu	sp,sp,-40
  401d94:	afbc0010 	sw	gp,16(sp)
  401d98:	00803021 	move	a2,a0
  401d9c:	afbf0020 	sw	ra,32(sp)
  401da0:	afbc001c 	sw	gp,28(sp)
  401da4:	afb00018 	sw	s0,24(sp)
  401da8:	00a02021 	move	a0,a1
  401dac:	10a00014 	beqz	a1,401e00 <dns_list_remove+0x7c>
  401db0:	00c01021 	move	v0,a2
  401db4:	10c00007 	beqz	a2,401dd4 <dns_list_remove+0x50>
  401db8:	00000000 	nop
  401dbc:	8c4317b4 	lw	v1,6068(v0)
  401dc0:	00000000 	nop
  401dc4:	10640003 	beq	v1,a0,401dd4 <dns_list_remove+0x50>
  401dc8:	00000000 	nop
  401dcc:	1460fffb 	bnez	v1,401dbc <dns_list_remove+0x38>
  401dd0:	00601021 	move	v0,v1
  401dd4:	8c8317b4 	lw	v1,6068(a0)
  401dd8:	10400003 	beqz	v0,401de8 <dns_list_remove+0x64>
  401ddc:	00608021 	move	s0,v1
  401de0:	ac4317b4 	sw	v1,6068(v0)
  401de4:	00c08021 	move	s0,a2
  401de8:	8f990020 	lw	t9,32(gp)
  401dec:	00000000 	nop
  401df0:	0320f809 	jalr	t9
  401df4:	00000000 	nop
  401df8:	8fbc0010 	lw	gp,16(sp)
  401dfc:	02001021 	move	v0,s0
  401e00:	8fbf0020 	lw	ra,32(sp)
  401e04:	8fb00018 	lw	s0,24(sp)
  401e08:	03e00008 	jr	ra
  401e0c:	27bd0028 	addiu	sp,sp,40

00401e10 <dns_list_print>:
  401e10:	3c1c0001 	lui	gp,0x1
  401e14:	279ccc50 	addiu	gp,gp,-13232
  401e18:	0399e021 	addu	gp,gp,t9
  401e1c:	27bdffd8 	addiu	sp,sp,-40
  401e20:	afbc0010 	sw	gp,16(sp)
  401e24:	afb00018 	sw	s0,24(sp)
  401e28:	00808021 	move	s0,a0
  401e2c:	8f84000c 	lw	a0,12(gp)
  401e30:	00000000 	nop
  401e34:	2484f150 	addiu	a0,a0,-3760
  401e38:	afbf0020 	sw	ra,32(sp)
  401e3c:	afbc001c 	sw	gp,28(sp)
  401e40:	8f9902a0 	lw	t9,672(gp)
  401e44:	00000000 	nop
  401e48:	0320f809 	jalr	t9
  401e4c:	00000000 	nop
  401e50:	8fbc0010 	lw	gp,16(sp)
  401e54:	12000010 	beqz	s0,401e98 <dns_list_print+0x88>
  401e58:	00000000 	nop
  401e5c:	96050120 	lhu	a1,288(s0)
  401e60:	26070100 	addiu	a3,s0,256
  401e64:	02003021 	move	a2,s0
  401e68:	8f84000c 	lw	a0,12(gp)
  401e6c:	00000000 	nop
  401e70:	2484f160 	addiu	a0,a0,-3744
  401e74:	8f9902a0 	lw	t9,672(gp)
  401e78:	00000000 	nop
  401e7c:	0320f809 	jalr	t9
  401e80:	00000000 	nop
  401e84:	8fbc0010 	lw	gp,16(sp)
  401e88:	8e1017b4 	lw	s0,6068(s0)
  401e8c:	00000000 	nop
  401e90:	1600fff2 	bnez	s0,401e5c <dns_list_print+0x4c>
  401e94:	00000000 	nop
  401e98:	8fbf0020 	lw	ra,32(sp)
  401e9c:	8fb00018 	lw	s0,24(sp)
  401ea0:	03e00008 	jr	ra
  401ea4:	27bd0028 	addiu	sp,sp,40
	...

00401eb0 <cache_lookup_name>:
  401eb0:	3c1c0001 	lui	gp,0x1
  401eb4:	279ccbb0 	addiu	gp,gp,-13392
  401eb8:	0399e021 	addu	gp,gp,t9
  401ebc:	27bdffd0 	addiu	sp,sp,-48
  401ec0:	afbc0010 	sw	gp,16(sp)
  401ec4:	afb00018 	sw	s0,24(sp)
  401ec8:	00808021 	move	s0,a0
  401ecc:	afb1001c 	sw	s1,28(sp)
  401ed0:	8f84000c 	lw	a0,12(gp)
  401ed4:	00000000 	nop
  401ed8:	2484f190 	addiu	a0,a0,-3696
  401edc:	00a08821 	move	s1,a1
  401ee0:	02002821 	move	a1,s0
  401ee4:	afbf0028 	sw	ra,40(sp)
  401ee8:	afb20020 	sw	s2,32(sp)
  401eec:	afbc0024 	sw	gp,36(sp)
  401ef0:	8f9902a0 	lw	t9,672(gp)
  401ef4:	00000000 	nop
  401ef8:	0320f809 	jalr	t9
  401efc:	00000000 	nop
  401f00:	8fbc0010 	lw	gp,16(sp)
  401f04:	00000000 	nop
  401f08:	8f840034 	lw	a0,52(gp)
  401f0c:	00000000 	nop
  401f10:	2484070c 	addiu	a0,a0,1804
  401f14:	8f85000c 	lw	a1,12(gp)
  401f18:	00000000 	nop
  401f1c:	24a5f1a8 	addiu	a1,a1,-3672
  401f20:	8f990178 	lw	t9,376(gp)
  401f24:	00000000 	nop
  401f28:	0320f809 	jalr	t9
  401f2c:	00000000 	nop
  401f30:	8fbc0010 	lw	gp,16(sp)
  401f34:	00409021 	move	s2,v0
  401f38:	02002821 	move	a1,s0
  401f3c:	02203021 	move	a2,s1
  401f40:	10400011 	beqz	v0,401f88 <cache_lookup_name+0xd8>
  401f44:	00402021 	move	a0,v0
  401f48:	8f990008 	lw	t9,8(gp)
  401f4c:	00000000 	nop
  401f50:	27391fa4 	addiu	t9,t9,8100
  401f54:	00000000 	nop
  401f58:	0320f809 	jalr	t9
  401f5c:	00000000 	nop
  401f60:	8fbc0010 	lw	gp,16(sp)
  401f64:	00408021 	move	s0,v0
  401f68:	02402021 	move	a0,s2
  401f6c:	8f99015c 	lw	t9,348(gp)
  401f70:	00000000 	nop
  401f74:	0320f809 	jalr	t9
  401f78:	00000000 	nop
  401f7c:	8fbc0010 	lw	gp,16(sp)
  401f80:	1e000002 	bgtz	s0,401f8c <cache_lookup_name+0xdc>
  401f84:	24020001 	li	v0,1
  401f88:	00001021 	move	v0,zero
  401f8c:	8fbf0028 	lw	ra,40(sp)
  401f90:	8fb20020 	lw	s2,32(sp)
  401f94:	8fb1001c 	lw	s1,28(sp)
  401f98:	8fb00018 	lw	s0,24(sp)
  401f9c:	03e00008 	jr	ra
  401fa0:	27bd0030 	addiu	sp,sp,48
  401fa4:	3c1c0001 	lui	gp,0x1
  401fa8:	279ccabc 	addiu	gp,gp,-13636
  401fac:	0399e021 	addu	gp,gp,t9
  401fb0:	27bdfed0 	addiu	sp,sp,-304
  401fb4:	afbc0010 	sw	gp,16(sp)
  401fb8:	a0c00000 	sb	zero,0(a2)
  401fbc:	afb20120 	sw	s2,288(sp)
  401fc0:	afb1011c 	sw	s1,284(sp)
  401fc4:	afb00118 	sw	s0,280(sp)
  401fc8:	afbf0128 	sw	ra,296(sp)
  401fcc:	afbc0124 	sw	gp,292(sp)
  401fd0:	00a09021 	move	s2,a1
  401fd4:	00c08021 	move	s0,a2
  401fd8:	00808821 	move	s1,a0
  401fdc:	8f9900d0 	lw	t9,208(gp)
  401fe0:	00000000 	nop
  401fe4:	0320f809 	jalr	t9
  401fe8:	00000000 	nop
  401fec:	8fbc0010 	lw	gp,16(sp)
  401ff0:	10000039 	b	4020d8 <cache_lookup_name+0x228>
  401ff4:	27a40018 	addiu	a0,sp,24
  401ff8:	8f9901a4 	lw	t9,420(gp)
  401ffc:	00000000 	nop
  402000:	0320f809 	jalr	t9
  402004:	00000000 	nop
  402008:	8fbc0010 	lw	gp,16(sp)
  40200c:	00402021 	move	a0,v0
  402010:	02402821 	move	a1,s2
  402014:	8f9901b4 	lw	t9,436(gp)
  402018:	00000000 	nop
  40201c:	0320f809 	jalr	t9
  402020:	00000000 	nop
  402024:	8fbc0010 	lw	gp,16(sp)
  402028:	1440002b 	bnez	v0,4020d8 <cache_lookup_name+0x228>
  40202c:	27a40018 	addiu	a0,sp,24
  402030:	00002021 	move	a0,zero
  402034:	8f85000c 	lw	a1,12(gp)
  402038:	00000000 	nop
  40203c:	24a5f1ac 	addiu	a1,a1,-3668
  402040:	8f9901a4 	lw	t9,420(gp)
  402044:	00000000 	nop
  402048:	0320f809 	jalr	t9
  40204c:	00000000 	nop
  402050:	8fbc0010 	lw	gp,16(sp)
  402054:	80450000 	lb	a1,0(v0)
  402058:	8f830324 	lw	v1,804(gp)
  40205c:	00000000 	nop
  402060:	8c630000 	lw	v1,0(v1)
  402064:	00402021 	move	a0,v0
  402068:	00051040 	sll	v0,a1,0x1
  40206c:	00431021 	addu	v0,v0,v1
  402070:	94420000 	lhu	v0,0(v0)
  402074:	00000000 	nop
  402078:	30420800 	andi	v0,v0,0x800
  40207c:	14400003 	bnez	v0,40208c <cache_lookup_name+0x1dc>
  402080:	2402002e 	li	v0,46
  402084:	14a20012 	bne	a1,v0,4020d0 <cache_lookup_name+0x220>
  402088:	24020001 	li	v0,1
  40208c:	90820000 	lbu	v0,0(a0)
  402090:	24840001 	addiu	a0,a0,1
  402094:	a2020000 	sb	v0,0(s0)
  402098:	80850000 	lb	a1,0(a0)
  40209c:	8f830324 	lw	v1,804(gp)
  4020a0:	00000000 	nop
  4020a4:	8c630000 	lw	v1,0(v1)
  4020a8:	00051040 	sll	v0,a1,0x1
  4020ac:	00431021 	addu	v0,v0,v1
  4020b0:	94420000 	lhu	v0,0(v0)
  4020b4:	00000000 	nop
  4020b8:	30420800 	andi	v0,v0,0x800
  4020bc:	1440fff3 	bnez	v0,40208c <cache_lookup_name+0x1dc>
  4020c0:	26100001 	addiu	s0,s0,1
  4020c4:	2402002e 	li	v0,46
  4020c8:	10a2fff0 	beq	a1,v0,40208c <cache_lookup_name+0x1dc>
  4020cc:	24020001 	li	v0,1
  4020d0:	1000000f 	b	402110 <cache_lookup_name+0x260>
  4020d4:	a2000000 	sb	zero,0(s0)
  4020d8:	24050100 	li	a1,256
  4020dc:	02203021 	move	a2,s1
  4020e0:	8f99030c 	lw	t9,780(gp)
  4020e4:	00000000 	nop
  4020e8:	0320f809 	jalr	t9
  4020ec:	00000000 	nop
  4020f0:	8fbc0010 	lw	gp,16(sp)
  4020f4:	00000000 	nop
  4020f8:	8f85000c 	lw	a1,12(gp)
  4020fc:	00000000 	nop
  402100:	24a5f1ac 	addiu	a1,a1,-3668
  402104:	1440ffbc 	bnez	v0,401ff8 <cache_lookup_name+0x148>
  402108:	27a40018 	addiu	a0,sp,24
  40210c:	00001021 	move	v0,zero
  402110:	8fbf0128 	lw	ra,296(sp)
  402114:	8fb20120 	lw	s2,288(sp)
  402118:	8fb1011c 	lw	s1,284(sp)
  40211c:	8fb00118 	lw	s0,280(sp)
  402120:	03e00008 	jr	ra
  402124:	27bd0130 	addiu	sp,sp,304

00402128 <cache_lookup_ip>:
  402128:	3c1c0001 	lui	gp,0x1
  40212c:	279cc938 	addiu	gp,gp,-14024
  402130:	0399e021 	addu	gp,gp,t9
  402134:	27bdfed0 	addiu	sp,sp,-304
  402138:	afbc0010 	sw	gp,16(sp)
  40213c:	afb30124 	sw	s3,292(sp)
  402140:	afb00118 	sw	s0,280(sp)
  402144:	afbf012c 	sw	ra,300(sp)
  402148:	afbc0128 	sw	gp,296(sp)
  40214c:	afb20120 	sw	s2,288(sp)
  402150:	afb1011c 	sw	s1,284(sp)
  402154:	80820000 	lb	v0,0(a0)
  402158:	00809821 	move	s3,a0
  40215c:	00a08021 	move	s0,a1
  402160:	10400070 	beqz	v0,402324 <cache_lookup_ip+0x1fc>
  402164:	00001821 	move	v1,zero
  402168:	a0a00000 	sb	zero,0(a1)
  40216c:	8f840034 	lw	a0,52(gp)
  402170:	00000000 	nop
  402174:	2484070c 	addiu	a0,a0,1804
  402178:	8f85000c 	lw	a1,12(gp)
  40217c:	00000000 	nop
  402180:	24a5f1a8 	addiu	a1,a1,-3672
  402184:	8f990178 	lw	t9,376(gp)
  402188:	00000000 	nop
  40218c:	0320f809 	jalr	t9
  402190:	00000000 	nop
  402194:	8fbc0010 	lw	gp,16(sp)
  402198:	00409021 	move	s2,v0
  40219c:	00001821 	move	v1,zero
  4021a0:	1440004b 	bnez	v0,4022d0 <cache_lookup_ip+0x1a8>
  4021a4:	02008821 	move	s1,s0
  4021a8:	1000005e 	b	402324 <cache_lookup_ip+0x1fc>
  4021ac:	00000000 	nop
  4021b0:	8f9901a4 	lw	t9,420(gp)
  4021b4:	00000000 	nop
  4021b8:	0320f809 	jalr	t9
  4021bc:	00000000 	nop
  4021c0:	8fbc0010 	lw	gp,16(sp)
  4021c4:	00000000 	nop
  4021c8:	8f85000c 	lw	a1,12(gp)
  4021cc:	00000000 	nop
  4021d0:	24a5f1ac 	addiu	a1,a1,-3668
  4021d4:	00002021 	move	a0,zero
  4021d8:	8f9901a4 	lw	t9,420(gp)
  4021dc:	00000000 	nop
  4021e0:	0320f809 	jalr	t9
  4021e4:	00000000 	nop
  4021e8:	8fbc0010 	lw	gp,16(sp)
  4021ec:	02602021 	move	a0,s3
  4021f0:	00408021 	move	s0,v0
  4021f4:	8f99007c 	lw	t9,124(gp)
  4021f8:	00000000 	nop
  4021fc:	0320f809 	jalr	t9
  402200:	00000000 	nop
  402204:	8fbc0010 	lw	gp,16(sp)
  402208:	00403021 	move	a2,v0
  40220c:	02002021 	move	a0,s0
  402210:	02602821 	move	a1,s3
  402214:	8f990280 	lw	t9,640(gp)
  402218:	00000000 	nop
  40221c:	0320f809 	jalr	t9
  402220:	00000000 	nop
  402224:	8fbc0010 	lw	gp,16(sp)
  402228:	1440002a 	bnez	v0,4022d4 <cache_lookup_ip+0x1ac>
  40222c:	27a40018 	addiu	a0,sp,24
  402230:	83a40018 	lb	a0,24(sp)
  402234:	8f830324 	lw	v1,804(gp)
  402238:	00000000 	nop
  40223c:	8c630000 	lw	v1,0(v1)
  402240:	00041040 	sll	v0,a0,0x1
  402244:	00431021 	addu	v0,v0,v1
  402248:	94420000 	lhu	v0,0(v0)
  40224c:	00000000 	nop
  402250:	30420800 	andi	v0,v0,0x800
  402254:	14400003 	bnez	v0,402264 <cache_lookup_ip+0x13c>
  402258:	2402002e 	li	v0,46
  40225c:	14820013 	bne	a0,v0,4022ac <cache_lookup_ip+0x184>
  402260:	00000000 	nop
  402264:	27a40018 	addiu	a0,sp,24
  402268:	90820000 	lbu	v0,0(a0)
  40226c:	24840001 	addiu	a0,a0,1
  402270:	a2220000 	sb	v0,0(s1)
  402274:	80850000 	lb	a1,0(a0)
  402278:	8f830324 	lw	v1,804(gp)
  40227c:	00000000 	nop
  402280:	8c630000 	lw	v1,0(v1)
  402284:	00051040 	sll	v0,a1,0x1
  402288:	00431021 	addu	v0,v0,v1
  40228c:	94420000 	lhu	v0,0(v0)
  402290:	00000000 	nop
  402294:	30420800 	andi	v0,v0,0x800
  402298:	1440fff3 	bnez	v0,402268 <cache_lookup_ip+0x140>
  40229c:	26310001 	addiu	s1,s1,1
  4022a0:	2402002e 	li	v0,46
  4022a4:	10a2fff0 	beq	a1,v0,402268 <cache_lookup_ip+0x140>
  4022a8:	00000000 	nop
  4022ac:	a2200000 	sb	zero,0(s1)
  4022b0:	02402021 	move	a0,s2
  4022b4:	8f99015c 	lw	t9,348(gp)
  4022b8:	00000000 	nop
  4022bc:	0320f809 	jalr	t9
  4022c0:	00000000 	nop
  4022c4:	8fbc0010 	lw	gp,16(sp)
  4022c8:	10000016 	b	402324 <cache_lookup_ip+0x1fc>
  4022cc:	24030001 	li	v1,1
  4022d0:	27a40018 	addiu	a0,sp,24
  4022d4:	24050100 	li	a1,256
  4022d8:	02403021 	move	a2,s2
  4022dc:	8f99030c 	lw	t9,780(gp)
  4022e0:	00000000 	nop
  4022e4:	0320f809 	jalr	t9
  4022e8:	00000000 	nop
  4022ec:	8fbc0010 	lw	gp,16(sp)
  4022f0:	00000000 	nop
  4022f4:	8f85000c 	lw	a1,12(gp)
  4022f8:	00000000 	nop
  4022fc:	24a5f1ac 	addiu	a1,a1,-3668
  402300:	1440ffab 	bnez	v0,4021b0 <cache_lookup_ip+0x88>
  402304:	27a40018 	addiu	a0,sp,24
  402308:	02402021 	move	a0,s2
  40230c:	8f99015c 	lw	t9,348(gp)
  402310:	00000000 	nop
  402314:	0320f809 	jalr	t9
  402318:	00000000 	nop
  40231c:	8fbc0010 	lw	gp,16(sp)
  402320:	00001821 	move	v1,zero
  402324:	8fbf012c 	lw	ra,300(sp)
  402328:	8fb30124 	lw	s3,292(sp)
  40232c:	8fb20120 	lw	s2,288(sp)
  402330:	8fb1011c 	lw	s1,284(sp)
  402334:	8fb00118 	lw	s0,280(sp)
  402338:	00601021 	move	v0,v1
  40233c:	03e00008 	jr	ra
  402340:	27bd0130 	addiu	sp,sp,304

00402344 <cache_name_append>:
  402344:	3c1c0001 	lui	gp,0x1
  402348:	279cc71c 	addiu	gp,gp,-14564
  40234c:	0399e021 	addu	gp,gp,t9
  402350:	27bdfec8 	addiu	sp,sp,-312
  402354:	afbc0018 	sw	gp,24(sp)
  402358:	afb20128 	sw	s2,296(sp)
  40235c:	afb10124 	sw	s1,292(sp)
  402360:	00a09021 	move	s2,a1
  402364:	00808821 	move	s1,a0
  402368:	8f85000c 	lw	a1,12(gp)
  40236c:	00000000 	nop
  402370:	24a5f1b0 	addiu	a1,a1,-3664
  402374:	8f840034 	lw	a0,52(gp)
  402378:	00000000 	nop
  40237c:	2484070c 	addiu	a0,a0,1804
  402380:	afb00120 	sw	s0,288(sp)
  402384:	afbf0130 	sw	ra,304(sp)
  402388:	afbc012c 	sw	gp,300(sp)
  40238c:	8f990178 	lw	t9,376(gp)
  402390:	00000000 	nop
  402394:	0320f809 	jalr	t9
  402398:	00000000 	nop
  40239c:	8fbc0018 	lw	gp,24(sp)
  4023a0:	00408021 	move	s0,v0
  4023a4:	8f84000c 	lw	a0,12(gp)
  4023a8:	00000000 	nop
  4023ac:	2484f1b4 	addiu	a0,a0,-3660
  4023b0:	8f850034 	lw	a1,52(gp)
  4023b4:	00000000 	nop
  4023b8:	24a5070c 	addiu	a1,a1,1804
  4023bc:	14400008 	bnez	v0,4023e0 <cache_name_append+0x9c>
  4023c0:	27a60020 	addiu	a2,sp,32
  4023c4:	8f9902a0 	lw	t9,672(gp)
  4023c8:	00000000 	nop
  4023cc:	0320f809 	jalr	t9
  4023d0:	00000000 	nop
  4023d4:	8fbc0018 	lw	gp,24(sp)
  4023d8:	1000002b 	b	402488 <cache_name_append+0x144>
  4023dc:	00000000 	nop
  4023e0:	00402021 	move	a0,v0
  4023e4:	02202821 	move	a1,s1
  4023e8:	8f990008 	lw	t9,8(gp)
  4023ec:	00000000 	nop
  4023f0:	27391fa4 	addiu	t9,t9,8100
  4023f4:	00000000 	nop
  4023f8:	0320f809 	jalr	t9
  4023fc:	00000000 	nop
  402400:	8fbc0018 	lw	gp,24(sp)
  402404:	00002821 	move	a1,zero
  402408:	24060002 	li	a2,2
  40240c:	14400019 	bnez	v0,402474 <cache_name_append+0x130>
  402410:	02002021 	move	a0,s0
  402414:	8f9901fc 	lw	t9,508(gp)
  402418:	00000000 	nop
  40241c:	0320f809 	jalr	t9
  402420:	00000000 	nop
  402424:	8fbc0018 	lw	gp,24(sp)
  402428:	00002021 	move	a0,zero
  40242c:	8f990148 	lw	t9,328(gp)
  402430:	00000000 	nop
  402434:	0320f809 	jalr	t9
  402438:	00000000 	nop
  40243c:	8fbc0018 	lw	gp,24(sp)
  402440:	02002021 	move	a0,s0
  402444:	02203021 	move	a2,s1
  402448:	02403821 	move	a3,s2
  40244c:	8f85000c 	lw	a1,12(gp)
  402450:	00000000 	nop
  402454:	24a5f1e0 	addiu	a1,a1,-3616
  402458:	afa20010 	sw	v0,16(sp)
  40245c:	8f990224 	lw	t9,548(gp)
  402460:	00000000 	nop
  402464:	0320f809 	jalr	t9
  402468:	00000000 	nop
  40246c:	8fbc0018 	lw	gp,24(sp)
  402470:	02002021 	move	a0,s0
  402474:	8f99015c 	lw	t9,348(gp)
  402478:	00000000 	nop
  40247c:	0320f809 	jalr	t9
  402480:	00000000 	nop
  402484:	8fbc0018 	lw	gp,24(sp)
  402488:	8fbf0130 	lw	ra,304(sp)
  40248c:	8fb20128 	lw	s2,296(sp)
  402490:	8fb10124 	lw	s1,292(sp)
  402494:	8fb00120 	lw	s0,288(sp)
  402498:	03e00008 	jr	ra
  40249c:	27bd0138 	addiu	sp,sp,312

004024a0 <cache_purge>:
  4024a0:	3c1c0001 	lui	gp,0x1
  4024a4:	279cc5c0 	addiu	gp,gp,-14912
  4024a8:	0399e021 	addu	gp,gp,t9
  4024ac:	27bdfab8 	addiu	sp,sp,-1352
  4024b0:	afbc0018 	sw	gp,24(sp)
  4024b4:	afb60538 	sw	s6,1336(sp)
  4024b8:	0080b021 	move	s6,a0
  4024bc:	8f84000c 	lw	a0,12(gp)
  4024c0:	00000000 	nop
  4024c4:	2484f1ec 	addiu	a0,a0,-3604
  4024c8:	afbf0540 	sw	ra,1344(sp)
  4024cc:	afb20528 	sw	s2,1320(sp)
  4024d0:	afbc053c 	sw	gp,1340(sp)
  4024d4:	afb50534 	sw	s5,1332(sp)
  4024d8:	afb40530 	sw	s4,1328(sp)
  4024dc:	afb3052c 	sw	s3,1324(sp)
  4024e0:	afb10524 	sw	s1,1316(sp)
  4024e4:	afb00520 	sw	s0,1312(sp)
  4024e8:	8f9902a0 	lw	t9,672(gp)
  4024ec:	00000000 	nop
  4024f0:	0320f809 	jalr	t9
  4024f4:	00000000 	nop
  4024f8:	8fbc0018 	lw	gp,24(sp)
  4024fc:	00000000 	nop
  402500:	8f840034 	lw	a0,52(gp)
  402504:	00000000 	nop
  402508:	2484070c 	addiu	a0,a0,1804
  40250c:	8f85000c 	lw	a1,12(gp)
  402510:	00000000 	nop
  402514:	24a5f1a8 	addiu	a1,a1,-3672
  402518:	8f990178 	lw	t9,376(gp)
  40251c:	00000000 	nop
  402520:	0320f809 	jalr	t9
  402524:	00000000 	nop
  402528:	8fbc0018 	lw	gp,24(sp)
  40252c:	1440000b 	bnez	v0,40255c <cache_purge+0xbc>
  402530:	00409021 	move	s2,v0
  402534:	8f84000c 	lw	a0,12(gp)
  402538:	00000000 	nop
  40253c:	2484f204 	addiu	a0,a0,-3580
  402540:	8f9900d8 	lw	t9,216(gp)
  402544:	00000000 	nop
  402548:	0320f809 	jalr	t9
  40254c:	00000000 	nop
  402550:	8fbc0018 	lw	gp,24(sp)
  402554:	10000023 	b	4025e4 <cache_purge+0x144>
  402558:	00000000 	nop
  40255c:	27b00120 	addiu	s0,sp,288
  402560:	02002021 	move	a0,s0
  402564:	8f85000c 	lw	a1,12(gp)
  402568:	00000000 	nop
  40256c:	24a5f224 	addiu	a1,a1,-3548
  402570:	8f860034 	lw	a2,52(gp)
  402574:	00000000 	nop
  402578:	24c6070c 	addiu	a2,a2,1804
  40257c:	8f99011c 	lw	t9,284(gp)
  402580:	00000000 	nop
  402584:	0320f809 	jalr	t9
  402588:	00000000 	nop
  40258c:	8fbc0018 	lw	gp,24(sp)
  402590:	02002821 	move	a1,s0
  402594:	8f840034 	lw	a0,52(gp)
  402598:	00000000 	nop
  40259c:	2484070c 	addiu	a0,a0,1804
  4025a0:	8f990250 	lw	t9,592(gp)
  4025a4:	00000000 	nop
  4025a8:	0320f809 	jalr	t9
  4025ac:	00000000 	nop
  4025b0:	8fbc0018 	lw	gp,24(sp)
  4025b4:	0441000b 	bgez	v0,4025e4 <cache_purge+0x144>
  4025b8:	00000000 	nop
  4025bc:	8f84000c 	lw	a0,12(gp)
  4025c0:	00000000 	nop
  4025c4:	2484f22c 	addiu	a0,a0,-3540
  4025c8:	8f9900d8 	lw	t9,216(gp)
  4025cc:	00000000 	nop
  4025d0:	0320f809 	jalr	t9
  4025d4:	00000000 	nop
  4025d8:	8fbc0018 	lw	gp,24(sp)
  4025dc:	1000007c 	b	4027d0 <cache_purge+0x330>
  4025e0:	02402021 	move	a0,s2
  4025e4:	8f840034 	lw	a0,52(gp)
  4025e8:	00000000 	nop
  4025ec:	2484070c 	addiu	a0,a0,1804
  4025f0:	8f85000c 	lw	a1,12(gp)
  4025f4:	00000000 	nop
  4025f8:	24a5f248 	addiu	a1,a1,-3512
  4025fc:	8f990178 	lw	t9,376(gp)
  402600:	00000000 	nop
  402604:	0320f809 	jalr	t9
  402608:	00000000 	nop
  40260c:	8fbc0018 	lw	gp,24(sp)
  402610:	14400013 	bnez	v0,402660 <cache_purge+0x1c0>
  402614:	00409821 	move	s3,v0
  402618:	12400007 	beqz	s2,402638 <cache_purge+0x198>
  40261c:	02402021 	move	a0,s2
  402620:	8f99015c 	lw	t9,348(gp)
  402624:	00000000 	nop
  402628:	0320f809 	jalr	t9
  40262c:	00000000 	nop
  402630:	8fbc0018 	lw	gp,24(sp)
  402634:	00000000 	nop
  402638:	8f84000c 	lw	a0,12(gp)
  40263c:	00000000 	nop
  402640:	2484f24c 	addiu	a0,a0,-3508
  402644:	8f9900d8 	lw	t9,216(gp)
  402648:	00000000 	nop
  40264c:	0320f809 	jalr	t9
  402650:	00000000 	nop
  402654:	8fbc0018 	lw	gp,24(sp)
  402658:	10000062 	b	4027e4 <cache_purge+0x344>
  40265c:	00000000 	nop
  402660:	00402021 	move	a0,v0
  402664:	8f990328 	lw	t9,808(gp)
  402668:	00000000 	nop
  40266c:	0320f809 	jalr	t9
  402670:	00000000 	nop
  402674:	8fbc0018 	lw	gp,24(sp)
  402678:	12400054 	beqz	s2,4027cc <cache_purge+0x32c>
  40267c:	27a40020 	addiu	a0,sp,32
  402680:	1000003a 	b	40276c <cache_purge+0x2cc>
  402684:	24050100 	li	a1,256
  402688:	8f9901a4 	lw	t9,420(gp)
  40268c:	00000000 	nop
  402690:	0320f809 	jalr	t9
  402694:	00000000 	nop
  402698:	8fbc0018 	lw	gp,24(sp)
  40269c:	00002021 	move	a0,zero
  4026a0:	8f85000c 	lw	a1,12(gp)
  4026a4:	00000000 	nop
  4026a8:	24a5f1ac 	addiu	a1,a1,-3668
  4026ac:	0040a821 	move	s5,v0
  4026b0:	8f9901a4 	lw	t9,420(gp)
  4026b4:	00000000 	nop
  4026b8:	0320f809 	jalr	t9
  4026bc:	00000000 	nop
  4026c0:	8fbc0018 	lw	gp,24(sp)
  4026c4:	00002021 	move	a0,zero
  4026c8:	8f85000c 	lw	a1,12(gp)
  4026cc:	00000000 	nop
  4026d0:	24a5f1ac 	addiu	a1,a1,-3668
  4026d4:	0040a021 	move	s4,v0
  4026d8:	8f9901a4 	lw	t9,420(gp)
  4026dc:	00000000 	nop
  4026e0:	0320f809 	jalr	t9
  4026e4:	00000000 	nop
  4026e8:	8fbc0018 	lw	gp,24(sp)
  4026ec:	00408821 	move	s1,v0
  4026f0:	1040001c 	beqz	v0,402764 <cache_purge+0x2c4>
  4026f4:	00002021 	move	a0,zero
  4026f8:	8f990148 	lw	t9,328(gp)
  4026fc:	00000000 	nop
  402700:	0320f809 	jalr	t9
  402704:	00000000 	nop
  402708:	8fbc0018 	lw	gp,24(sp)
  40270c:	02202021 	move	a0,s1
  402710:	00408021 	move	s0,v0
  402714:	8f990094 	lw	t9,148(gp)
  402718:	00000000 	nop
  40271c:	0320f809 	jalr	t9
  402720:	00000000 	nop
  402724:	8fbc0018 	lw	gp,24(sp)
  402728:	02028023 	subu	s0,s0,v0
  40272c:	0216802a 	slt	s0,s0,s6
  402730:	02a03021 	move	a2,s5
  402734:	02803821 	move	a3,s4
  402738:	8f85000c 	lw	a1,12(gp)
  40273c:	00000000 	nop
  402740:	24a5f26c 	addiu	a1,a1,-3476
  402744:	12000007 	beqz	s0,402764 <cache_purge+0x2c4>
  402748:	02602021 	move	a0,s3
  40274c:	afb10010 	sw	s1,16(sp)
  402750:	8f990224 	lw	t9,548(gp)
  402754:	00000000 	nop
  402758:	0320f809 	jalr	t9
  40275c:	00000000 	nop
  402760:	8fbc0018 	lw	gp,24(sp)
  402764:	27a40020 	addiu	a0,sp,32
  402768:	24050100 	li	a1,256
  40276c:	02403021 	move	a2,s2
  402770:	8f99030c 	lw	t9,780(gp)
  402774:	00000000 	nop
  402778:	0320f809 	jalr	t9
  40277c:	00000000 	nop
  402780:	8fbc0018 	lw	gp,24(sp)
  402784:	00000000 	nop
  402788:	8f85000c 	lw	a1,12(gp)
  40278c:	00000000 	nop
  402790:	24a5f1ac 	addiu	a1,a1,-3668
  402794:	1440ffbc 	bnez	v0,402688 <cache_purge+0x1e8>
  402798:	27a40020 	addiu	a0,sp,32
  40279c:	02402021 	move	a0,s2
  4027a0:	8f99015c 	lw	t9,348(gp)
  4027a4:	00000000 	nop
  4027a8:	0320f809 	jalr	t9
  4027ac:	00000000 	nop
  4027b0:	8fbc0018 	lw	gp,24(sp)
  4027b4:	27a40120 	addiu	a0,sp,288
  4027b8:	8f9901bc 	lw	t9,444(gp)
  4027bc:	00000000 	nop
  4027c0:	0320f809 	jalr	t9
  4027c4:	00000000 	nop
  4027c8:	8fbc0018 	lw	gp,24(sp)
  4027cc:	02602021 	move	a0,s3
  4027d0:	8f99015c 	lw	t9,348(gp)
  4027d4:	00000000 	nop
  4027d8:	0320f809 	jalr	t9
  4027dc:	00000000 	nop
  4027e0:	8fbc0018 	lw	gp,24(sp)
  4027e4:	8fbf0540 	lw	ra,1344(sp)
  4027e8:	8fb60538 	lw	s6,1336(sp)
  4027ec:	8fb50534 	lw	s5,1332(sp)
  4027f0:	8fb40530 	lw	s4,1328(sp)
  4027f4:	8fb3052c 	lw	s3,1324(sp)
  4027f8:	8fb20528 	lw	s2,1320(sp)
  4027fc:	8fb10524 	lw	s1,1316(sp)
  402800:	8fb00520 	lw	s0,1312(sp)
  402804:	03e00008 	jr	ra
  402808:	27bd0548 	addiu	sp,sp,1352

0040280c <cache_add_hosts_entries>:
  40280c:	3c1c0001 	lui	gp,0x1
  402810:	279cc254 	addiu	gp,gp,-15788
  402814:	0399e021 	addu	gp,gp,t9
  402818:	27bdfec8 	addiu	sp,sp,-312
  40281c:	afbc0018 	sw	gp,24(sp)
  402820:	afb20128 	sw	s2,296(sp)
  402824:	00809021 	move	s2,a0
  402828:	8f84000c 	lw	a0,12(gp)
  40282c:	00000000 	nop
  402830:	2484f278 	addiu	a0,a0,-3464
  402834:	afbf0130 	sw	ra,304(sp)
  402838:	afb10124 	sw	s1,292(sp)
  40283c:	afbc012c 	sw	gp,300(sp)
  402840:	afb00120 	sw	s0,288(sp)
  402844:	8f9902a0 	lw	t9,672(gp)
  402848:	00000000 	nop
  40284c:	0320f809 	jalr	t9
  402850:	00000000 	nop
  402854:	8fbc0018 	lw	gp,24(sp)
  402858:	00000000 	nop
  40285c:	8f840034 	lw	a0,52(gp)
  402860:	00000000 	nop
  402864:	2484080c 	addiu	a0,a0,2060
  402868:	8f85000c 	lw	a1,12(gp)
  40286c:	00000000 	nop
  402870:	24a5f1a8 	addiu	a1,a1,-3672
  402874:	8f990178 	lw	t9,376(gp)
  402878:	00000000 	nop
  40287c:	0320f809 	jalr	t9
  402880:	00000000 	nop
  402884:	8fbc0018 	lw	gp,24(sp)
  402888:	1440003d 	bnez	v0,402980 <cache_add_hosts_entries+0x174>
  40288c:	00408821 	move	s1,v0
  402890:	8f84000c 	lw	a0,12(gp)
  402894:	00000000 	nop
  402898:	2484f294 	addiu	a0,a0,-3436
  40289c:	8f9900d8 	lw	t9,216(gp)
  4028a0:	00000000 	nop
  4028a4:	0320f809 	jalr	t9
  4028a8:	00000000 	nop
  4028ac:	8fbc0018 	lw	gp,24(sp)
  4028b0:	1000004c 	b	4029e4 <cache_add_hosts_entries+0x1d8>
  4028b4:	00000000 	nop
  4028b8:	8f99007c 	lw	t9,124(gp)
  4028bc:	00000000 	nop
  4028c0:	0320f809 	jalr	t9
  4028c4:	00000000 	nop
  4028c8:	8fbc0018 	lw	gp,24(sp)
  4028cc:	27a40020 	addiu	a0,sp,32
  4028d0:	00441021 	addu	v0,v0,a0
  4028d4:	8f85000c 	lw	a1,12(gp)
  4028d8:	00000000 	nop
  4028dc:	24a5f2b0 	addiu	a1,a1,-3408
  4028e0:	a040ffff 	sb	zero,-1(v0)
  4028e4:	8f9901a4 	lw	t9,420(gp)
  4028e8:	00000000 	nop
  4028ec:	0320f809 	jalr	t9
  4028f0:	00000000 	nop
  4028f4:	8fbc0018 	lw	gp,24(sp)
  4028f8:	10400021 	beqz	v0,402980 <cache_add_hosts_entries+0x174>
  4028fc:	00408021 	move	s0,v0
  402900:	80430000 	lb	v1,0(v0)
  402904:	24020023 	li	v0,35
  402908:	1062001d 	beq	v1,v0,402980 <cache_add_hosts_entries+0x174>
  40290c:	00002021 	move	a0,zero
  402910:	1000000c 	b	402944 <cache_add_hosts_entries+0x138>
  402914:	00000000 	nop
  402918:	80430000 	lb	v1,0(v0)
  40291c:	24020023 	li	v0,35
  402920:	10620017 	beq	v1,v0,402980 <cache_add_hosts_entries+0x174>
  402924:	00000000 	nop
  402928:	afa00010 	sw	zero,16(sp)
  40292c:	8f990224 	lw	t9,548(gp)
  402930:	00000000 	nop
  402934:	0320f809 	jalr	t9
  402938:	00000000 	nop
  40293c:	8fbc0018 	lw	gp,24(sp)
  402940:	00002021 	move	a0,zero
  402944:	8f85000c 	lw	a1,12(gp)
  402948:	00000000 	nop
  40294c:	24a5f2b0 	addiu	a1,a1,-3408
  402950:	8f9901a4 	lw	t9,420(gp)
  402954:	00000000 	nop
  402958:	0320f809 	jalr	t9
  40295c:	00000000 	nop
  402960:	8fbc0018 	lw	gp,24(sp)
  402964:	00403021 	move	a2,v0
  402968:	02402021 	move	a0,s2
  40296c:	8f85000c 	lw	a1,12(gp)
  402970:	00000000 	nop
  402974:	24a5f1e0 	addiu	a1,a1,-3616
  402978:	1440ffe7 	bnez	v0,402918 <cache_add_hosts_entries+0x10c>
  40297c:	02003821 	move	a3,s0
  402980:	27a40020 	addiu	a0,sp,32
  402984:	24050100 	li	a1,256
  402988:	02203021 	move	a2,s1
  40298c:	8f99030c 	lw	t9,780(gp)
  402990:	00000000 	nop
  402994:	0320f809 	jalr	t9
  402998:	00000000 	nop
  40299c:	8fbc0018 	lw	gp,24(sp)
  4029a0:	1440ffc5 	bnez	v0,4028b8 <cache_add_hosts_entries+0xac>
  4029a4:	27a40020 	addiu	a0,sp,32
  4029a8:	02202021 	move	a0,s1
  4029ac:	8f99015c 	lw	t9,348(gp)
  4029b0:	00000000 	nop
  4029b4:	0320f809 	jalr	t9
  4029b8:	00000000 	nop
  4029bc:	8fbc0018 	lw	gp,24(sp)
  4029c0:	00000000 	nop
  4029c4:	8f84000c 	lw	a0,12(gp)
  4029c8:	00000000 	nop
  4029cc:	2484f2b4 	addiu	a0,a0,-3404
  4029d0:	8f9902a0 	lw	t9,672(gp)
  4029d4:	00000000 	nop
  4029d8:	0320f809 	jalr	t9
  4029dc:	00000000 	nop
  4029e0:	8fbc0018 	lw	gp,24(sp)
  4029e4:	8fbf0130 	lw	ra,304(sp)
  4029e8:	8fb20128 	lw	s2,296(sp)
  4029ec:	8fb10124 	lw	s1,292(sp)
  4029f0:	8fb00120 	lw	s0,288(sp)
  4029f4:	03e00008 	jr	ra
  4029f8:	27bd0138 	addiu	sp,sp,312
  4029fc:	00000000 	nop

00402a00 <conf_load>:
  402a00:	3c1c0001 	lui	gp,0x1
  402a04:	279cc060 	addiu	gp,gp,-16288
  402a08:	0399e021 	addu	gp,gp,t9
  402a0c:	27bdfed8 	addiu	sp,sp,-296
  402a10:	afbc0010 	sw	gp,16(sp)
  402a14:	8f82034c 	lw	v0,844(gp)
  402a18:	afb00118 	sw	s0,280(sp)
  402a1c:	00808021 	move	s0,a0
  402a20:	afbf0124 	sw	ra,292(sp)
  402a24:	afb1011c 	sw	s1,284(sp)
  402a28:	8f8101e8 	lw	at,488(gp)
  402a2c:	00000000 	nop
  402a30:	ac220000 	sw	v0,0(at)
  402a34:	afbc0120 	sw	gp,288(sp)
  402a38:	8f8101e8 	lw	at,488(gp)
  402a3c:	00000000 	nop
  402a40:	ac200004 	sw	zero,4(at)
  402a44:	8f9901b8 	lw	t9,440(gp)
  402a48:	00000000 	nop
  402a4c:	0320f809 	jalr	t9
  402a50:	00000000 	nop
  402a54:	8fbc0010 	lw	gp,16(sp)
  402a58:	02002021 	move	a0,s0
  402a5c:	8f85000c 	lw	a1,12(gp)
  402a60:	00000000 	nop
  402a64:	24a5f5c8 	addiu	a1,a1,-2616
  402a68:	8f990178 	lw	t9,376(gp)
  402a6c:	00000000 	nop
  402a70:	0320f809 	jalr	t9
  402a74:	00000000 	nop
  402a78:	8fbc0010 	lw	gp,16(sp)
  402a7c:	14400018 	bnez	v0,402ae0 <conf_load+0xe0>
  402a80:	00408821 	move	s1,v0
  402a84:	8f840034 	lw	a0,52(gp)
  402a88:	00000000 	nop
  402a8c:	2484050c 	addiu	a0,a0,1292
  402a90:	8f85000c 	lw	a1,12(gp)
  402a94:	00000000 	nop
  402a98:	24a5f5c8 	addiu	a1,a1,-2616
  402a9c:	8f990178 	lw	t9,376(gp)
  402aa0:	00000000 	nop
  402aa4:	0320f809 	jalr	t9
  402aa8:	00000000 	nop
  402aac:	8fbc0010 	lw	gp,16(sp)
  402ab0:	1440003b 	bnez	v0,402ba0 <conf_load+0x1a0>
  402ab4:	00408821 	move	s1,v0
  402ab8:	8f84000c 	lw	a0,12(gp)
  402abc:	00000000 	nop
  402ac0:	2484f5cc 	addiu	a0,a0,-2612
  402ac4:	8f9902f0 	lw	t9,752(gp)
  402ac8:	00000000 	nop
  402acc:	0320f809 	jalr	t9
  402ad0:	00000000 	nop
  402ad4:	8fbc0010 	lw	gp,16(sp)
  402ad8:	10000041 	b	402be0 <conf_load+0x1e0>
  402adc:	00000000 	nop
  402ae0:	02002821 	move	a1,s0
  402ae4:	8f840034 	lw	a0,52(gp)
  402ae8:	00000000 	nop
  402aec:	2484050c 	addiu	a0,a0,1292
  402af0:	8f990380 	lw	t9,896(gp)
  402af4:	00000000 	nop
  402af8:	0320f809 	jalr	t9
  402afc:	00000000 	nop
  402b00:	8fbc0010 	lw	gp,16(sp)
  402b04:	10000027 	b	402ba4 <conf_load+0x1a4>
  402b08:	27a40018 	addiu	a0,sp,24
  402b0c:	83a30018 	lb	v1,24(sp)
  402b10:	24020023 	li	v0,35
  402b14:	10620022 	beq	v1,v0,402ba0 <conf_load+0x1a0>
  402b18:	00000000 	nop
  402b1c:	8f99007c 	lw	t9,124(gp)
  402b20:	00000000 	nop
  402b24:	0320f809 	jalr	t9
  402b28:	00000000 	nop
  402b2c:	8fbc0010 	lw	gp,16(sp)
  402b30:	27a40018 	addiu	a0,sp,24
  402b34:	00441021 	addu	v0,v0,a0
  402b38:	8f85000c 	lw	a1,12(gp)
  402b3c:	00000000 	nop
  402b40:	24a5f5dc 	addiu	a1,a1,-2596
  402b44:	a040ffff 	sb	zero,-1(v0)
  402b48:	8f9901a4 	lw	t9,420(gp)
  402b4c:	00000000 	nop
  402b50:	0320f809 	jalr	t9
  402b54:	00000000 	nop
  402b58:	8fbc0010 	lw	gp,16(sp)
  402b5c:	00002021 	move	a0,zero
  402b60:	8f85000c 	lw	a1,12(gp)
  402b64:	00000000 	nop
  402b68:	24a5f5dc 	addiu	a1,a1,-2596
  402b6c:	00408021 	move	s0,v0
  402b70:	8f9901a4 	lw	t9,420(gp)
  402b74:	00000000 	nop
  402b78:	0320f809 	jalr	t9
  402b7c:	00000000 	nop
  402b80:	8fbc0010 	lw	gp,16(sp)
  402b84:	00402821 	move	a1,v0
  402b88:	02002021 	move	a0,s0
  402b8c:	8f9900a4 	lw	t9,164(gp)
  402b90:	00000000 	nop
  402b94:	0320f809 	jalr	t9
  402b98:	00000000 	nop
  402b9c:	8fbc0010 	lw	gp,16(sp)
  402ba0:	27a40018 	addiu	a0,sp,24
  402ba4:	02203021 	move	a2,s1
  402ba8:	24050100 	li	a1,256
  402bac:	8f99030c 	lw	t9,780(gp)
  402bb0:	00000000 	nop
  402bb4:	0320f809 	jalr	t9
  402bb8:	00000000 	nop
  402bbc:	8fbc0010 	lw	gp,16(sp)
  402bc0:	1440ffd2 	bnez	v0,402b0c <conf_load+0x10c>
  402bc4:	27a40018 	addiu	a0,sp,24
  402bc8:	02202021 	move	a0,s1
  402bcc:	8f99015c 	lw	t9,348(gp)
  402bd0:	00000000 	nop
  402bd4:	0320f809 	jalr	t9
  402bd8:	00000000 	nop
  402bdc:	8fbc0010 	lw	gp,16(sp)
  402be0:	8fbf0124 	lw	ra,292(sp)
  402be4:	8fb1011c 	lw	s1,284(sp)
  402be8:	8fb00118 	lw	s0,280(sp)
  402bec:	00001021 	move	v0,zero
  402bf0:	03e00008 	jr	ra
  402bf4:	27bd0128 	addiu	sp,sp,296

00402bf8 <conf_cmdparse>:
  402bf8:	3c1c0001 	lui	gp,0x1
  402bfc:	279cbe68 	addiu	gp,gp,-16792
  402c00:	0399e021 	addu	gp,gp,t9
  402c04:	27bdffc8 	addiu	sp,sp,-56
  402c08:	afbc0010 	sw	gp,16(sp)
  402c0c:	afb40028 	sw	s4,40(sp)
  402c10:	afb30024 	sw	s3,36(sp)
  402c14:	afb20020 	sw	s2,32(sp)
  402c18:	afb1001c 	sw	s1,28(sp)
  402c1c:	afbf0030 	sw	ra,48(sp)
  402c20:	afbc002c 	sw	gp,44(sp)
  402c24:	afb00018 	sw	s0,24(sp)
  402c28:	00809821 	move	s3,a0
  402c2c:	00a0a021 	move	s4,a1
  402c30:	00009021 	move	s2,zero
  402c34:	10800040 	beqz	a0,402d38 <conf_cmdparse+0x140>
  402c38:	24110001 	li	s1,1
  402c3c:	10a0003e 	beqz	a1,402d38 <conf_cmdparse+0x140>
  402c40:	00000000 	nop
  402c44:	8f8501e8 	lw	a1,488(gp)
  402c48:	00000000 	nop
  402c4c:	8ca50000 	lw	a1,0(a1)
  402c50:	00000000 	nop
  402c54:	8ca20000 	lw	v0,0(a1)
  402c58:	00000000 	nop
  402c5c:	1040002a 	beqz	v0,402d08 <conf_cmdparse+0x110>
  402c60:	00a08021 	move	s0,a1
  402c64:	8e050000 	lw	a1,0(s0)
  402c68:	02602021 	move	a0,s3
  402c6c:	24060132 	li	a2,306
  402c70:	8f990280 	lw	t9,640(gp)
  402c74:	00000000 	nop
  402c78:	0320f809 	jalr	t9
  402c7c:	00000000 	nop
  402c80:	8fbc0010 	lw	gp,16(sp)
  402c84:	02518804 	sllv	s1,s1,s2
  402c88:	1440001a 	bnez	v0,402cf4 <conf_cmdparse+0xfc>
  402c8c:	26520001 	addiu	s2,s2,1
  402c90:	8f8201e8 	lw	v0,488(gp)
  402c94:	00000000 	nop
  402c98:	8c420004 	lw	v0,4(v0)
  402c9c:	00000000 	nop
  402ca0:	00511024 	and	v0,v0,s1
  402ca4:	14400014 	bnez	v0,402cf8 <conf_cmdparse+0x100>
  402ca8:	2610001c 	addiu	s0,s0,28
  402cac:	2610ffe4 	addiu	s0,s0,-28
  402cb0:	8e020014 	lw	v0,20(s0)
  402cb4:	8e050008 	lw	a1,8(s0)
  402cb8:	02802021 	move	a0,s4
  402cbc:	0040c821 	move	t9,v0
  402cc0:	0320f809 	jalr	t9
  402cc4:	00000000 	nop
  402cc8:	8fbc0010 	lw	gp,16(sp)
  402ccc:	00000000 	nop
  402cd0:	8f8201e8 	lw	v0,488(gp)
  402cd4:	00000000 	nop
  402cd8:	8c420004 	lw	v0,4(v0)
  402cdc:	00000000 	nop
  402ce0:	00511025 	or	v0,v0,s1
  402ce4:	8f8101e8 	lw	at,488(gp)
  402ce8:	00000000 	nop
  402cec:	10000012 	b	402d38 <conf_cmdparse+0x140>
  402cf0:	ac220004 	sw	v0,4(at)
  402cf4:	2610001c 	addiu	s0,s0,28
  402cf8:	8e020000 	lw	v0,0(s0)
  402cfc:	00000000 	nop
  402d00:	1440ffd8 	bnez	v0,402c64 <conf_cmdparse+0x6c>
  402d04:	00000000 	nop
  402d08:	8f840110 	lw	a0,272(gp)
  402d0c:	00000000 	nop
  402d10:	8c840000 	lw	a0,0(a0)
  402d14:	02603021 	move	a2,s3
  402d18:	8f85000c 	lw	a1,12(gp)
  402d1c:	00000000 	nop
  402d20:	24a5f5e0 	addiu	a1,a1,-2592
  402d24:	8f990224 	lw	t9,548(gp)
  402d28:	00000000 	nop
  402d2c:	0320f809 	jalr	t9
  402d30:	00000000 	nop
  402d34:	8fbc0010 	lw	gp,16(sp)
  402d38:	8fbf0030 	lw	ra,48(sp)
  402d3c:	8fb40028 	lw	s4,40(sp)
  402d40:	8fb30024 	lw	s3,36(sp)
  402d44:	8fb20020 	lw	s2,32(sp)
  402d48:	8fb1001c 	lw	s1,28(sp)
  402d4c:	8fb00018 	lw	s0,24(sp)
  402d50:	03e00008 	jr	ra
  402d54:	27bd0038 	addiu	sp,sp,56
  402d58:	3c1c0001 	lui	gp,0x1
  402d5c:	279cbd08 	addiu	gp,gp,-17144
  402d60:	0399e021 	addu	gp,gp,t9
  402d64:	27bdffd8 	addiu	sp,sp,-40
  402d68:	afbc0010 	sw	gp,16(sp)
  402d6c:	afb1001c 	sw	s1,28(sp)
  402d70:	afb00018 	sw	s0,24(sp)
  402d74:	afbf0024 	sw	ra,36(sp)
  402d78:	afbc0020 	sw	gp,32(sp)
  402d7c:	00a08821 	move	s1,a1
  402d80:	24060002 	li	a2,2
  402d84:	8f85000c 	lw	a1,12(gp)
  402d88:	00000000 	nop
  402d8c:	24a5f5fc 	addiu	a1,a1,-2564
  402d90:	00808021 	move	s0,a0
  402d94:	8f9901a0 	lw	t9,416(gp)
  402d98:	00000000 	nop
  402d9c:	0320f809 	jalr	t9
  402da0:	00000000 	nop
  402da4:	8fbc0010 	lw	gp,16(sp)
  402da8:	00000000 	nop
  402dac:	8f85000c 	lw	a1,12(gp)
  402db0:	00000000 	nop
  402db4:	24a5f600 	addiu	a1,a1,-2560
  402db8:	10400013 	beqz	v0,402e08 <conf_cmdparse+0x210>
  402dbc:	02002021 	move	a0,s0
  402dc0:	8f9901b4 	lw	t9,436(gp)
  402dc4:	00000000 	nop
  402dc8:	0320f809 	jalr	t9
  402dcc:	00000000 	nop
  402dd0:	8fbc0010 	lw	gp,16(sp)
  402dd4:	00000000 	nop
  402dd8:	8f85000c 	lw	a1,12(gp)
  402ddc:	00000000 	nop
  402de0:	24a5f604 	addiu	a1,a1,-2556
  402de4:	10400008 	beqz	v0,402e08 <conf_cmdparse+0x210>
  402de8:	02002021 	move	a0,s0
  402dec:	8f9901b4 	lw	t9,436(gp)
  402df0:	00000000 	nop
  402df4:	0320f809 	jalr	t9
  402df8:	00000000 	nop
  402dfc:	8fbc0010 	lw	gp,16(sp)
  402e00:	14400004 	bnez	v0,402e14 <conf_cmdparse+0x21c>
  402e04:	00000000 	nop
  402e08:	24020001 	li	v0,1
  402e0c:	10000002 	b	402e18 <conf_cmdparse+0x220>
  402e10:	ae220000 	sw	v0,0(s1)
  402e14:	ae200000 	sw	zero,0(s1)
  402e18:	8fbf0024 	lw	ra,36(sp)
  402e1c:	8fb1001c 	lw	s1,28(sp)
  402e20:	8fb00018 	lw	s0,24(sp)
  402e24:	03e00008 	jr	ra
  402e28:	27bd0028 	addiu	sp,sp,40
  402e2c:	3c1c0001 	lui	gp,0x1
  402e30:	279cbc34 	addiu	gp,gp,-17356
  402e34:	0399e021 	addu	gp,gp,t9
  402e38:	27bdffd8 	addiu	sp,sp,-40
  402e3c:	afbc0010 	sw	gp,16(sp)
  402e40:	afbf0020 	sw	ra,32(sp)
  402e44:	afb00018 	sw	s0,24(sp)
  402e48:	afbc001c 	sw	gp,28(sp)
  402e4c:	00a08021 	move	s0,a1
  402e50:	8f990094 	lw	t9,148(gp)
  402e54:	00000000 	nop
  402e58:	0320f809 	jalr	t9
  402e5c:	00000000 	nop
  402e60:	8fbc0010 	lw	gp,16(sp)
  402e64:	ae020000 	sw	v0,0(s0)
  402e68:	8fbf0020 	lw	ra,32(sp)
  402e6c:	8fb00018 	lw	s0,24(sp)
  402e70:	03e00008 	jr	ra
  402e74:	27bd0028 	addiu	sp,sp,40
  402e78:	3c1c0001 	lui	gp,0x1
  402e7c:	279cbbe8 	addiu	gp,gp,-17432
  402e80:	0399e021 	addu	gp,gp,t9
  402e84:	27bdffe0 	addiu	sp,sp,-32
  402e88:	afbc0010 	sw	gp,16(sp)
  402e8c:	00801021 	move	v0,a0
  402e90:	24060100 	li	a2,256
  402e94:	00a02021 	move	a0,a1
  402e98:	00402821 	move	a1,v0
  402e9c:	afbf001c 	sw	ra,28(sp)
  402ea0:	afbc0018 	sw	gp,24(sp)
  402ea4:	8f9901c0 	lw	t9,448(gp)
  402ea8:	00000000 	nop
  402eac:	0320f809 	jalr	t9
  402eb0:	00000000 	nop
  402eb4:	8fbc0010 	lw	gp,16(sp)
  402eb8:	8fbf001c 	lw	ra,28(sp)
  402ebc:	00000000 	nop
  402ec0:	03e00008 	jr	ra
  402ec4:	27bd0020 	addiu	sp,sp,32
  402ec8:	3c1c0001 	lui	gp,0x1
  402ecc:	279cbb98 	addiu	gp,gp,-17512
  402ed0:	0399e021 	addu	gp,gp,t9
  402ed4:	8c820000 	lw	v0,0(a0)
  402ed8:	03e00008 	jr	ra
  402edc:	aca20000 	sw	v0,0(a1)
  402ee0:	3c1c0001 	lui	gp,0x1
  402ee4:	279cbb80 	addiu	gp,gp,-17536
  402ee8:	0399e021 	addu	gp,gp,t9
  402eec:	27bdffe0 	addiu	sp,sp,-32
  402ef0:	afbc0010 	sw	gp,16(sp)
  402ef4:	afbf001c 	sw	ra,28(sp)
  402ef8:	afbc0018 	sw	gp,24(sp)
  402efc:	8ca20000 	lw	v0,0(a1)
  402f00:	00801821 	move	v1,a0
  402f04:	00802821 	move	a1,a0
  402f08:	8f84000c 	lw	a0,12(gp)
  402f0c:	00000000 	nop
  402f10:	2484f600 	addiu	a0,a0,-2560
  402f14:	14400005 	bnez	v0,402f2c <conf_cmdparse+0x334>
  402f18:	00000000 	nop
  402f1c:	00602821 	move	a1,v1
  402f20:	8f84000c 	lw	a0,12(gp)
  402f24:	00000000 	nop
  402f28:	2484f608 	addiu	a0,a0,-2552
  402f2c:	8f990060 	lw	t9,96(gp)
  402f30:	00000000 	nop
  402f34:	0320f809 	jalr	t9
  402f38:	00000000 	nop
  402f3c:	8fbc0010 	lw	gp,16(sp)
  402f40:	8fbf001c 	lw	ra,28(sp)
  402f44:	00000000 	nop
  402f48:	03e00008 	jr	ra
  402f4c:	27bd0020 	addiu	sp,sp,32
  402f50:	3c1c0001 	lui	gp,0x1
  402f54:	279cbb10 	addiu	gp,gp,-17648
  402f58:	0399e021 	addu	gp,gp,t9
  402f5c:	27bdffe0 	addiu	sp,sp,-32
  402f60:	afbc0010 	sw	gp,16(sp)
  402f64:	afbf001c 	sw	ra,28(sp)
  402f68:	afbc0018 	sw	gp,24(sp)
  402f6c:	8ca60000 	lw	a2,0(a1)
  402f70:	8f85000c 	lw	a1,12(gp)
  402f74:	00000000 	nop
  402f78:	24a5f60c 	addiu	a1,a1,-2548
  402f7c:	8f990224 	lw	t9,548(gp)
  402f80:	00000000 	nop
  402f84:	0320f809 	jalr	t9
  402f88:	00000000 	nop
  402f8c:	8fbc0010 	lw	gp,16(sp)
  402f90:	8fbf001c 	lw	ra,28(sp)
  402f94:	00000000 	nop
  402f98:	03e00008 	jr	ra
  402f9c:	27bd0020 	addiu	sp,sp,32
  402fa0:	3c1c0001 	lui	gp,0x1
  402fa4:	279cbac0 	addiu	gp,gp,-17728
  402fa8:	0399e021 	addu	gp,gp,t9
  402fac:	27bdffe0 	addiu	sp,sp,-32
  402fb0:	afbc0010 	sw	gp,16(sp)
  402fb4:	00801021 	move	v0,a0
  402fb8:	00a02021 	move	a0,a1
  402fbc:	00402821 	move	a1,v0
  402fc0:	afbf001c 	sw	ra,28(sp)
  402fc4:	afbc0018 	sw	gp,24(sp)
  402fc8:	8f990060 	lw	t9,96(gp)
  402fcc:	00000000 	nop
  402fd0:	0320f809 	jalr	t9
  402fd4:	00000000 	nop
  402fd8:	8fbc0010 	lw	gp,16(sp)
  402fdc:	8fbf001c 	lw	ra,28(sp)
  402fe0:	00000000 	nop
  402fe4:	03e00008 	jr	ra
  402fe8:	27bd0020 	addiu	sp,sp,32

00402fec <conf_print>:
  402fec:	3c1c0001 	lui	gp,0x1
  402ff0:	279cba74 	addiu	gp,gp,-17804
  402ff4:	0399e021 	addu	gp,gp,t9
  402ff8:	27bdffd8 	addiu	sp,sp,-40
  402ffc:	afbc0010 	sw	gp,16(sp)
  403000:	8f82034c 	lw	v0,844(gp)
  403004:	00000000 	nop
  403008:	8c420000 	lw	v0,0(v0)
  40300c:	afb00018 	sw	s0,24(sp)
  403010:	afbf0024 	sw	ra,36(sp)
  403014:	afbc0020 	sw	gp,32(sp)
  403018:	afb1001c 	sw	s1,28(sp)
  40301c:	8f900368 	lw	s0,872(gp)
  403020:	00000000 	nop
  403024:	8e100000 	lw	s0,0(s0)
  403028:	10400057 	beqz	v0,403188 <conf_print+0x19c>
  40302c:	00000000 	nop
  403030:	8f91034c 	lw	s1,844(gp)
  403034:	00000000 	nop
  403038:	8e260000 	lw	a2,0(s1)
  40303c:	8f85000c 	lw	a1,12(gp)
  403040:	00000000 	nop
  403044:	24a5f610 	addiu	a1,a1,-2544
  403048:	02002021 	move	a0,s0
  40304c:	8f990224 	lw	t9,548(gp)
  403050:	00000000 	nop
  403054:	0320f809 	jalr	t9
  403058:	00000000 	nop
  40305c:	8fbc0010 	lw	gp,16(sp)
  403060:	8e250004 	lw	a1,4(s1)
  403064:	02002021 	move	a0,s0
  403068:	8f990224 	lw	t9,548(gp)
  40306c:	00000000 	nop
  403070:	0320f809 	jalr	t9
  403074:	00000000 	nop
  403078:	8fbc0010 	lw	gp,16(sp)
  40307c:	00000000 	nop
  403080:	8f84000c 	lw	a0,12(gp)
  403084:	00000000 	nop
  403088:	2484f620 	addiu	a0,a0,-2528
  40308c:	02002821 	move	a1,s0
  403090:	8f990060 	lw	t9,96(gp)
  403094:	00000000 	nop
  403098:	0320f809 	jalr	t9
  40309c:	00000000 	nop
  4030a0:	8fbc0010 	lw	gp,16(sp)
  4030a4:	00000000 	nop
  4030a8:	8f84000c 	lw	a0,12(gp)
  4030ac:	00000000 	nop
  4030b0:	2484f624 	addiu	a0,a0,-2524
  4030b4:	02002821 	move	a1,s0
  4030b8:	8f990060 	lw	t9,96(gp)
  4030bc:	00000000 	nop
  4030c0:	0320f809 	jalr	t9
  4030c4:	00000000 	nop
  4030c8:	8fbc0010 	lw	gp,16(sp)
  4030cc:	8e25000c 	lw	a1,12(s1)
  4030d0:	8e220018 	lw	v0,24(s1)
  4030d4:	02002021 	move	a0,s0
  4030d8:	0040c821 	move	t9,v0
  4030dc:	0320f809 	jalr	t9
  4030e0:	00000000 	nop
  4030e4:	8fbc0010 	lw	gp,16(sp)
  4030e8:	02002821 	move	a1,s0
  4030ec:	8f84000c 	lw	a0,12(gp)
  4030f0:	00000000 	nop
  4030f4:	2484f634 	addiu	a0,a0,-2508
  4030f8:	8f990060 	lw	t9,96(gp)
  4030fc:	00000000 	nop
  403100:	0320f809 	jalr	t9
  403104:	00000000 	nop
  403108:	8fbc0010 	lw	gp,16(sp)
  40310c:	8e260000 	lw	a2,0(s1)
  403110:	02002021 	move	a0,s0
  403114:	8f85000c 	lw	a1,12(gp)
  403118:	00000000 	nop
  40311c:	24a5f638 	addiu	a1,a1,-2504
  403120:	8f990224 	lw	t9,548(gp)
  403124:	00000000 	nop
  403128:	0320f809 	jalr	t9
  40312c:	00000000 	nop
  403130:	8fbc0010 	lw	gp,16(sp)
  403134:	8e250008 	lw	a1,8(s1)
  403138:	8e220018 	lw	v0,24(s1)
  40313c:	02002021 	move	a0,s0
  403140:	0040c821 	move	t9,v0
  403144:	0320f809 	jalr	t9
  403148:	00000000 	nop
  40314c:	8fbc0010 	lw	gp,16(sp)
  403150:	2631001c 	addiu	s1,s1,28
  403154:	8f84000c 	lw	a0,12(gp)
  403158:	00000000 	nop
  40315c:	2484f640 	addiu	a0,a0,-2496
  403160:	02002821 	move	a1,s0
  403164:	8f990060 	lw	t9,96(gp)
  403168:	00000000 	nop
  40316c:	0320f809 	jalr	t9
  403170:	00000000 	nop
  403174:	8fbc0010 	lw	gp,16(sp)
  403178:	8e220000 	lw	v0,0(s1)
  40317c:	00000000 	nop
  403180:	1440ffad 	bnez	v0,403038 <conf_print+0x4c>
  403184:	00000000 	nop
  403188:	8fbf0024 	lw	ra,36(sp)
  40318c:	8fb1001c 	lw	s1,28(sp)
  403190:	8fb00018 	lw	s0,24(sp)
  403194:	03e00008 	jr	ra
  403198:	27bd0028 	addiu	sp,sp,40

0040319c <conf_defaults>:
  40319c:	3c1c0001 	lui	gp,0x1
  4031a0:	279cb8c4 	addiu	gp,gp,-18236
  4031a4:	0399e021 	addu	gp,gp,t9
  4031a8:	27bdffd8 	addiu	sp,sp,-40
  4031ac:	afbc0010 	sw	gp,16(sp)
  4031b0:	8f82034c 	lw	v0,844(gp)
  4031b4:	00000000 	nop
  4031b8:	8c420000 	lw	v0,0(v0)
  4031bc:	afbf0020 	sw	ra,32(sp)
  4031c0:	afbc001c 	sw	gp,28(sp)
  4031c4:	1040000f 	beqz	v0,403204 <conf_defaults+0x68>
  4031c8:	afb00018 	sw	s0,24(sp)
  4031cc:	8f90034c 	lw	s0,844(gp)
  4031d0:	00000000 	nop
  4031d4:	8e020010 	lw	v0,16(s0)
  4031d8:	8e04000c 	lw	a0,12(s0)
  4031dc:	8e050008 	lw	a1,8(s0)
  4031e0:	2610001c 	addiu	s0,s0,28
  4031e4:	0040c821 	move	t9,v0
  4031e8:	0320f809 	jalr	t9
  4031ec:	00000000 	nop
  4031f0:	8fbc0010 	lw	gp,16(sp)
  4031f4:	8e020000 	lw	v0,0(s0)
  4031f8:	00000000 	nop
  4031fc:	1440fff5 	bnez	v0,4031d4 <conf_defaults+0x38>
  403200:	00000000 	nop
  403204:	8fbf0020 	lw	ra,32(sp)
  403208:	8fb00018 	lw	s0,24(sp)
  40320c:	8f830034 	lw	v1,52(gp)
  403210:	00000000 	nop
  403214:	24630500 	addiu	v1,v1,1280
  403218:	24020001 	li	v0,1
  40321c:	8f810034 	lw	at,52(gp)
  403220:	00000000 	nop
  403224:	ac220500 	sw	v0,1280(at)
  403228:	a060060c 	sb	zero,1548(v1)
  40322c:	a060050c 	sb	zero,1292(v1)
  403230:	03e00008 	jr	ra
  403234:	27bd0028 	addiu	sp,sp,40
	...

00403240 <dns_construct_name>:
  403240:	3c1c0001 	lui	gp,0x1
  403244:	279cb820 	addiu	gp,gp,-18400
  403248:	0399e021 	addu	gp,gp,t9
  40324c:	80820000 	lb	v0,0(a0)
  403250:	00004021 	move	t0,zero
  403254:	10400029 	beqz	v0,4032fc <dns_construct_name+0xbc>
  403258:	00005021 	move	t2,zero
  40325c:	008a3021 	addu	a2,a0,t2
  403260:	80c30000 	lb	v1,0(a2)
  403264:	00000000 	nop
  403268:	1060000c 	beqz	v1,40329c <dns_construct_name+0x5c>
  40326c:	00004821 	move	t1,zero
  403270:	2402002e 	li	v0,46
  403274:	10620009 	beq	v1,v0,40329c <dns_construct_name+0x5c>
  403278:	00c01821 	move	v1,a2
  40327c:	24630001 	addiu	v1,v1,1
  403280:	80660000 	lb	a2,0(v1)
  403284:	00000000 	nop
  403288:	10c00004 	beqz	a2,40329c <dns_construct_name+0x5c>
  40328c:	25290001 	addiu	t1,t1,1
  403290:	2402002e 	li	v0,46
  403294:	14c2fffa 	bne	a2,v0,403280 <dns_construct_name+0x40>
  403298:	24630001 	addiu	v1,v1,1
  40329c:	00a81021 	addu	v0,a1,t0
  4032a0:	a0490000 	sb	t1,0(v0)
  4032a4:	1920000a 	blez	t1,4032d0 <dns_construct_name+0x90>
  4032a8:	25080001 	addiu	t0,t0,1
  4032ac:	01443821 	addu	a3,t2,a0
  4032b0:	01203021 	move	a2,t1
  4032b4:	90e30000 	lbu	v1,0(a3)
  4032b8:	00a81021 	addu	v0,a1,t0
  4032bc:	24c6ffff 	addiu	a2,a2,-1
  4032c0:	a0430000 	sb	v1,0(v0)
  4032c4:	25080001 	addiu	t0,t0,1
  4032c8:	14c0fffa 	bnez	a2,4032b4 <dns_construct_name+0x74>
  4032cc:	24e70001 	addiu	a3,a3,1
  4032d0:	01491021 	addu	v0,t2,t1
  4032d4:	244a0001 	addiu	t2,v0,1
  4032d8:	008a1821 	addu	v1,a0,t2
  4032dc:	8062ffff 	lb	v0,-1(v1)
  4032e0:	00000000 	nop
  4032e4:	10400006 	beqz	v0,403300 <dns_construct_name+0xc0>
  4032e8:	00a81021 	addu	v0,a1,t0
  4032ec:	80620000 	lb	v0,0(v1)
  4032f0:	00000000 	nop
  4032f4:	1440ffd9 	bnez	v0,40325c <dns_construct_name+0x1c>
  4032f8:	00000000 	nop
  4032fc:	00a81021 	addu	v0,a1,t0
  403300:	25080001 	addiu	t0,t0,1
  403304:	a0400000 	sb	zero,0(v0)
  403308:	03e00008 	jr	ra
  40330c:	01001021 	move	v0,t0

00403310 <dns_construct_header>:
  403310:	3c1c0001 	lui	gp,0x1
  403314:	279cb750 	addiu	gp,gp,-18608
  403318:	0399e021 	addu	gp,gp,t9
  40331c:	9482012a 	lhu	v0,298(a0)
  403320:	94830120 	lhu	v1,288(a0)
  403324:	94850122 	lhu	a1,290(a0)
  403328:	94860124 	lhu	a2,292(a0)
  40332c:	94870126 	lhu	a3,294(a0)
  403330:	94880128 	lhu	t0,296(a0)
  403334:	a48215b6 	sh	v0,5558(a0)
  403338:	00001021 	move	v0,zero
  40333c:	a48315ac 	sh	v1,5548(a0)
  403340:	a48515ae 	sh	a1,5550(a0)
  403344:	a48615b0 	sh	a2,5552(a0)
  403348:	a48715b2 	sh	a3,5554(a0)
  40334c:	03e00008 	jr	ra
  403350:	a48815b4 	sh	t0,5556(a0)

00403354 <dns_construct_reply>:
  403354:	3c1c0001 	lui	gp,0x1
  403358:	279cb70c 	addiu	gp,gp,-18676
  40335c:	0399e021 	addu	gp,gp,t9
  403360:	27bdffd0 	addiu	sp,sp,-48
  403364:	afbc0010 	sw	gp,16(sp)
  403368:	afb10024 	sw	s1,36(sp)
  40336c:	afb00020 	sw	s0,32(sp)
  403370:	afbf002c 	sw	ra,44(sp)
  403374:	afbc0028 	sw	gp,40(sp)
  403378:	8c8217ac 	lw	v0,6060(a0)
  40337c:	8c830120 	lw	v1,288(a0)
  403380:	00821021 	addu	v0,a0,v0
  403384:	244215ac 	addiu	v0,v0,5548
  403388:	ac8217b0 	sw	v0,6064(a0)
  40338c:	34638000 	ori	v1,v1,0x8000
  403390:	24020001 	li	v0,1
  403394:	00808021 	move	s0,a0
  403398:	a4820126 	sh	v0,294(a0)
  40339c:	ac830120 	sw	v1,288(a0)
  4033a0:	8f99036c 	lw	t9,876(gp)
  4033a4:	00000000 	nop
  4033a8:	0320f809 	jalr	t9
  4033ac:	00000000 	nop
  4033b0:	8fbc0010 	lw	gp,16(sp)
  4033b4:	9608022c 	lhu	t0,556(s0)
  4033b8:	24110001 	li	s1,1
  4033bc:	26040100 	addiu	a0,s0,256
  4033c0:	15110024 	bne	t0,s1,403454 <dns_construct_reply+0x100>
  4033c4:	27a50018 	addiu	a1,sp,24
  4033c8:	8f990184 	lw	t9,388(gp)
  4033cc:	00000000 	nop
  4033d0:	0320f809 	jalr	t9
  4033d4:	00000000 	nop
  4033d8:	8fbc0010 	lw	gp,16(sp)
  4033dc:	8e0217ac 	lw	v0,6060(s0)
  4033e0:	8e0317b0 	lw	v1,6064(s0)
  4033e4:	24420006 	addiu	v0,v0,6
  4033e8:	ae0217ac 	sw	v0,6060(s0)
  4033ec:	24022710 	li	v0,10000
  4033f0:	ac620006 	sw	v0,6(v1)
  4033f4:	8e0217ac 	lw	v0,6060(s0)
  4033f8:	2464000c 	addiu	a0,v1,12
  4033fc:	24420006 	addiu	v0,v0,6
  403400:	ae0217ac 	sw	v0,6060(s0)
  403404:	2402c00c 	li	v0,-16372
  403408:	a4620000 	sh	v0,0(v1)
  40340c:	24020004 	li	v0,4
  403410:	a462000a 	sh	v0,10(v1)
  403414:	ae0417b0 	sw	a0,6064(s0)
  403418:	a4710004 	sh	s1,4(v1)
  40341c:	a4710002 	sh	s1,2(v1)
  403420:	83a20018 	lb	v0,24(sp)
  403424:	83a40019 	lb	a0,25(sp)
  403428:	83a5001a 	lb	a1,26(sp)
  40342c:	83a6001b 	lb	a2,27(sp)
  403430:	a062000c 	sb	v0,12(v1)
  403434:	a064000d 	sb	a0,13(v1)
  403438:	a065000e 	sb	a1,14(v1)
  40343c:	a066000f 	sb	a2,15(v1)
  403440:	8e0217ac 	lw	v0,6060(s0)
  403444:	00000000 	nop
  403448:	24420004 	addiu	v0,v0,4
  40344c:	10000021 	b	4034d4 <dns_construct_reply+0x180>
  403450:	ae0217ac 	sw	v0,6060(s0)
  403454:	2402000c 	li	v0,12
  403458:	1502001e 	bne	t0,v0,4034d4 <dns_construct_reply+0x180>
  40345c:	02002021 	move	a0,s0
  403460:	8e0217ac 	lw	v0,6060(s0)
  403464:	8e0617b0 	lw	a2,6064(s0)
  403468:	24420006 	addiu	v0,v0,6
  40346c:	ae0217ac 	sw	v0,6060(s0)
  403470:	24022710 	li	v0,10000
  403474:	acc20006 	sw	v0,6(a2)
  403478:	8e0317ac 	lw	v1,6060(s0)
  40347c:	24c7000a 	addiu	a3,a2,10
  403480:	24630004 	addiu	v1,v1,4
  403484:	2402c00c 	li	v0,-16372
  403488:	24c5000c 	addiu	a1,a2,12
  40348c:	ae0317ac 	sw	v1,6060(s0)
  403490:	a4c20000 	sh	v0,0(a2)
  403494:	a4c80002 	sh	t0,2(a2)
  403498:	a4d10004 	sh	s1,4(a2)
  40349c:	ae0717b0 	sw	a3,6064(s0)
  4034a0:	8f990204 	lw	t9,516(gp)
  4034a4:	00000000 	nop
  4034a8:	0320f809 	jalr	t9
  4034ac:	00000000 	nop
  4034b0:	8fbc0010 	lw	gp,16(sp)
  4034b4:	8e0317ac 	lw	v1,6060(s0)
  4034b8:	8e0517b0 	lw	a1,6064(s0)
  4034bc:	24630002 	addiu	v1,v1,2
  4034c0:	00621821 	addu	v1,v1,v0
  4034c4:	24a40002 	addiu	a0,a1,2
  4034c8:	ae0317ac 	sw	v1,6060(s0)
  4034cc:	ae0417b0 	sw	a0,6064(s0)
  4034d0:	a4a20000 	sh	v0,0(a1)
  4034d4:	8fbf002c 	lw	ra,44(sp)
  4034d8:	8fb10024 	lw	s1,36(sp)
  4034dc:	8fb00020 	lw	s0,32(sp)
  4034e0:	03e00008 	jr	ra
  4034e4:	27bd0030 	addiu	sp,sp,48

004034e8 <dns_construct_error_reply>:
  4034e8:	3c1c0001 	lui	gp,0x1
  4034ec:	279cb578 	addiu	gp,gp,-19080
  4034f0:	0399e021 	addu	gp,gp,t9
  4034f4:	27bdffe0 	addiu	sp,sp,-32
  4034f8:	afbc0010 	sw	gp,16(sp)
  4034fc:	afbf001c 	sw	ra,28(sp)
  403500:	afbc0018 	sw	gp,24(sp)
  403504:	8c820120 	lw	v0,288(a0)
  403508:	2403fff0 	li	v1,-16
  40350c:	34428000 	ori	v0,v0,0x8000
  403510:	00431024 	and	v0,v0,v1
  403514:	34420002 	ori	v0,v0,0x2
  403518:	248315ac 	addiu	v1,a0,5548
  40351c:	ac820120 	sw	v0,288(a0)
  403520:	ac8317b0 	sw	v1,6064(a0)
  403524:	8f99036c 	lw	t9,876(gp)
  403528:	00000000 	nop
  40352c:	0320f809 	jalr	t9
  403530:	00000000 	nop
  403534:	8fbc0010 	lw	gp,16(sp)
  403538:	8fbf001c 	lw	ra,28(sp)
  40353c:	00000000 	nop
  403540:	03e00008 	jr	ra
  403544:	27bd0020 	addiu	sp,sp,32
	...

00403550 <dns_read_packet>:
  403550:	3c1c0001 	lui	gp,0x1
  403554:	279cb510 	addiu	gp,gp,-19184
  403558:	0399e021 	addu	gp,gp,t9
  40355c:	27bdffb8 	addiu	sp,sp,-72
  403560:	afbc0018 	sw	gp,24(sp)
  403564:	24020010 	li	v0,16
  403568:	afa20030 	sw	v0,48(sp)
  40356c:	27a20020 	addiu	v0,sp,32
  403570:	afb00038 	sw	s0,56(sp)
  403574:	afa20010 	sw	v0,16(sp)
  403578:	00a08021 	move	s0,a1
  40357c:	27a20030 	addiu	v0,sp,48
  403580:	24a515ac 	addiu	a1,a1,5548
  403584:	24060200 	li	a2,512
  403588:	00003821 	move	a3,zero
  40358c:	afbf0040 	sw	ra,64(sp)
  403590:	afbc003c 	sw	gp,60(sp)
  403594:	afa20014 	sw	v0,20(sp)
  403598:	8f9902c4 	lw	t9,708(gp)
  40359c:	00000000 	nop
  4035a0:	0320f809 	jalr	t9
  4035a4:	00000000 	nop
  4035a8:	8fbc0018 	lw	gp,24(sp)
  4035ac:	2c45000c 	sltiu	a1,v0,12
  4035b0:	8f84000c 	lw	a0,12(gp)
  4035b4:	00000000 	nop
  4035b8:	2484f650 	addiu	a0,a0,-2480
  4035bc:	04410008 	bgez	v0,4035e0 <dns_read_packet+0x90>
  4035c0:	ae0217ac 	sw	v0,6060(s0)
  4035c4:	8f9900d8 	lw	t9,216(gp)
  4035c8:	00000000 	nop
  4035cc:	0320f809 	jalr	t9
  4035d0:	00000000 	nop
  4035d4:	8fbc0018 	lw	gp,24(sp)
  4035d8:	1000001e 	b	403654 <dns_read_packet+0x104>
  4035dc:	2402ffff 	li	v0,-1
  4035e0:	8fa30024 	lw	v1,36(sp)
  4035e4:	97a20022 	lhu	v0,34(sp)
  4035e8:	02002021 	move	a0,s0
  4035ec:	ae0215a8 	sw	v0,5544(s0)
  4035f0:	10a00012 	beqz	a1,40363c <dns_read_packet+0xec>
  4035f4:	ae0315a4 	sw	v1,5540(s0)
  4035f8:	00602021 	move	a0,v1
  4035fc:	8f990154 	lw	t9,340(gp)
  403600:	00000000 	nop
  403604:	0320f809 	jalr	t9
  403608:	00000000 	nop
  40360c:	8fbc0018 	lw	gp,24(sp)
  403610:	00402821 	move	a1,v0
  403614:	8f84000c 	lw	a0,12(gp)
  403618:	00000000 	nop
  40361c:	2484f66c 	addiu	a0,a0,-2452
  403620:	8f9902a0 	lw	t9,672(gp)
  403624:	00000000 	nop
  403628:	0320f809 	jalr	t9
  40362c:	00000000 	nop
  403630:	8fbc0018 	lw	gp,24(sp)
  403634:	10000007 	b	403654 <dns_read_packet+0x104>
  403638:	2402ffff 	li	v0,-1
  40363c:	8f9901d0 	lw	t9,464(gp)
  403640:	00000000 	nop
  403644:	0320f809 	jalr	t9
  403648:	00000000 	nop
  40364c:	8fbc0018 	lw	gp,24(sp)
  403650:	00001021 	move	v0,zero
  403654:	8fbf0040 	lw	ra,64(sp)
  403658:	8fb00038 	lw	s0,56(sp)
  40365c:	03e00008 	jr	ra
  403660:	27bd0048 	addiu	sp,sp,72

00403664 <dns_write_packet>:
  403664:	3c1c0001 	lui	gp,0x1
  403668:	279cb3fc 	addiu	gp,gp,-19460
  40366c:	0399e021 	addu	gp,gp,t9
  403670:	27bdffb0 	addiu	sp,sp,-80
  403674:	afbc0018 	sw	gp,24(sp)
  403678:	afb40040 	sw	s4,64(sp)
  40367c:	27b40020 	addiu	s4,sp,32
  403680:	afb3003c 	sw	s3,60(sp)
  403684:	afb20038 	sw	s2,56(sp)
  403688:	afb10034 	sw	s1,52(sp)
  40368c:	afb00030 	sw	s0,48(sp)
  403690:	00808821 	move	s1,a0
  403694:	00e08021 	move	s0,a3
  403698:	00a09021 	move	s2,a1
  40369c:	00c09821 	move	s3,a2
  4036a0:	02802021 	move	a0,s4
  4036a4:	00002821 	move	a1,zero
  4036a8:	24060010 	li	a2,16
  4036ac:	afbf0048 	sw	ra,72(sp)
  4036b0:	afbc0044 	sw	gp,68(sp)
  4036b4:	8f990164 	lw	t9,356(gp)
  4036b8:	00000000 	nop
  4036bc:	0320f809 	jalr	t9
  4036c0:	00000000 	nop
  4036c4:	8fbc0018 	lw	gp,24(sp)
  4036c8:	8e0617ac 	lw	a2,6060(s0)
  4036cc:	24020002 	li	v0,2
  4036d0:	261015ac 	addiu	s0,s0,5548
  4036d4:	02202021 	move	a0,s1
  4036d8:	02002821 	move	a1,s0
  4036dc:	a7a20020 	sh	v0,32(sp)
  4036e0:	00003821 	move	a3,zero
  4036e4:	24020010 	li	v0,16
  4036e8:	afb20024 	sw	s2,36(sp)
  4036ec:	a7b30022 	sh	s3,34(sp)
  4036f0:	afb40010 	sw	s4,16(sp)
  4036f4:	afa20014 	sw	v0,20(sp)
  4036f8:	8f9901b0 	lw	t9,432(gp)
  4036fc:	00000000 	nop
  403700:	0320f809 	jalr	t9
  403704:	00000000 	nop
  403708:	8fbc0018 	lw	gp,24(sp)
  40370c:	00000000 	nop
  403710:	8f84000c 	lw	a0,12(gp)
  403714:	00000000 	nop
  403718:	2484f6a8 	addiu	a0,a0,-2392
  40371c:	04410006 	bgez	v0,403738 <dns_write_packet+0xd4>
  403720:	00408021 	move	s0,v0
  403724:	8f9900d8 	lw	t9,216(gp)
  403728:	00000000 	nop
  40372c:	0320f809 	jalr	t9
  403730:	00000000 	nop
  403734:	8fbc0018 	lw	gp,24(sp)
  403738:	02001021 	move	v0,s0
  40373c:	8fbf0048 	lw	ra,72(sp)
  403740:	8fb40040 	lw	s4,64(sp)
  403744:	8fb3003c 	lw	s3,60(sp)
  403748:	8fb20038 	lw	s2,56(sp)
  40374c:	8fb10034 	lw	s1,52(sp)
  403750:	8fb00030 	lw	s0,48(sp)
  403754:	03e00008 	jr	ra
  403758:	27bd0050 	addiu	sp,sp,80
  40375c:	00000000 	nop

00403760 <__uClibc_empty_func>:
  403760:	3c1c0001 	lui	gp,0x1
  403764:	279cb300 	addiu	gp,gp,-19712
  403768:	0399e021 	addu	gp,gp,t9
  40376c:	03e00008 	jr	ra
  403770:	00000000 	nop

00403774 <__uClibc_init>:
  403774:	3c1c0001 	lui	gp,0x1
  403778:	279cb2ec 	addiu	gp,gp,-19732
  40377c:	0399e021 	addu	gp,gp,t9
  403780:	27bdffe0 	addiu	sp,sp,-32
  403784:	afbc0010 	sw	gp,16(sp)
  403788:	8f82000c 	lw	v0,12(gp)
  40378c:	00000000 	nop
  403790:	24421e18 	addiu	v0,v0,7704
  403794:	8c420000 	lw	v0,0(v0)
  403798:	afbf001c 	sw	ra,28(sp)
  40379c:	14400017 	bnez	v0,4037fc <__uClibc_init+0x88>
  4037a0:	afbc0018 	sw	gp,24(sp)
  4037a4:	24020001 	li	v0,1
  4037a8:	8f81000c 	lw	at,12(gp)
  4037ac:	00000000 	nop
  4037b0:	24211e18 	addiu	at,at,7704
  4037b4:	ac220000 	sw	v0,0(at)
  4037b8:	8f8201f0 	lw	v0,496(gp)
  4037bc:	00000000 	nop
  4037c0:	10400006 	beqz	v0,4037dc <__uClibc_init+0x68>
  4037c4:	00000000 	nop
  4037c8:	0040c821 	move	t9,v0
  4037cc:	0320f809 	jalr	t9
  4037d0:	00000000 	nop
  4037d4:	8fbc0010 	lw	gp,16(sp)
  4037d8:	00000000 	nop
  4037dc:	8f8200b0 	lw	v0,176(gp)
  4037e0:	00000000 	nop
  4037e4:	10400005 	beqz	v0,4037fc <__uClibc_init+0x88>
  4037e8:	00000000 	nop
  4037ec:	0040c821 	move	t9,v0
  4037f0:	0320f809 	jalr	t9
  4037f4:	00000000 	nop
  4037f8:	8fbc0010 	lw	gp,16(sp)
  4037fc:	8fbf001c 	lw	ra,28(sp)
  403800:	00000000 	nop
  403804:	03e00008 	jr	ra
  403808:	27bd0020 	addiu	sp,sp,32

0040380c <__uClibc_start_main>:
  40380c:	3c1c0001 	lui	gp,0x1
  403810:	279cb254 	addiu	gp,gp,-19884
  403814:	0399e021 	addu	gp,gp,t9
  403818:	27bdffd0 	addiu	sp,sp,-48
  40381c:	afbc0010 	sw	gp,16(sp)
  403820:	8f820288 	lw	v0,648(gp)
  403824:	00000000 	nop
  403828:	8c420000 	lw	v0,0(v0)
  40382c:	afb20020 	sw	s2,32(sp)
  403830:	afb1001c 	sw	s1,28(sp)
  403834:	afb00018 	sw	s0,24(sp)
  403838:	afbf0028 	sw	ra,40(sp)
  40383c:	afbc0024 	sw	gp,36(sp)
  403840:	00809021 	move	s2,a0
  403844:	00a08021 	move	s0,a1
  403848:	14400004 	bnez	v0,40385c <__uClibc_start_main+0x50>
  40384c:	00c08821 	move	s1,a2
  403850:	8f810288 	lw	at,648(gp)
  403854:	00000000 	nop
  403858:	ac260000 	sw	a2,0(at)
  40385c:	8f990190 	lw	t9,400(gp)
  403860:	00000000 	nop
  403864:	0320f809 	jalr	t9
  403868:	00000000 	nop
  40386c:	8fbc0010 	lw	gp,16(sp)
  403870:	8e020000 	lw	v0,0(s0)
  403874:	8f8101e0 	lw	at,480(gp)
  403878:	00000000 	nop
  40387c:	ac220000 	sw	v0,0(at)
  403880:	8f8200bc 	lw	v0,188(gp)
  403884:	00000000 	nop
  403888:	10400006 	beqz	v0,4038a4 <__uClibc_start_main+0x98>
  40388c:	00000000 	nop
  403890:	0040c821 	move	t9,v0
  403894:	0320f809 	jalr	t9
  403898:	00000000 	nop
  40389c:	8fbc0010 	lw	gp,16(sp)
  4038a0:	ac400000 	sw	zero,0(v0)
  4038a4:	8f82012c 	lw	v0,300(gp)
  4038a8:	00000000 	nop
  4038ac:	10400007 	beqz	v0,4038cc <__uClibc_start_main+0xc0>
  4038b0:	02402021 	move	a0,s2
  4038b4:	0040c821 	move	t9,v0
  4038b8:	0320f809 	jalr	t9
  4038bc:	00000000 	nop
  4038c0:	8fbc0010 	lw	gp,16(sp)
  4038c4:	ac400000 	sw	zero,0(v0)
  4038c8:	02402021 	move	a0,s2
  4038cc:	02002821 	move	a1,s0
  4038d0:	02203021 	move	a2,s1
  4038d4:	8f990160 	lw	t9,352(gp)
  4038d8:	00000000 	nop
  4038dc:	0320f809 	jalr	t9
  4038e0:	00000000 	nop
  4038e4:	8fbc0010 	lw	gp,16(sp)
  4038e8:	00402021 	move	a0,v0
  4038ec:	8f9900b4 	lw	t9,180(gp)
  4038f0:	00000000 	nop
  4038f4:	0320f809 	jalr	t9
  4038f8:	00000000 	nop
  4038fc:	8fbc0010 	lw	gp,16(sp)
  403900:	00000000 	nop

00403904 <__uClibc_main>:
  403904:	3c1c0001 	lui	gp,0x1
  403908:	279cb15c 	addiu	gp,gp,-20132
  40390c:	0399e021 	addu	gp,gp,t9
  403910:	27bdffd8 	addiu	sp,sp,-40
  403914:	afbc0018 	sw	gp,24(sp)
  403918:	00003821 	move	a3,zero
  40391c:	afbf0024 	sw	ra,36(sp)
  403920:	afbc0020 	sw	gp,32(sp)
  403924:	afa00010 	sw	zero,16(sp)
  403928:	8f990078 	lw	t9,120(gp)
  40392c:	00000000 	nop
  403930:	0320f809 	jalr	t9
  403934:	00000000 	nop
  403938:	8fbc0018 	lw	gp,24(sp)
  40393c:	00000000 	nop

00403940 <__errno_location>:
  403940:	3c1c0001 	lui	gp,0x1
  403944:	279cb120 	addiu	gp,gp,-20192
  403948:	0399e021 	addu	gp,gp,t9
  40394c:	8f820318 	lw	v0,792(gp)
  403950:	03e00008 	jr	ra
  403954:	00000000 	nop
	...

00403960 <__h_errno_location>:
  403960:	3c1c0001 	lui	gp,0x1
  403964:	279cb100 	addiu	gp,gp,-20224
  403968:	0399e021 	addu	gp,gp,t9
  40396c:	8f820238 	lw	v0,568(gp)
  403970:	03e00008 	jr	ra
  403974:	00000000 	nop
	...
  403980:	3c1c0001 	lui	gp,0x1
  403984:	279cb0e0 	addiu	gp,gp,-20256
  403988:	0399e021 	addu	gp,gp,t9
  40398c:	27bdffd8 	addiu	sp,sp,-40
  403990:	afbc0010 	sw	gp,16(sp)
  403994:	afb1001c 	sw	s1,28(sp)
  403998:	00808821 	move	s1,a0
  40399c:	8f84000c 	lw	a0,12(gp)
  4039a0:	00000000 	nop
  4039a4:	24841a90 	addiu	a0,a0,6800
  4039a8:	afb00018 	sw	s0,24(sp)
  4039ac:	afbf0024 	sw	ra,36(sp)
  4039b0:	afbc0020 	sw	gp,32(sp)
  4039b4:	8f990344 	lw	t9,836(gp)
  4039b8:	00000000 	nop
  4039bc:	0320f809 	jalr	t9
  4039c0:	00000000 	nop
  4039c4:	8fbc0010 	lw	gp,16(sp)
  4039c8:	00000000 	nop
  4039cc:	8f82000c 	lw	v0,12(gp)
  4039d0:	00000000 	nop
  4039d4:	24421aa8 	addiu	v0,v0,6824
  4039d8:	8c420000 	lw	v0,0(v0)
  4039dc:	2410ffff 	li	s0,-1
  4039e0:	10500007 	beq	v0,s0,403a00 <__h_errno_location+0xa0>
  4039e4:	00402021 	move	a0,v0
  4039e8:	8f990038 	lw	t9,56(gp)
  4039ec:	00000000 	nop
  4039f0:	0320f809 	jalr	t9
  4039f4:	00000000 	nop
  4039f8:	8fbc0010 	lw	gp,16(sp)
  4039fc:	00000000 	nop
  403a00:	8f84000c 	lw	a0,12(gp)
  403a04:	00000000 	nop
  403a08:	24841a90 	addiu	a0,a0,6800
  403a0c:	8f81000c 	lw	at,12(gp)
  403a10:	00000000 	nop
  403a14:	24211aa8 	addiu	at,at,6824
  403a18:	ac300000 	sw	s0,0(at)
  403a1c:	8f81000c 	lw	at,12(gp)
  403a20:	00000000 	nop
  403a24:	24211e24 	addiu	at,at,7716
  403a28:	12200016 	beqz	s1,403a84 <__h_errno_location+0x124>
  403a2c:	ac200000 	sw	zero,0(at)
  403a30:	8f82000c 	lw	v0,12(gp)
  403a34:	00000000 	nop
  403a38:	2442f9d0 	addiu	v0,v0,-1584
  403a3c:	8f81000c 	lw	at,12(gp)
  403a40:	00000000 	nop
  403a44:	24211aac 	addiu	at,at,6828
  403a48:	ac220000 	sw	v0,0(at)
  403a4c:	24020008 	li	v0,8
  403a50:	8f81000c 	lw	at,12(gp)
  403a54:	00000000 	nop
  403a58:	24211ab0 	addiu	at,at,6832
  403a5c:	ac220000 	sw	v0,0(at)
  403a60:	240200ff 	li	v0,255
  403a64:	8f81000c 	lw	at,12(gp)
  403a68:	00000000 	nop
  403a6c:	24211ab4 	addiu	at,at,6836
  403a70:	ac220000 	sw	v0,0(at)
  403a74:	8f81000c 	lw	at,12(gp)
  403a78:	00000000 	nop
  403a7c:	24211e20 	addiu	at,at,7712
  403a80:	ac200000 	sw	zero,0(at)
  403a84:	8f990234 	lw	t9,564(gp)
  403a88:	00000000 	nop
  403a8c:	0320f809 	jalr	t9
  403a90:	00000000 	nop
  403a94:	8fbc0010 	lw	gp,16(sp)
  403a98:	8fbf0024 	lw	ra,36(sp)
  403a9c:	8fb1001c 	lw	s1,28(sp)
  403aa0:	8fb00018 	lw	s0,24(sp)
  403aa4:	03e00008 	jr	ra
  403aa8:	27bd0028 	addiu	sp,sp,40
  403aac:	3c1c0001 	lui	gp,0x1
  403ab0:	279cafb4 	addiu	gp,gp,-20556
  403ab4:	0399e021 	addu	gp,gp,t9
  403ab8:	27bdffe0 	addiu	sp,sp,-32
  403abc:	afbc0010 	sw	gp,16(sp)
  403ac0:	00002021 	move	a0,zero
  403ac4:	afbf001c 	sw	ra,28(sp)
  403ac8:	afbc0018 	sw	gp,24(sp)
  403acc:	8f990008 	lw	t9,8(gp)
  403ad0:	00000000 	nop
  403ad4:	27393980 	addiu	t9,t9,14720
  403ad8:	00000000 	nop
  403adc:	0320f809 	jalr	t9
  403ae0:	00000000 	nop
  403ae4:	8fbc0010 	lw	gp,16(sp)
  403ae8:	8fbf001c 	lw	ra,28(sp)
  403aec:	00000000 	nop
  403af0:	03e00008 	jr	ra
  403af4:	27bd0020 	addiu	sp,sp,32

00403af8 <syslog>:
  403af8:	3c1c0001 	lui	gp,0x1
  403afc:	279caf68 	addiu	gp,gp,-20632
  403b00:	0399e021 	addu	gp,gp,t9
  403b04:	27bdffe0 	addiu	sp,sp,-32
  403b08:	afbc0010 	sw	gp,16(sp)
  403b0c:	afa60028 	sw	a2,40(sp)
  403b10:	27a60028 	addiu	a2,sp,40
  403b14:	afbf001c 	sw	ra,28(sp)
  403b18:	afa7002c 	sw	a3,44(sp)
  403b1c:	afbc0018 	sw	gp,24(sp)
  403b20:	8f990090 	lw	t9,144(gp)
  403b24:	00000000 	nop
  403b28:	0320f809 	jalr	t9
  403b2c:	00000000 	nop
  403b30:	8fbc0010 	lw	gp,16(sp)
  403b34:	8fbf001c 	lw	ra,28(sp)
  403b38:	00000000 	nop
  403b3c:	03e00008 	jr	ra
  403b40:	27bd0020 	addiu	sp,sp,32

00403b44 <vsyslog>:
  403b44:	3c1c0001 	lui	gp,0x1
  403b48:	279caf1c 	addiu	gp,gp,-20708
  403b4c:	0399e021 	addu	gp,gp,t9
  403b50:	27bdfaa0 	addiu	sp,sp,-1376
  403b54:	afbc0010 	sw	gp,16(sp)
  403b58:	afb00530 	sw	s0,1328(sp)
  403b5c:	27b00418 	addiu	s0,sp,1048
  403b60:	afbe0554 	sw	s8,1364(sp)
  403b64:	afb7054c 	sw	s7,1356(sp)
  403b68:	afb10534 	sw	s1,1332(sp)
  403b6c:	00a0b821 	move	s7,a1
  403b70:	00808821 	move	s1,a0
  403b74:	00002821 	move	a1,zero
  403b78:	02002021 	move	a0,s0
  403b7c:	00c0f021 	move	s8,a2
  403b80:	24060088 	li	a2,136
  403b84:	afbf0558 	sw	ra,1368(sp)
  403b88:	afb60548 	sw	s6,1352(sp)
  403b8c:	afb40540 	sw	s4,1344(sp)
  403b90:	afbc0550 	sw	gp,1360(sp)
  403b94:	afb50544 	sw	s5,1348(sp)
  403b98:	afb3053c 	sw	s3,1340(sp)
  403b9c:	afb20538 	sw	s2,1336(sp)
  403ba0:	8f990164 	lw	t9,356(gp)
  403ba4:	00000000 	nop
  403ba8:	0320f809 	jalr	t9
  403bac:	00000000 	nop
  403bb0:	8fbc0010 	lw	gp,16(sp)
  403bb4:	27a204a0 	addiu	v0,sp,1184
  403bb8:	27a40420 	addiu	a0,sp,1056
  403bbc:	afa2052c 	sw	v0,1324(sp)
  403bc0:	8f820008 	lw	v0,8(gp)
  403bc4:	00000000 	nop
  403bc8:	24423aac 	addiu	v0,v0,15020
  403bcc:	00000000 	nop
  403bd0:	afa2041c 	sw	v0,1052(sp)
  403bd4:	8f990348 	lw	t9,840(gp)
  403bd8:	00000000 	nop
  403bdc:	0320f809 	jalr	t9
  403be0:	00000000 	nop
  403be4:	8fbc0010 	lw	gp,16(sp)
  403be8:	8fa6052c 	lw	a2,1324(sp)
  403bec:	02002821 	move	a1,s0
  403bf0:	2404000d 	li	a0,13
  403bf4:	8f990194 	lw	t9,404(gp)
  403bf8:	00000000 	nop
  403bfc:	0320f809 	jalr	t9
  403c00:	00000000 	nop
  403c04:	8fbc0010 	lw	gp,16(sp)
  403c08:	0040b021 	move	s6,v0
  403c0c:	8f9900bc 	lw	t9,188(gp)
  403c10:	00000000 	nop
  403c14:	0320f809 	jalr	t9
  403c18:	00000000 	nop
  403c1c:	8fbc0010 	lw	gp,16(sp)
  403c20:	00000000 	nop
  403c24:	8f84000c 	lw	a0,12(gp)
  403c28:	00000000 	nop
  403c2c:	24841a90 	addiu	a0,a0,6800
  403c30:	8c540000 	lw	s4,0(v0)
  403c34:	8f990344 	lw	t9,836(gp)
  403c38:	00000000 	nop
  403c3c:	0320f809 	jalr	t9
  403c40:	00000000 	nop
  403c44:	8fbc0010 	lw	gp,16(sp)
  403c48:	00000000 	nop
  403c4c:	8f82000c 	lw	v0,12(gp)
  403c50:	00000000 	nop
  403c54:	24421ab4 	addiu	v0,v0,6836
  403c58:	8c420000 	lw	v0,0(v0)
  403c5c:	32230007 	andi	v1,s1,0x7
  403c60:	00621007 	srav	v0,v0,v1
  403c64:	30420001 	andi	v0,v0,0x1
  403c68:	10400123 	beqz	v0,4040f8 <vsyslog+0x5b4>
  403c6c:	2402fc00 	li	v0,-1024
  403c70:	02221024 	and	v0,s1,v0
  403c74:	14400120 	bnez	v0,4040f8 <vsyslog+0x5b4>
  403c78:	00000000 	nop
  403c7c:	8f82000c 	lw	v0,12(gp)
  403c80:	00000000 	nop
  403c84:	24421aa8 	addiu	v0,v0,6824
  403c88:	8c420000 	lw	v0,0(v0)
  403c8c:	00000000 	nop
  403c90:	04400008 	bltz	v0,403cb4 <vsyslog+0x170>
  403c94:	00000000 	nop
  403c98:	8f82000c 	lw	v0,12(gp)
  403c9c:	00000000 	nop
  403ca0:	24421e24 	addiu	v0,v0,7716
  403ca4:	8c420000 	lw	v0,0(v0)
  403ca8:	00000000 	nop
  403cac:	14400011 	bnez	v0,403cf4 <vsyslog+0x1b0>
  403cb0:	322203f8 	andi	v0,s1,0x3f8
  403cb4:	8f85000c 	lw	a1,12(gp)
  403cb8:	00000000 	nop
  403cbc:	24a51e20 	addiu	a1,a1,7712
  403cc0:	8ca50000 	lw	a1,0(a1)
  403cc4:	8f84000c 	lw	a0,12(gp)
  403cc8:	00000000 	nop
  403ccc:	24841aac 	addiu	a0,a0,6828
  403cd0:	8c840000 	lw	a0,0(a0)
  403cd4:	34a50008 	ori	a1,a1,0x8
  403cd8:	00003021 	move	a2,zero
  403cdc:	8f9901cc 	lw	t9,460(gp)
  403ce0:	00000000 	nop
  403ce4:	0320f809 	jalr	t9
  403ce8:	00000000 	nop
  403cec:	8fbc0010 	lw	gp,16(sp)
  403cf0:	322203f8 	andi	v0,s1,0x3f8
  403cf4:	14400007 	bnez	v0,403d14 <vsyslog+0x1d0>
  403cf8:	27a40528 	addiu	a0,sp,1320
  403cfc:	8f82000c 	lw	v0,12(gp)
  403d00:	00000000 	nop
  403d04:	24421ab0 	addiu	v0,v0,6832
  403d08:	8c420000 	lw	v0,0(v0)
  403d0c:	00000000 	nop
  403d10:	02228825 	or	s1,s1,v0
  403d14:	8f990148 	lw	t9,328(gp)
  403d18:	00000000 	nop
  403d1c:	0320f809 	jalr	t9
  403d20:	00000000 	nop
  403d24:	8fbc0010 	lw	gp,16(sp)
  403d28:	27a40528 	addiu	a0,sp,1320
  403d2c:	8f990218 	lw	t9,536(gp)
  403d30:	00000000 	nop
  403d34:	0320f809 	jalr	t9
  403d38:	00000000 	nop
  403d3c:	8fbc0010 	lw	gp,16(sp)
  403d40:	24420004 	addiu	v0,v0,4
  403d44:	02203021 	move	a2,s1
  403d48:	00403821 	move	a3,v0
  403d4c:	27a40018 	addiu	a0,sp,24
  403d50:	8f85000c 	lw	a1,12(gp)
  403d54:	00000000 	nop
  403d58:	24a5f9e4 	addiu	a1,a1,-1564
  403d5c:	8f99011c 	lw	t9,284(gp)
  403d60:	00000000 	nop
  403d64:	0320f809 	jalr	t9
  403d68:	00000000 	nop
  403d6c:	8fbc0010 	lw	gp,16(sp)
  403d70:	27b50018 	addiu	s5,sp,24
  403d74:	8f91000c 	lw	s1,12(gp)
  403d78:	00000000 	nop
  403d7c:	26311aac 	addiu	s1,s1,6828
  403d80:	8e310000 	lw	s1,0(s1)
  403d84:	02a28021 	addu	s0,s5,v0
  403d88:	1220001e 	beqz	s1,403e04 <vsyslog+0x2c0>
  403d8c:	02009821 	move	s3,s0
  403d90:	02202021 	move	a0,s1
  403d94:	8f99007c 	lw	t9,124(gp)
  403d98:	00000000 	nop
  403d9c:	0320f809 	jalr	t9
  403da0:	00000000 	nop
  403da4:	8fbc0010 	lw	gp,16(sp)
  403da8:	2c4203c0 	sltiu	v0,v0,960
  403dac:	1040000c 	beqz	v0,403de0 <vsyslog+0x29c>
  403db0:	02002021 	move	a0,s0
  403db4:	02203021 	move	a2,s1
  403db8:	8f85000c 	lw	a1,12(gp)
  403dbc:	00000000 	nop
  403dc0:	24a5f9f0 	addiu	a1,a1,-1552
  403dc4:	8f99011c 	lw	t9,284(gp)
  403dc8:	00000000 	nop
  403dcc:	0320f809 	jalr	t9
  403dd0:	00000000 	nop
  403dd4:	8fbc0010 	lw	gp,16(sp)
  403dd8:	1000000a 	b	403e04 <vsyslog+0x2c0>
  403ddc:	02028021 	addu	s0,s0,v0
  403de0:	8f85000c 	lw	a1,12(gp)
  403de4:	00000000 	nop
  403de8:	24a5f9f4 	addiu	a1,a1,-1548
  403dec:	8f99011c 	lw	t9,284(gp)
  403df0:	00000000 	nop
  403df4:	0320f809 	jalr	t9
  403df8:	00000000 	nop
  403dfc:	8fbc0010 	lw	gp,16(sp)
  403e00:	02028021 	addu	s0,s0,v0
  403e04:	8f82000c 	lw	v0,12(gp)
  403e08:	00000000 	nop
  403e0c:	24421e20 	addiu	v0,v0,7712
  403e10:	8c420000 	lw	v0,0(v0)
  403e14:	00000000 	nop
  403e18:	30420001 	andi	v0,v0,0x1
  403e1c:	10400011 	beqz	v0,403e64 <vsyslog+0x320>
  403e20:	00000000 	nop
  403e24:	8f990310 	lw	t9,784(gp)
  403e28:	00000000 	nop
  403e2c:	0320f809 	jalr	t9
  403e30:	00000000 	nop
  403e34:	8fbc0010 	lw	gp,16(sp)
  403e38:	00403021 	move	a2,v0
  403e3c:	02002021 	move	a0,s0
  403e40:	8f85000c 	lw	a1,12(gp)
  403e44:	00000000 	nop
  403e48:	24a5fa10 	addiu	a1,a1,-1520
  403e4c:	8f99011c 	lw	t9,284(gp)
  403e50:	00000000 	nop
  403e54:	0320f809 	jalr	t9
  403e58:	00000000 	nop
  403e5c:	8fbc0010 	lw	gp,16(sp)
  403e60:	02028021 	addu	s0,s0,v0
  403e64:	8f82000c 	lw	v0,12(gp)
  403e68:	00000000 	nop
  403e6c:	24421aac 	addiu	v0,v0,6828
  403e70:	8c420000 	lw	v0,0(v0)
  403e74:	00000000 	nop
  403e78:	10400006 	beqz	v0,403e94 <vsyslog+0x350>
  403e7c:	2402003a 	li	v0,58
  403e80:	a2020000 	sb	v0,0(s0)
  403e84:	26100001 	addiu	s0,s0,1
  403e88:	24020020 	li	v0,32
  403e8c:	a2020000 	sb	v0,0(s0)
  403e90:	26100001 	addiu	s0,s0,1
  403e94:	8f9900bc 	lw	t9,188(gp)
  403e98:	00000000 	nop
  403e9c:	0320f809 	jalr	t9
  403ea0:	00000000 	nop
  403ea4:	8fbc0010 	lw	gp,16(sp)
  403ea8:	27b20417 	addiu	s2,sp,1047
  403eac:	02502823 	subu	a1,s2,s0
  403eb0:	02002021 	move	a0,s0
  403eb4:	ac540000 	sw	s4,0(v0)
  403eb8:	02e03021 	move	a2,s7
  403ebc:	03c03821 	move	a3,s8
  403ec0:	8f9902c8 	lw	t9,712(gp)
  403ec4:	00000000 	nop
  403ec8:	0320f809 	jalr	t9
  403ecc:	00000000 	nop
  403ed0:	8fbc0010 	lw	gp,16(sp)
  403ed4:	02008821 	move	s1,s0
  403ed8:	02028021 	addu	s0,s0,v0
  403edc:	0212102b 	sltu	v0,s0,s2
  403ee0:	10400003 	beqz	v0,403ef0 <vsyslog+0x3ac>
  403ee4:	0211102b 	sltu	v0,s0,s1
  403ee8:	10400015 	beqz	v0,403f40 <vsyslog+0x3fc>
  403eec:	00000000 	nop
  403ef0:	02513023 	subu	a2,s2,s1
  403ef4:	24c6fff4 	addiu	a2,a2,-12
  403ef8:	2624000c 	addiu	a0,s1,12
  403efc:	02202821 	move	a1,s1
  403f00:	8f99033c 	lw	t9,828(gp)
  403f04:	00000000 	nop
  403f08:	0320f809 	jalr	t9
  403f0c:	00000000 	nop
  403f10:	8fbc0010 	lw	gp,16(sp)
  403f14:	02202021 	move	a0,s1
  403f18:	8f85000c 	lw	a1,12(gp)
  403f1c:	00000000 	nop
  403f20:	24a5f9d8 	addiu	a1,a1,-1576
  403f24:	2406000c 	li	a2,12
  403f28:	8f9902fc 	lw	t9,764(gp)
  403f2c:	00000000 	nop
  403f30:	0320f809 	jalr	t9
  403f34:	00000000 	nop
  403f38:	8fbc0010 	lw	gp,16(sp)
  403f3c:	27b00416 	addiu	s0,sp,1046
  403f40:	8f82000c 	lw	v0,12(gp)
  403f44:	00000000 	nop
  403f48:	24421e20 	addiu	v0,v0,7712
  403f4c:	8c420000 	lw	v0,0(v0)
  403f50:	00000000 	nop
  403f54:	30420020 	andi	v0,v0,0x20
  403f58:	1040000c 	beqz	v0,403f8c <vsyslog+0x448>
  403f5c:	02009021 	move	s2,s0
  403f60:	02133023 	subu	a2,s0,s3
  403f64:	2402000a 	li	v0,10
  403f68:	24c60001 	addiu	a2,a2,1
  403f6c:	a2020000 	sb	v0,0(s0)
  403f70:	02602821 	move	a1,s3
  403f74:	24040002 	li	a0,2
  403f78:	8f990228 	lw	t9,552(gp)
  403f7c:	00000000 	nop
  403f80:	0320f809 	jalr	t9
  403f84:	00000000 	nop
  403f88:	8fbc0010 	lw	gp,16(sp)
  403f8c:	02a08021 	move	s0,s5
  403f90:	a2400000 	sb	zero,0(s2)
  403f94:	02503023 	subu	a2,s2,s0
  403f98:	8f84000c 	lw	a0,12(gp)
  403f9c:	00000000 	nop
  403fa0:	24841aa8 	addiu	a0,a0,6824
  403fa4:	8c840000 	lw	a0,0(a0)
  403fa8:	24c60001 	addiu	a2,a2,1
  403fac:	02002821 	move	a1,s0
  403fb0:	8f990228 	lw	t9,552(gp)
  403fb4:	00000000 	nop
  403fb8:	0320f809 	jalr	t9
  403fbc:	00000000 	nop
  403fc0:	8fbc0010 	lw	gp,16(sp)
  403fc4:	04410017 	bgez	v0,404024 <vsyslog+0x4e0>
  403fc8:	00408821 	move	s1,v0
  403fcc:	8f9900bc 	lw	t9,188(gp)
  403fd0:	00000000 	nop
  403fd4:	0320f809 	jalr	t9
  403fd8:	00000000 	nop
  403fdc:	8fbc0010 	lw	gp,16(sp)
  403fe0:	8c430000 	lw	v1,0(v0)
  403fe4:	2402000b 	li	v0,11
  403fe8:	10620003 	beq	v1,v0,403ff8 <vsyslog+0x4b4>
  403fec:	24020004 	li	v0,4
  403ff0:	14620003 	bne	v1,v0,404000 <vsyslog+0x4bc>
  403ff4:	00002021 	move	a0,zero
  403ff8:	1000000a 	b	404024 <vsyslog+0x4e0>
  403ffc:	00008821 	move	s1,zero
  404000:	8f990008 	lw	t9,8(gp)
  404004:	00000000 	nop
  404008:	27393980 	addiu	t9,t9,14720
  40400c:	00000000 	nop
  404010:	0320f809 	jalr	t9
  404014:	00000000 	nop
  404018:	8fbc0010 	lw	gp,16(sp)
  40401c:	10000005 	b	404034 <vsyslog+0x4f0>
  404020:	00000000 	nop
  404024:	02118021 	addu	s0,s0,s1
  404028:	0250102b 	sltu	v0,s2,s0
  40402c:	1040ffda 	beqz	v0,403f98 <vsyslog+0x454>
  404030:	02503023 	subu	a2,s2,s0
  404034:	06210030 	bgez	s1,4040f8 <vsyslog+0x5b4>
  404038:	00000000 	nop
  40403c:	8f82000c 	lw	v0,12(gp)
  404040:	00000000 	nop
  404044:	24421e20 	addiu	v0,v0,7712
  404048:	8c420000 	lw	v0,0(v0)
  40404c:	00000000 	nop
  404050:	30420002 	andi	v0,v0,0x2
  404054:	10400028 	beqz	v0,4040f8 <vsyslog+0x5b4>
  404058:	24050001 	li	a1,1
  40405c:	8f84000c 	lw	a0,12(gp)
  404060:	00000000 	nop
  404064:	2484fa18 	addiu	a0,a0,-1512
  404068:	00003021 	move	a2,zero
  40406c:	8f990070 	lw	t9,112(gp)
  404070:	00000000 	nop
  404074:	0320f809 	jalr	t9
  404078:	00000000 	nop
  40407c:	8fbc0010 	lw	gp,16(sp)
  404080:	0440001d 	bltz	v0,4040f8 <vsyslog+0x5b4>
  404084:	00408821 	move	s1,v0
  404088:	27a40018 	addiu	a0,sp,24
  40408c:	2405003e 	li	a1,62
  404090:	8f990180 	lw	t9,384(gp)
  404094:	00000000 	nop
  404098:	0320f809 	jalr	t9
  40409c:	00000000 	nop
  4040a0:	8fbc0010 	lw	gp,16(sp)
  4040a4:	24500001 	addiu	s0,v0,1
  4040a8:	2402000d 	li	v0,13
  4040ac:	a2420000 	sb	v0,0(s2)
  4040b0:	02503023 	subu	a2,s2,s0
  4040b4:	2402000a 	li	v0,10
  4040b8:	02202021 	move	a0,s1
  4040bc:	24c60002 	addiu	a2,a2,2
  4040c0:	a2420001 	sb	v0,1(s2)
  4040c4:	02002821 	move	a1,s0
  4040c8:	8f990228 	lw	t9,552(gp)
  4040cc:	00000000 	nop
  4040d0:	0320f809 	jalr	t9
  4040d4:	00000000 	nop
  4040d8:	8fbc0010 	lw	gp,16(sp)
  4040dc:	02202021 	move	a0,s1
  4040e0:	8f990038 	lw	t9,56(gp)
  4040e4:	00000000 	nop
  4040e8:	0320f809 	jalr	t9
  4040ec:	00000000 	nop
  4040f0:	8fbc0010 	lw	gp,16(sp)
  4040f4:	00000000 	nop
  4040f8:	8f84000c 	lw	a0,12(gp)
  4040fc:	00000000 	nop
  404100:	24841a90 	addiu	a0,a0,6800
  404104:	8f990234 	lw	t9,564(gp)
  404108:	00000000 	nop
  40410c:	0320f809 	jalr	t9
  404110:	00000000 	nop
  404114:	8fbc0010 	lw	gp,16(sp)
  404118:	16c00008 	bnez	s6,40413c <vsyslog+0x5f8>
  40411c:	2404000d 	li	a0,13
  404120:	8fa5052c 	lw	a1,1324(sp)
  404124:	00003021 	move	a2,zero
  404128:	8f990194 	lw	t9,404(gp)
  40412c:	00000000 	nop
  404130:	0320f809 	jalr	t9
  404134:	00000000 	nop
  404138:	8fbc0010 	lw	gp,16(sp)
  40413c:	8fbf0558 	lw	ra,1368(sp)
  404140:	8fbe0554 	lw	s8,1364(sp)
  404144:	8fb7054c 	lw	s7,1356(sp)
  404148:	8fb60548 	lw	s6,1352(sp)
  40414c:	8fb50544 	lw	s5,1348(sp)
  404150:	8fb40540 	lw	s4,1344(sp)
  404154:	8fb3053c 	lw	s3,1340(sp)
  404158:	8fb20538 	lw	s2,1336(sp)
  40415c:	8fb10534 	lw	s1,1332(sp)
  404160:	8fb00530 	lw	s0,1328(sp)
  404164:	03e00008 	jr	ra
  404168:	27bd0560 	addiu	sp,sp,1376

0040416c <openlog>:
  40416c:	3c1c0001 	lui	gp,0x1
  404170:	279ca8f4 	addiu	gp,gp,-22284
  404174:	0399e021 	addu	gp,gp,t9
  404178:	27bdffc8 	addiu	sp,sp,-56
  40417c:	afbc0010 	sw	gp,16(sp)
  404180:	afb10024 	sw	s1,36(sp)
  404184:	00808821 	move	s1,a0
  404188:	8f84000c 	lw	a0,12(gp)
  40418c:	00000000 	nop
  404190:	24841a90 	addiu	a0,a0,6800
  404194:	afb3002c 	sw	s3,44(sp)
  404198:	afb20028 	sw	s2,40(sp)
  40419c:	afb00020 	sw	s0,32(sp)
  4041a0:	afbf0034 	sw	ra,52(sp)
  4041a4:	afbc0030 	sw	gp,48(sp)
  4041a8:	00a09021 	move	s2,a1
  4041ac:	00c08021 	move	s0,a2
  4041b0:	8f990344 	lw	t9,836(gp)
  4041b4:	00000000 	nop
  4041b8:	0320f809 	jalr	t9
  4041bc:	00000000 	nop
  4041c0:	8fbc0010 	lw	gp,16(sp)
  4041c4:	12200005 	beqz	s1,4041dc <openlog+0x70>
  4041c8:	24130001 	li	s3,1
  4041cc:	8f81000c 	lw	at,12(gp)
  4041d0:	00000000 	nop
  4041d4:	24211aac 	addiu	at,at,6828
  4041d8:	ac310000 	sw	s1,0(at)
  4041dc:	8f81000c 	lw	at,12(gp)
  4041e0:	00000000 	nop
  4041e4:	24211e20 	addiu	at,at,7712
  4041e8:	ac320000 	sw	s2,0(at)
  4041ec:	12000008 	beqz	s0,404210 <openlog+0xa4>
  4041f0:	2402fc07 	li	v0,-1017
  4041f4:	02021024 	and	v0,s0,v0
  4041f8:	14400005 	bnez	v0,404210 <openlog+0xa4>
  4041fc:	00000000 	nop
  404200:	8f81000c 	lw	at,12(gp)
  404204:	00000000 	nop
  404208:	24211ab0 	addiu	at,at,6832
  40420c:	ac300000 	sw	s0,0(at)
  404210:	8f83000c 	lw	v1,12(gp)
  404214:	00000000 	nop
  404218:	24631aa8 	addiu	v1,v1,6824
  40421c:	8c630000 	lw	v1,0(v1)
  404220:	2402ffff 	li	v0,-1
  404224:	14620027 	bne	v1,v0,4042c4 <openlog+0x158>
  404228:	24020001 	li	v0,1
  40422c:	8f84000c 	lw	a0,12(gp)
  404230:	00000000 	nop
  404234:	24841e2a 	addiu	a0,a0,7722
  404238:	8f85000c 	lw	a1,12(gp)
  40423c:	00000000 	nop
  404240:	24a5fa28 	addiu	a1,a1,-1496
  404244:	2406000e 	li	a2,14
  404248:	8f81000c 	lw	at,12(gp)
  40424c:	00000000 	nop
  404250:	24211e28 	addiu	at,at,7720
  404254:	a4220000 	sh	v0,0(at)
  404258:	8f9901c0 	lw	t9,448(gp)
  40425c:	00000000 	nop
  404260:	0320f809 	jalr	t9
  404264:	00000000 	nop
  404268:	8fbc0010 	lw	gp,16(sp)
  40426c:	00000000 	nop
  404270:	8f82000c 	lw	v0,12(gp)
  404274:	00000000 	nop
  404278:	24421e20 	addiu	v0,v0,7712
  40427c:	8c420000 	lw	v0,0(v0)
  404280:	00000000 	nop
  404284:	30420008 	andi	v0,v0,0x8
  404288:	1040000e 	beqz	v0,4042c4 <openlog+0x158>
  40428c:	24040001 	li	a0,1
  404290:	02602821 	move	a1,s3
  404294:	00003021 	move	a2,zero
  404298:	8f9902bc 	lw	t9,700(gp)
  40429c:	00000000 	nop
  4042a0:	0320f809 	jalr	t9
  4042a4:	00000000 	nop
  4042a8:	8fbc0010 	lw	gp,16(sp)
  4042ac:	2403ffff 	li	v1,-1
  4042b0:	8f81000c 	lw	at,12(gp)
  4042b4:	00000000 	nop
  4042b8:	24211aa8 	addiu	at,at,6824
  4042bc:	1043004c 	beq	v0,v1,4043f0 <openlog+0x284>
  4042c0:	ac220000 	sw	v0,0(at)
  4042c4:	8f90000c 	lw	s0,12(gp)
  4042c8:	00000000 	nop
  4042cc:	26101aa8 	addiu	s0,s0,6824
  4042d0:	8e100000 	lw	s0,0(s0)
  4042d4:	2411ffff 	li	s1,-1
  4042d8:	12110045 	beq	s0,s1,4043f0 <openlog+0x284>
  4042dc:	00000000 	nop
  4042e0:	8f82000c 	lw	v0,12(gp)
  4042e4:	00000000 	nop
  4042e8:	24421e24 	addiu	v0,v0,7716
  4042ec:	8c420000 	lw	v0,0(v0)
  4042f0:	00000000 	nop
  4042f4:	1440003e 	bnez	v0,4043f0 <openlog+0x284>
  4042f8:	00000000 	nop
  4042fc:	8f84000c 	lw	a0,12(gp)
  404300:	00000000 	nop
  404304:	24841e2a 	addiu	a0,a0,7722
  404308:	8f99007c 	lw	t9,124(gp)
  40430c:	00000000 	nop
  404310:	0320f809 	jalr	t9
  404314:	00000000 	nop
  404318:	8fbc0010 	lw	gp,16(sp)
  40431c:	24420002 	addiu	v0,v0,2
  404320:	8f83000c 	lw	v1,12(gp)
  404324:	00000000 	nop
  404328:	24631e28 	addiu	v1,v1,7720
  40432c:	02002021 	move	a0,s0
  404330:	00602821 	move	a1,v1
  404334:	00403021 	move	a2,v0
  404338:	afa30018 	sw	v1,24(sp)
  40433c:	8f990354 	lw	t9,852(gp)
  404340:	00000000 	nop
  404344:	0320f809 	jalr	t9
  404348:	00000000 	nop
  40434c:	8fbc0010 	lw	gp,16(sp)
  404350:	10510007 	beq	v0,s1,404370 <openlog+0x204>
  404354:	00408021 	move	s0,v0
  404358:	24020001 	li	v0,1
  40435c:	8f81000c 	lw	at,12(gp)
  404360:	00000000 	nop
  404364:	24211e24 	addiu	at,at,7716
  404368:	10000021 	b	4043f0 <openlog+0x284>
  40436c:	ac220000 	sw	v0,0(at)
  404370:	24020001 	li	v0,1
  404374:	8f84000c 	lw	a0,12(gp)
  404378:	00000000 	nop
  40437c:	24841aa8 	addiu	a0,a0,6824
  404380:	8c840000 	lw	a0,0(a0)
  404384:	1662000e 	bne	s3,v0,4043c0 <openlog+0x254>
  404388:	00000000 	nop
  40438c:	1090ffb8 	beq	a0,s0,404270 <openlog+0x104>
  404390:	24130002 	li	s3,2
  404394:	8f990038 	lw	t9,56(gp)
  404398:	00000000 	nop
  40439c:	0320f809 	jalr	t9
  4043a0:	00000000 	nop
  4043a4:	8fbc0010 	lw	gp,16(sp)
  4043a8:	00000000 	nop
  4043ac:	8f81000c 	lw	at,12(gp)
  4043b0:	00000000 	nop
  4043b4:	24211aa8 	addiu	at,at,6824
  4043b8:	1000ffad 	b	404270 <openlog+0x104>
  4043bc:	ac300000 	sw	s0,0(at)
  4043c0:	1090000b 	beq	a0,s0,4043f0 <openlog+0x284>
  4043c4:	00000000 	nop
  4043c8:	8f990038 	lw	t9,56(gp)
  4043cc:	00000000 	nop
  4043d0:	0320f809 	jalr	t9
  4043d4:	00000000 	nop
  4043d8:	8fbc0010 	lw	gp,16(sp)
  4043dc:	00000000 	nop
  4043e0:	8f81000c 	lw	at,12(gp)
  4043e4:	00000000 	nop
  4043e8:	24211aa8 	addiu	at,at,6824
  4043ec:	ac300000 	sw	s0,0(at)
  4043f0:	8f84000c 	lw	a0,12(gp)
  4043f4:	00000000 	nop
  4043f8:	24841a90 	addiu	a0,a0,6800
  4043fc:	8f990234 	lw	t9,564(gp)
  404400:	00000000 	nop
  404404:	0320f809 	jalr	t9
  404408:	00000000 	nop
  40440c:	8fbc0010 	lw	gp,16(sp)
  404410:	8fbf0034 	lw	ra,52(sp)
  404414:	8fb3002c 	lw	s3,44(sp)
  404418:	8fb20028 	lw	s2,40(sp)
  40441c:	8fb10024 	lw	s1,36(sp)
  404420:	8fb00020 	lw	s0,32(sp)
  404424:	03e00008 	jr	ra
  404428:	27bd0038 	addiu	sp,sp,56

0040442c <closelog>:
  40442c:	3c1c0001 	lui	gp,0x1
  404430:	279ca634 	addiu	gp,gp,-22988
  404434:	0399e021 	addu	gp,gp,t9
  404438:	27bdffe0 	addiu	sp,sp,-32
  40443c:	afbc0010 	sw	gp,16(sp)
  404440:	24040001 	li	a0,1
  404444:	afbf001c 	sw	ra,28(sp)
  404448:	afbc0018 	sw	gp,24(sp)
  40444c:	8f990008 	lw	t9,8(gp)
  404450:	00000000 	nop
  404454:	27393980 	addiu	t9,t9,14720
  404458:	00000000 	nop
  40445c:	0320f809 	jalr	t9
  404460:	00000000 	nop
  404464:	8fbc0010 	lw	gp,16(sp)
  404468:	8fbf001c 	lw	ra,28(sp)
  40446c:	00000000 	nop
  404470:	03e00008 	jr	ra
  404474:	27bd0020 	addiu	sp,sp,32

00404478 <setlogmask>:
  404478:	3c1c0001 	lui	gp,0x1
  40447c:	279ca5e8 	addiu	gp,gp,-23064
  404480:	0399e021 	addu	gp,gp,t9
  404484:	27bdffd8 	addiu	sp,sp,-40
  404488:	afbc0010 	sw	gp,16(sp)
  40448c:	afb1001c 	sw	s1,28(sp)
  404490:	00808821 	move	s1,a0
  404494:	8f84000c 	lw	a0,12(gp)
  404498:	00000000 	nop
  40449c:	24841a90 	addiu	a0,a0,6800
  4044a0:	afb00018 	sw	s0,24(sp)
  4044a4:	afbf0024 	sw	ra,36(sp)
  4044a8:	afbc0020 	sw	gp,32(sp)
  4044ac:	8f90000c 	lw	s0,12(gp)
  4044b0:	00000000 	nop
  4044b4:	26101ab4 	addiu	s0,s0,6836
  4044b8:	8e100000 	lw	s0,0(s0)
  4044bc:	8f990344 	lw	t9,836(gp)
  4044c0:	00000000 	nop
  4044c4:	0320f809 	jalr	t9
  4044c8:	00000000 	nop
  4044cc:	8fbc0010 	lw	gp,16(sp)
  4044d0:	00000000 	nop
  4044d4:	8f84000c 	lw	a0,12(gp)
  4044d8:	00000000 	nop
  4044dc:	24841a90 	addiu	a0,a0,6800
  4044e0:	12200005 	beqz	s1,4044f8 <setlogmask+0x80>
  4044e4:	00000000 	nop
  4044e8:	8f81000c 	lw	at,12(gp)
  4044ec:	00000000 	nop
  4044f0:	24211ab4 	addiu	at,at,6836
  4044f4:	ac310000 	sw	s1,0(at)
  4044f8:	8f990234 	lw	t9,564(gp)
  4044fc:	00000000 	nop
  404500:	0320f809 	jalr	t9
  404504:	00000000 	nop
  404508:	8fbc0010 	lw	gp,16(sp)
  40450c:	02001021 	move	v0,s0
  404510:	8fbf0024 	lw	ra,36(sp)
  404514:	8fb1001c 	lw	s1,28(sp)
  404518:	8fb00018 	lw	s0,24(sp)
  40451c:	03e00008 	jr	ra
  404520:	27bd0028 	addiu	sp,sp,40
	...

00404530 <ctime>:
  404530:	3c1c0001 	lui	gp,0x1
  404534:	279ca530 	addiu	gp,gp,-23248
  404538:	0399e021 	addu	gp,gp,t9
  40453c:	27bdffe0 	addiu	sp,sp,-32
  404540:	afbc0010 	sw	gp,16(sp)
  404544:	afbf001c 	sw	ra,28(sp)
  404548:	afbc0018 	sw	gp,24(sp)
  40454c:	8f990168 	lw	t9,360(gp)
  404550:	00000000 	nop
  404554:	0320f809 	jalr	t9
  404558:	00000000 	nop
  40455c:	8fbc0010 	lw	gp,16(sp)
  404560:	00402021 	move	a0,v0
  404564:	8f99037c 	lw	t9,892(gp)
  404568:	00000000 	nop
  40456c:	0320f809 	jalr	t9
  404570:	00000000 	nop
  404574:	8fbc0010 	lw	gp,16(sp)
  404578:	8fbf001c 	lw	ra,28(sp)
  40457c:	00000000 	nop
  404580:	03e00008 	jr	ra
  404584:	27bd0020 	addiu	sp,sp,32
	...

00404590 <localtime>:
  404590:	3c1c0001 	lui	gp,0x1
  404594:	279ca4d0 	addiu	gp,gp,-23344
  404598:	0399e021 	addu	gp,gp,t9
  40459c:	27bdffd8 	addiu	sp,sp,-40
  4045a0:	afbc0010 	sw	gp,16(sp)
  4045a4:	afb00018 	sw	s0,24(sp)
  4045a8:	8f9000f8 	lw	s0,248(gp)
  4045ac:	00000000 	nop
  4045b0:	02002821 	move	a1,s0
  4045b4:	afbf0020 	sw	ra,32(sp)
  4045b8:	afbc001c 	sw	gp,28(sp)
  4045bc:	8f9900f4 	lw	t9,244(gp)
  4045c0:	00000000 	nop
  4045c4:	0320f809 	jalr	t9
  4045c8:	00000000 	nop
  4045cc:	8fbc0010 	lw	gp,16(sp)
  4045d0:	02001021 	move	v0,s0
  4045d4:	8fbf0020 	lw	ra,32(sp)
  4045d8:	8fb00018 	lw	s0,24(sp)
  4045dc:	03e00008 	jr	ra
  4045e0:	27bd0028 	addiu	sp,sp,40
	...
  4045f0:	3c1c0001 	lui	gp,0x1
  4045f4:	279ca470 	addiu	gp,gp,-23440
  4045f8:	0399e021 	addu	gp,gp,t9
  4045fc:	8f820294 	lw	v0,660(gp)
  404600:	00000000 	nop
  404604:	80420028 	lb	v0,40(v0)
  404608:	00804021 	move	t0,a0
  40460c:	8f8a0294 	lw	t2,660(gp)
  404610:	104000bd 	beqz	v0,404908 <localtime+0x378>
  404614:	00007021 	move	t6,zero
  404618:	8c860014 	lw	a2,20(a0)
  40461c:	3c0951eb 	lui	t1,0x51eb
  404620:	3529851f 	ori	t1,t1,0x851f
  404624:	00c90018 	mult	a2,t1
  404628:	8d05001c 	lw	a1,28(t0)
  40462c:	00063fc3 	sra	a3,a2,0x1f
  404630:	00051040 	sll	v0,a1,0x1
  404634:	00451021 	addu	v0,v0,a1
  404638:	8d030008 	lw	v1,8(t0)
  40463c:	000210c0 	sll	v0,v0,0x3
  404640:	00621821 	addu	v1,v1,v0
  404644:	00032900 	sll	a1,v1,0x4
  404648:	00a32823 	subu	a1,a1,v1
  40464c:	8d030004 	lw	v1,4(t0)
  404650:	00052880 	sll	a1,a1,0x2
  404654:	00002010 	mfhi	a0
  404658:	000421c3 	sra	a0,a0,0x7
  40465c:	00872023 	subu	a0,a0,a3
  404660:	00041040 	sll	v0,a0,0x1
  404664:	00441021 	addu	v0,v0,a0
  404668:	000210c0 	sll	v0,v0,0x3
  40466c:	00441021 	addu	v0,v0,a0
  404670:	00651821 	addu	v1,v1,a1
  404674:	00021100 	sll	v0,v0,0x4
  404678:	00c23023 	subu	a2,a2,v0
  40467c:	00031100 	sll	v0,v1,0x4
  404680:	00431023 	subu	v0,v0,v1
  404684:	24c7076c 	addiu	a3,a2,1900
  404688:	8d030000 	lw	v1,0(t0)
  40468c:	00021080 	sll	v0,v0,0x2
  404690:	30e40003 	andi	a0,a3,0x3
  404694:	00625821 	addu	t3,v1,v0
  404698:	14800016 	bnez	a0,4046f4 <localtime+0x164>
  40469c:	00006021 	move	t4,zero
  4046a0:	00e90018 	mult	a3,t1
  4046a4:	00072fc3 	sra	a1,a3,0x1f
  4046a8:	00002010 	mfhi	a0
  4046ac:	00041943 	sra	v1,a0,0x5
  4046b0:	00651823 	subu	v1,v1,a1
  4046b4:	00031040 	sll	v0,v1,0x1
  4046b8:	00431021 	addu	v0,v0,v1
  4046bc:	000210c0 	sll	v0,v0,0x3
  4046c0:	00431021 	addu	v0,v0,v1
  4046c4:	00021080 	sll	v0,v0,0x2
  4046c8:	14e20009 	bne	a3,v0,4046f0 <localtime+0x160>
  4046cc:	000419c3 	sra	v1,a0,0x7
  4046d0:	00651823 	subu	v1,v1,a1
  4046d4:	00031040 	sll	v0,v1,0x1
  4046d8:	00431021 	addu	v0,v0,v1
  4046dc:	000210c0 	sll	v0,v0,0x3
  4046e0:	00431021 	addu	v0,v0,v1
  4046e4:	00021100 	sll	v0,v0,0x4
  4046e8:	14e20002 	bne	a3,v0,4046f4 <localtime+0x164>
  4046ec:	00000000 	nop
  4046f0:	240c0001 	li	t4,1
  4046f4:	24e7ffff 	addiu	a3,a3,-1
  4046f8:	04e10002 	bgez	a3,404704 <localtime+0x174>
  4046fc:	00e02021 	move	a0,a3
  404700:	24e40003 	addiu	a0,a3,3
  404704:	3c0351eb 	lui	v1,0x51eb
  404708:	3463851f 	ori	v1,v1,0x851f
  40470c:	00e30018 	mult	a3,v1
  404710:	000737c3 	sra	a2,a3,0x1f
  404714:	00042083 	sra	a0,a0,0x2
  404718:	00e42021 	addu	a0,a3,a0
  40471c:	3c059249 	lui	a1,0x9249
  404720:	34a52493 	ori	a1,a1,0x2493
  404724:	00003821 	move	a3,zero
  404728:	00001810 	mfhi	v1
  40472c:	00031143 	sra	v0,v1,0x5
  404730:	00461023 	subu	v0,v0,a2
  404734:	000319c3 	sra	v1,v1,0x7
  404738:	00822023 	subu	a0,a0,v0
  40473c:	00661823 	subu	v1,v1,a2
  404740:	00832021 	addu	a0,a0,v1
  404744:	24840001 	addiu	a0,a0,1
  404748:	00850018 	mult	a0,a1
  40474c:	000417c3 	sra	v0,a0,0x1f
  404750:	00002810 	mfhi	a1
  404754:	00a42821 	addu	a1,a1,a0
  404758:	00052883 	sra	a1,a1,0x2
  40475c:	00a24823 	subu	t1,a1,v0
  404760:	000910c0 	sll	v0,t1,0x3
  404764:	00491023 	subu	v0,v0,t1
  404768:	00824823 	subu	t1,a0,v0
  40476c:	8543000e 	lh	v1,14(t2)
  404770:	2402004a 	li	v0,74
  404774:	95450008 	lhu	a1,8(t2)
  404778:	85460008 	lh	a2,8(t2)
  40477c:	14620007 	bne	v1,v0,40479c <localtime+0x20c>
  404780:	2402004d 	li	v0,77
  404784:	11800003 	beqz	t4,404794 <localtime+0x204>
  404788:	28c2003c 	slti	v0,a2,60
  40478c:	10400044 	beqz	v0,4048a0 <localtime+0x310>
  404790:	00000000 	nop
  404794:	10000042 	b	4048a0 <localtime+0x310>
  404798:	24c6ffff 	addiu	a2,a2,-1
  40479c:	14620040 	bne	v1,v0,4048a0 <localtime+0x310>
  4047a0:	00000000 	nop
  4047a4:	8542000c 	lh	v0,12(t2)
  4047a8:	9548000c 	lhu	t0,12(t2)
  4047ac:	8f84000c 	lw	a0,12(gp)
  4047b0:	00000000 	nop
  4047b4:	2484fa40 	addiu	a0,a0,-1472
  4047b8:	00822021 	addu	a0,a0,v0
  4047bc:	9084ffff 	lbu	a0,-1(a0)
  4047c0:	00021940 	sll	v1,v0,0x5
  4047c4:	00621823 	subu	v1,v1,v0
  4047c8:	11800005 	beqz	t4,4047e0 <localtime+0x250>
  4047cc:	00643023 	subu	a2,v1,a0
  4047d0:	28c2003b 	slti	v0,a2,59
  4047d4:	14400003 	bnez	v0,4047e4 <localtime+0x254>
  4047d8:	00081400 	sll	v0,t0,0x10
  4047dc:	24c60001 	addiu	a2,a2,1
  4047e0:	00081400 	sll	v0,t0,0x10
  4047e4:	00022403 	sra	a0,v0,0x10
  4047e8:	8f83000c 	lw	v1,12(gp)
  4047ec:	00000000 	nop
  4047f0:	2463fa40 	addiu	v1,v1,-1472
  4047f4:	00641821 	addu	v1,v1,a0
  4047f8:	9063ffff 	lbu	v1,-1(v1)
  4047fc:	8f82000c 	lw	v0,12(gp)
  404800:	00000000 	nop
  404804:	2442fa40 	addiu	v0,v0,-1472
  404808:	00441021 	addu	v0,v0,a0
  40480c:	90420000 	lbu	v0,0(v0)
  404810:	00000000 	nop
  404814:	00621823 	subu	v1,v1,v0
  404818:	11800005 	beqz	t4,404830 <localtime+0x2a0>
  40481c:	2468001f 	addiu	t0,v1,31
  404820:	28820002 	slti	v0,a0,2
  404824:	14400002 	bnez	v0,404830 <localtime+0x2a0>
  404828:	00000000 	nop
  40482c:	24680020 	addiu	t0,v1,32
  404830:	3c039249 	lui	v1,0x9249
  404834:	01262021 	addu	a0,t1,a2
  404838:	34632493 	ori	v1,v1,0x2493
  40483c:	00830018 	mult	a0,v1
  404840:	000417c3 	sra	v0,a0,0x1f
  404844:	00052c00 	sll	a1,a1,0x10
  404848:	00052c03 	sra	a1,a1,0x10
  40484c:	00001810 	mfhi	v1
  404850:	00641821 	addu	v1,v1,a0
  404854:	00031883 	sra	v1,v1,0x2
  404858:	00621823 	subu	v1,v1,v0
  40485c:	000310c0 	sll	v0,v1,0x3
  404860:	00431023 	subu	v0,v0,v1
  404864:	00822023 	subu	a0,a0,v0
  404868:	00a42823 	subu	a1,a1,a0
  40486c:	04a00002 	bltz	a1,404878 <localtime+0x2e8>
  404870:	00000000 	nop
  404874:	24a5fff9 	addiu	a1,a1,-7
  404878:	8542000a 	lh	v0,10(t2)
  40487c:	00000000 	nop
  404880:	000218c0 	sll	v1,v0,0x3
  404884:	00621823 	subu	v1,v1,v0
  404888:	00a32821 	addu	a1,a1,v1
  40488c:	00a8102a 	slt	v0,a1,t0
  404890:	14400002 	bnez	v0,40489c <localtime+0x30c>
  404894:	00000000 	nop
  404898:	24a5fff9 	addiu	a1,a1,-7
  40489c:	00c53021 	addu	a2,a2,a1
  4048a0:	10e00009 	beqz	a3,4048c8 <localtime+0x338>
  4048a4:	00061040 	sll	v0,a2,0x1
  4048a8:	8d42ffe8 	lw	v0,-24(t2)
  4048ac:	8d430000 	lw	v1,0(t2)
  4048b0:	00cd202a 	slt	a0,a2,t5
  4048b4:	00431023 	subu	v0,v0,v1
  4048b8:	10800002 	beqz	a0,4048c4 <localtime+0x334>
  4048bc:	01625821 	addu	t3,t3,v0
  4048c0:	25ce0001 	addiu	t6,t6,1
  4048c4:	00061040 	sll	v0,a2,0x1
  4048c8:	00461021 	addu	v0,v0,a2
  4048cc:	00021900 	sll	v1,v0,0x4
  4048d0:	00621823 	subu	v1,v1,v0
  4048d4:	00031100 	sll	v0,v1,0x4
  4048d8:	00431023 	subu	v0,v0,v1
  4048dc:	8d430004 	lw	v1,4(t2)
  4048e0:	000211c0 	sll	v0,v0,0x7
  4048e4:	00431021 	addu	v0,v0,v1
  4048e8:	0162102a 	slt	v0,t3,v0
  4048ec:	14400002 	bnez	v0,4048f8 <localtime+0x368>
  4048f0:	00c06821 	move	t5,a2
  4048f4:	25ce0001 	addiu	t6,t6,1
  4048f8:	24e70001 	addiu	a3,a3,1
  4048fc:	28e20002 	slti	v0,a3,2
  404900:	1440ff9a 	bnez	v0,40476c <localtime+0x1dc>
  404904:	254a0018 	addiu	t2,t2,24
  404908:	03e00008 	jr	ra
  40490c:	31c20001 	andi	v0,t6,0x1

00404910 <localtime_r>:
  404910:	3c1c0001 	lui	gp,0x1
  404914:	279ca150 	addiu	gp,gp,-24240
  404918:	0399e021 	addu	gp,gp,t9
  40491c:	27bdffc8 	addiu	sp,sp,-56
  404920:	afbc0010 	sw	gp,16(sp)
  404924:	afb3002c 	sw	s3,44(sp)
  404928:	00809821 	move	s3,a0
  40492c:	8f840350 	lw	a0,848(gp)
  404930:	afbf0034 	sw	ra,52(sp)
  404934:	afb20028 	sw	s2,40(sp)
  404938:	afb10024 	sw	s1,36(sp)
  40493c:	afb00020 	sw	s0,32(sp)
  404940:	afbc0030 	sw	gp,48(sp)
  404944:	00a08021 	move	s0,a1
  404948:	00008821 	move	s1,zero
  40494c:	8f990344 	lw	t9,836(gp)
  404950:	00000000 	nop
  404954:	0320f809 	jalr	t9
  404958:	00000000 	nop
  40495c:	8fbc0010 	lw	gp,16(sp)
  404960:	00000000 	nop
  404964:	8f920294 	lw	s2,660(gp)
  404968:	8f99004c 	lw	t9,76(gp)
  40496c:	00000000 	nop
  404970:	0320f809 	jalr	t9
  404974:	00000000 	nop
  404978:	8fbc0010 	lw	gp,16(sp)
  40497c:	8e670000 	lw	a3,0(s3)
  404980:	3c027ff6 	lui	v0,0x7ff6
  404984:	8e450000 	lw	a1,0(s2)
  404988:	3442c57f 	ori	v0,v0,0xc57f
  40498c:	3c030009 	lui	v1,0x9
  404990:	34633a80 	ori	v1,v1,0x3a80
  404994:	0047102a 	slt	v0,v0,a3
  404998:	00651823 	subu	v1,v1,a1
  40499c:	27a40018 	addiu	a0,sp,24
  4049a0:	02003021 	move	a2,s0
  4049a4:	10400003 	beqz	v0,4049b4 <localtime_r+0xa4>
  4049a8:	2405fff9 	li	a1,-7
  4049ac:	00031823 	negu	v1,v1
  4049b0:	24050007 	li	a1,7
  4049b4:	00e31021 	addu	v0,a3,v1
  4049b8:	afa20018 	sw	v0,24(sp)
  4049bc:	8f990058 	lw	t9,88(gp)
  4049c0:	00000000 	nop
  4049c4:	0320f809 	jalr	t9
  4049c8:	00000000 	nop
  4049cc:	8fbc0010 	lw	gp,16(sp)
  4049d0:	ae110020 	sw	s1,32(s0)
  4049d4:	26310001 	addiu	s1,s1,1
  4049d8:	2a220002 	slti	v0,s1,2
  4049dc:	26520018 	addiu	s2,s2,24
  4049e0:	1040000a 	beqz	v0,404a0c <localtime_r+0xfc>
  4049e4:	02002021 	move	a0,s0
  4049e8:	8f990008 	lw	t9,8(gp)
  4049ec:	00000000 	nop
  4049f0:	273945f0 	addiu	t9,t9,17904
  4049f4:	00000000 	nop
  4049f8:	0320f809 	jalr	t9
  4049fc:	00000000 	nop
  404a00:	8fbc0010 	lw	gp,16(sp)
  404a04:	1440ffdd 	bnez	v0,40497c <localtime_r+0x6c>
  404a08:	ae020020 	sw	v0,32(s0)
  404a0c:	8f840350 	lw	a0,848(gp)
  404a10:	8f990234 	lw	t9,564(gp)
  404a14:	00000000 	nop
  404a18:	0320f809 	jalr	t9
  404a1c:	00000000 	nop
  404a20:	8fbc0010 	lw	gp,16(sp)
  404a24:	02001021 	move	v0,s0
  404a28:	8fbf0034 	lw	ra,52(sp)
  404a2c:	8fb3002c 	lw	s3,44(sp)
  404a30:	8fb20028 	lw	s2,40(sp)
  404a34:	8fb10024 	lw	s1,36(sp)
  404a38:	8fb00020 	lw	s0,32(sp)
  404a3c:	03e00008 	jr	ra
  404a40:	27bd0038 	addiu	sp,sp,56
	...
  404a50:	3c1c0001 	lui	gp,0x1
  404a54:	279ca010 	addiu	gp,gp,-24560
  404a58:	0399e021 	addu	gp,gp,t9
  404a5c:	00803021 	move	a2,a0
  404a60:	8f8a000c 	lw	t2,12(gp)
  404a64:	00000000 	nop
  404a68:	254afa56 	addiu	t2,t2,-1450
  404a6c:	00004821 	move	t1,zero
  404a70:	2407ffff 	li	a3,-1
  404a74:	90c20000 	lbu	v0,0(a2)
  404a78:	254a0001 	addiu	t2,t2,1
  404a7c:	2443ffd0 	addiu	v1,v0,-48
  404a80:	306300ff 	andi	v1,v1,0xff
  404a84:	00021600 	sll	v0,v0,0x18
  404a88:	2c63000a 	sltiu	v1,v1,10
  404a8c:	10600003 	beqz	v1,404a9c <localtime_r+0x18c>
  404a90:	00021603 	sra	v0,v0,0x18
  404a94:	2447ffd0 	addiu	a3,v0,-48
  404a98:	24c60001 	addiu	a2,a2,1
  404a9c:	90c20000 	lbu	v0,0(a2)
  404aa0:	00071880 	sll	v1,a3,0x2
  404aa4:	00022600 	sll	a0,v0,0x18
  404aa8:	2442ffd0 	addiu	v0,v0,-48
  404aac:	00671821 	addu	v1,v1,a3
  404ab0:	304200ff 	andi	v0,v0,0xff
  404ab4:	00031840 	sll	v1,v1,0x1
  404ab8:	00042603 	sra	a0,a0,0x18
  404abc:	2c42000a 	sltiu	v0,v0,10
  404ac0:	10400003 	beqz	v0,404ad0 <localtime_r+0x1c0>
  404ac4:	00641821 	addu	v1,v1,a0
  404ac8:	2467ffd0 	addiu	a3,v1,-48
  404acc:	24c60001 	addiu	a2,a2,1
  404ad0:	81430000 	lb	v1,0(t2)
  404ad4:	00002021 	move	a0,zero
  404ad8:	00e3102b 	sltu	v0,a3,v1
  404adc:	1040000d 	beqz	v0,404b14 <localtime_r+0x204>
  404ae0:	28680002 	slti	t0,v1,2
  404ae4:	00690018 	mult	v1,t1
  404ae8:	80c30000 	lb	v1,0(a2)
  404aec:	00001012 	mflo	v0
  404af0:	00474821 	addu	t1,v0,a3
  404af4:	2402003a 	li	v0,58
  404af8:	14620003 	bne	v1,v0,404b08 <localtime_r+0x1f8>
  404afc:	00003821 	move	a3,zero
  404b00:	24c60001 	addiu	a2,a2,1
  404b04:	2407ffff 	li	a3,-1
  404b08:	1100ffda 	beqz	t0,404a74 <localtime_r+0x164>
  404b0c:	00c02021 	move	a0,a2
  404b10:	aca90000 	sw	t1,0(a1)
  404b14:	03e00008 	jr	ra
  404b18:	00801021 	move	v0,a0
  404b1c:	3c1c0001 	lui	gp,0x1
  404b20:	279c9f44 	addiu	gp,gp,-24764
  404b24:	0399e021 	addu	gp,gp,t9
  404b28:	90830000 	lbu	v1,0(a0)
  404b2c:	24070003 	li	a3,3
  404b30:	2462ffd0 	addiu	v0,v1,-48
  404b34:	304200ff 	andi	v0,v0,0xff
  404b38:	2c42000a 	sltiu	v0,v0,10
  404b3c:	10400012 	beqz	v0,404b88 <localtime_r+0x278>
  404b40:	00003021 	move	a2,zero
  404b44:	00061080 	sll	v0,a2,0x2
  404b48:	00461021 	addu	v0,v0,a2
  404b4c:	00031e00 	sll	v1,v1,0x18
  404b50:	00021040 	sll	v0,v0,0x1
  404b54:	00031e03 	sra	v1,v1,0x18
  404b58:	00431021 	addu	v0,v0,v1
  404b5c:	24e7ffff 	addiu	a3,a3,-1
  404b60:	2446ffd0 	addiu	a2,v0,-48
  404b64:	10e00008 	beqz	a3,404b88 <localtime_r+0x278>
  404b68:	24840001 	addiu	a0,a0,1
  404b6c:	90830000 	lbu	v1,0(a0)
  404b70:	00000000 	nop
  404b74:	2462ffd0 	addiu	v0,v1,-48
  404b78:	304200ff 	andi	v0,v0,0xff
  404b7c:	2c42000a 	sltiu	v0,v0,10
  404b80:	1440fff1 	bnez	v0,404b48 <localtime_r+0x238>
  404b84:	00061080 	sll	v0,a2,0x2
  404b88:	24020003 	li	v0,3
  404b8c:	14e20002 	bne	a3,v0,404b98 <localtime_r+0x288>
  404b90:	aca60000 	sw	a2,0(a1)
  404b94:	00002021 	move	a0,zero
  404b98:	03e00008 	jr	ra
  404b9c:	00801021 	move	v0,a0

00404ba0 <tzset>:
  404ba0:	3c1c0001 	lui	gp,0x1
  404ba4:	279c9ec0 	addiu	gp,gp,-24896
  404ba8:	0399e021 	addu	gp,gp,t9
  404bac:	27bdff88 	addiu	sp,sp,-120
  404bb0:	afbc0010 	sw	gp,16(sp)
  404bb4:	8f840350 	lw	a0,848(gp)
  404bb8:	afbf0070 	sw	ra,112(sp)
  404bbc:	afbc006c 	sw	gp,108(sp)
  404bc0:	afb60068 	sw	s6,104(sp)
  404bc4:	afb50064 	sw	s5,100(sp)
  404bc8:	afb40060 	sw	s4,96(sp)
  404bcc:	afb3005c 	sw	s3,92(sp)
  404bd0:	afb20058 	sw	s2,88(sp)
  404bd4:	afb10054 	sw	s1,84(sp)
  404bd8:	afb00050 	sw	s0,80(sp)
  404bdc:	8f990344 	lw	t9,836(gp)
  404be0:	00000000 	nop
  404be4:	0320f809 	jalr	t9
  404be8:	00000000 	nop
  404bec:	8fbc0010 	lw	gp,16(sp)
  404bf0:	00000000 	nop
  404bf4:	8f84000c 	lw	a0,12(gp)
  404bf8:	00000000 	nop
  404bfc:	2484fa50 	addiu	a0,a0,-1456
  404c00:	8f99031c 	lw	t9,796(gp)
  404c04:	00000000 	nop
  404c08:	0320f809 	jalr	t9
  404c0c:	00000000 	nop
  404c10:	8fbc0010 	lw	gp,16(sp)
  404c14:	10400005 	beqz	v0,404c2c <tzset+0x8c>
  404c18:	00402821 	move	a1,v0
  404c1c:	80430000 	lb	v1,0(v0)
  404c20:	00000000 	nop
  404c24:	14600017 	bnez	v1,404c84 <tzset+0xe4>
  404c28:	2402003a 	li	v0,58
  404c2c:	8f840294 	lw	a0,660(gp)
  404c30:	00002821 	move	a1,zero
  404c34:	24060030 	li	a2,48
  404c38:	8f990164 	lw	t9,356(gp)
  404c3c:	00000000 	nop
  404c40:	0320f809 	jalr	t9
  404c44:	00000000 	nop
  404c48:	8fbc0010 	lw	gp,16(sp)
  404c4c:	00000000 	nop
  404c50:	8f840294 	lw	a0,660(gp)
  404c54:	00000000 	nop
  404c58:	24840010 	addiu	a0,a0,16
  404c5c:	8f85000c 	lw	a1,12(gp)
  404c60:	00000000 	nop
  404c64:	24a5fa53 	addiu	a1,a1,-1453
  404c68:	8f990380 	lw	t9,896(gp)
  404c6c:	00000000 	nop
  404c70:	0320f809 	jalr	t9
  404c74:	00000000 	nop
  404c78:	8fbc0010 	lw	gp,16(sp)
  404c7c:	100000eb 	b	40502c <tzset+0x48c>
  404c80:	00000000 	nop
  404c84:	14620002 	bne	v1,v0,404c90 <tzset+0xf0>
  404c88:	00000000 	nop
  404c8c:	24a50001 	addiu	a1,a1,1
  404c90:	a3a00040 	sb	zero,64(sp)
  404c94:	00009821 	move	s3,zero
  404c98:	80a30000 	lb	v1,0(a1)
  404c9c:	2402003c 	li	v0,60
  404ca0:	14620003 	bne	v1,v0,404cb0 <tzset+0x110>
  404ca4:	00003021 	move	a2,zero
  404ca8:	24a50001 	addiu	a1,a1,1
  404cac:	2406003e 	li	a2,62
  404cb0:	00138840 	sll	s1,s3,0x1
  404cb4:	02331021 	addu	v0,s1,s3
  404cb8:	000210c0 	sll	v0,v0,0x3
  404cbc:	27b40018 	addiu	s4,sp,24
  404cc0:	02821021 	addu	v0,s4,v0
  404cc4:	24500010 	addiu	s0,v0,16
  404cc8:	10000007 	b	404ce8 <tzset+0x148>
  404ccc:	00009021 	move	s2,zero
  404cd0:	26520001 	addiu	s2,s2,1
  404cd4:	2a420007 	slti	v0,s2,7
  404cd8:	a2070000 	sb	a3,0(s0)
  404cdc:	24a50001 	addiu	a1,a1,1
  404ce0:	1040ffd2 	beqz	v0,404c2c <tzset+0x8c>
  404ce4:	26100001 	addiu	s0,s0,1
  404ce8:	90a70000 	lbu	a3,0(a1)
  404cec:	80a30000 	lb	v1,0(a1)
  404cf0:	2402ff80 	li	v0,-128
  404cf4:	00e21024 	and	v0,a3,v0
  404cf8:	00032040 	sll	a0,v1,0x1
  404cfc:	10600017 	beqz	v1,404d5c <tzset+0x1bc>
  404d00:	00021600 	sll	v0,v0,0x18
  404d04:	14400016 	bnez	v0,404d60 <tzset+0x1c0>
  404d08:	2a420003 	slti	v0,s2,3
  404d0c:	8f820324 	lw	v0,804(gp)
  404d10:	00000000 	nop
  404d14:	8c420000 	lw	v0,0(v0)
  404d18:	00000000 	nop
  404d1c:	00821021 	addu	v0,a0,v0
  404d20:	94420000 	lhu	v0,0(v0)
  404d24:	00000000 	nop
  404d28:	30440800 	andi	a0,v0,0x800
  404d2c:	30420004 	andi	v0,v0,0x4
  404d30:	1440ffe7 	bnez	v0,404cd0 <tzset+0x130>
  404d34:	00000000 	nop
  404d38:	10c00009 	beqz	a2,404d60 <tzset+0x1c0>
  404d3c:	2a420003 	slti	v0,s2,3
  404d40:	1480ffe3 	bnez	a0,404cd0 <tzset+0x130>
  404d44:	2402002b 	li	v0,43
  404d48:	1062ffe1 	beq	v1,v0,404cd0 <tzset+0x130>
  404d4c:	2402002d 	li	v0,45
  404d50:	1062ffe0 	beq	v1,v0,404cd4 <tzset+0x134>
  404d54:	26520001 	addiu	s2,s2,1
  404d58:	2652ffff 	addiu	s2,s2,-1
  404d5c:	2a420003 	slti	v0,s2,3
  404d60:	1440ffb2 	bnez	v0,404c2c <tzset+0x8c>
  404d64:	a2000000 	sb	zero,0(s0)
  404d68:	10c00007 	beqz	a2,404d88 <tzset+0x1e8>
  404d6c:	00000000 	nop
  404d70:	90a20000 	lbu	v0,0(a1)
  404d74:	00000000 	nop
  404d78:	00021600 	sll	v0,v0,0x18
  404d7c:	00021603 	sra	v0,v0,0x18
  404d80:	1446ffaa 	bne	v0,a2,404c2c <tzset+0x8c>
  404d84:	24a50001 	addiu	a1,a1,1
  404d88:	80a30000 	lb	v1,0(a1)
  404d8c:	2402002d 	li	v0,45
  404d90:	90a40000 	lbu	a0,0(a1)
  404d94:	1062000e 	beq	v1,v0,404dd0 <tzset+0x230>
  404d98:	00a08021 	move	s0,a1
  404d9c:	2402002b 	li	v0,43
  404da0:	1062000b 	beq	v1,v0,404dd0 <tzset+0x230>
  404da4:	00000000 	nop
  404da8:	12600008 	beqz	s3,404dcc <tzset+0x22c>
  404dac:	2482ffd0 	addiu	v0,a0,-48
  404db0:	304200ff 	andi	v0,v0,0xff
  404db4:	2c42000a 	sltiu	v0,v0,10
  404db8:	14400004 	bnez	v0,404dcc <tzset+0x22c>
  404dbc:	00000000 	nop
  404dc0:	8fa20048 	lw	v0,72(sp)
  404dc4:	10000015 	b	404e1c <tzset+0x27c>
  404dc8:	2442f1f0 	addiu	v0,v0,-3600
  404dcc:	24a5ffff 	addiu	a1,a1,-1
  404dd0:	24a50001 	addiu	a1,a1,1
  404dd4:	00a02021 	move	a0,a1
  404dd8:	27a50048 	addiu	a1,sp,72
  404ddc:	8f990008 	lw	t9,8(gp)
  404de0:	00000000 	nop
  404de4:	27394a50 	addiu	t9,t9,19024
  404de8:	00000000 	nop
  404dec:	0320f809 	jalr	t9
  404df0:	00000000 	nop
  404df4:	8fbc0010 	lw	gp,16(sp)
  404df8:	1040ff8c 	beqz	v0,404c2c <tzset+0x8c>
  404dfc:	00402821 	move	a1,v0
  404e00:	82030000 	lb	v1,0(s0)
  404e04:	2402002d 	li	v0,45
  404e08:	14620006 	bne	v1,v0,404e24 <tzset+0x284>
  404e0c:	02331021 	addu	v0,s1,s3
  404e10:	8fa20048 	lw	v0,72(sp)
  404e14:	00000000 	nop
  404e18:	00021023 	negu	v0,v0
  404e1c:	afa20048 	sw	v0,72(sp)
  404e20:	02331021 	addu	v0,s1,s3
  404e24:	000210c0 	sll	v0,v0,0x3
  404e28:	8fa30048 	lw	v1,72(sp)
  404e2c:	00541021 	addu	v0,v0,s4
  404e30:	1660000a 	bnez	s3,404e5c <tzset+0x2bc>
  404e34:	ac430000 	sw	v1,0(v0)
  404e38:	8fa20048 	lw	v0,72(sp)
  404e3c:	00000000 	nop
  404e40:	afa20030 	sw	v0,48(sp)
  404e44:	80a20000 	lb	v0,0(a1)
  404e48:	00000000 	nop
  404e4c:	1440ff92 	bnez	v0,404c98 <tzset+0xf8>
  404e50:	24130001 	li	s3,1
  404e54:	1000006c 	b	405008 <tzset+0x468>
  404e58:	00000000 	nop
  404e5c:	80a20000 	lb	v0,0(a1)
  404e60:	00000000 	nop
  404e64:	14400004 	bnez	v0,404e78 <tzset+0x2d8>
  404e68:	00009821 	move	s3,zero
  404e6c:	8f85000c 	lw	a1,12(gp)
  404e70:	00000000 	nop
  404e74:	24a5fa66 	addiu	a1,a1,-1434
  404e78:	0000a821 	move	s5,zero
  404e7c:	0000a021 	move	s4,zero
  404e80:	90a20000 	lbu	v0,0(a1)
  404e84:	2403002c 	li	v1,44
  404e88:	00021600 	sll	v0,v0,0x18
  404e8c:	00021603 	sra	v0,v0,0x18
  404e90:	1443ff66 	bne	v0,v1,404c2c <tzset+0x8c>
  404e94:	24a50001 	addiu	a1,a1,1
  404e98:	80a60000 	lb	a2,0(a1)
  404e9c:	2402004d 	li	v0,77
  404ea0:	2412016d 	li	s2,365
  404ea4:	8f90000c 	lw	s0,12(gp)
  404ea8:	00000000 	nop
  404eac:	2610fa5a 	addiu	s0,s0,-1446
  404eb0:	14c20003 	bne	a2,v0,404ec0 <tzset+0x320>
  404eb4:	24a50001 	addiu	a1,a1,1
  404eb8:	10000009 	b	404ee0 <tzset+0x340>
  404ebc:	2412000c 	li	s2,12
  404ec0:	2402004a 	li	v0,74
  404ec4:	14c20003 	bne	a2,v0,404ed4 <tzset+0x334>
  404ec8:	00000000 	nop
  404ecc:	10000004 	b	404ee0 <tzset+0x340>
  404ed0:	26100008 	addiu	s0,s0,8
  404ed4:	24a5ffff 	addiu	a1,a1,-1
  404ed8:	00003021 	move	a2,zero
  404edc:	26100006 	addiu	s0,s0,6
  404ee0:	27b60018 	addiu	s6,sp,24
  404ee4:	02d41821 	addu	v1,s6,s4
  404ee8:	2402004d 	li	v0,77
  404eec:	a466000e 	sh	a2,14(v1)
  404ef0:	10c20002 	beq	a2,v0,404efc <tzset+0x35c>
  404ef4:	2471000e 	addiu	s1,v1,14
  404ef8:	2471000a 	addiu	s1,v1,10
  404efc:	00a02021 	move	a0,a1
  404f00:	27a5004c 	addiu	a1,sp,76
  404f04:	8f990008 	lw	t9,8(gp)
  404f08:	00000000 	nop
  404f0c:	27394b1c 	addiu	t9,t9,19228
  404f10:	00000000 	nop
  404f14:	0320f809 	jalr	t9
  404f18:	00000000 	nop
  404f1c:	8fbc0010 	lw	gp,16(sp)
  404f20:	2631fffe 	addiu	s1,s1,-2
  404f24:	00402821 	move	a1,v0
  404f28:	1040ff40 	beqz	v0,404c2c <tzset+0x8c>
  404f2c:	26100001 	addiu	s0,s0,1
  404f30:	82030001 	lb	v1,1(s0)
  404f34:	8fa2004c 	lw	v0,76(sp)
  404f38:	00000000 	nop
  404f3c:	00431023 	subu	v0,v0,v1
  404f40:	0242102b 	sltu	v0,s2,v0
  404f44:	1440ff39 	bnez	v0,404c2c <tzset+0x8c>
  404f48:	00000000 	nop
  404f4c:	82030000 	lb	v1,0(s0)
  404f50:	00000000 	nop
  404f54:	10600007 	beqz	v1,404f74 <tzset+0x3d4>
  404f58:	26100002 	addiu	s0,s0,2
  404f5c:	90a20000 	lbu	v0,0(a1)
  404f60:	00000000 	nop
  404f64:	00021600 	sll	v0,v0,0x18
  404f68:	00021603 	sra	v0,v0,0x18
  404f6c:	1443ff2f 	bne	v0,v1,404c2c <tzset+0x8c>
  404f70:	24a50001 	addiu	a1,a1,1
  404f74:	97a2004e 	lhu	v0,78(sp)
  404f78:	00000000 	nop
  404f7c:	a6220000 	sh	v0,0(s1)
  404f80:	82120000 	lb	s2,0(s0)
  404f84:	00000000 	nop
  404f88:	1e40ffdd 	bgtz	s2,404f00 <tzset+0x360>
  404f8c:	00a02021 	move	a0,a1
  404f90:	24021c20 	li	v0,7200
  404f94:	afa20048 	sw	v0,72(sp)
  404f98:	80a30000 	lb	v1,0(a1)
  404f9c:	2402002f 	li	v0,47
  404fa0:	1462000d 	bne	v1,v0,404fd8 <tzset+0x438>
  404fa4:	00000000 	nop
  404fa8:	24a50001 	addiu	a1,a1,1
  404fac:	00a02021 	move	a0,a1
  404fb0:	27a50048 	addiu	a1,sp,72
  404fb4:	8f990008 	lw	t9,8(gp)
  404fb8:	00000000 	nop
  404fbc:	27394a50 	addiu	t9,t9,19024
  404fc0:	00000000 	nop
  404fc4:	0320f809 	jalr	t9
  404fc8:	00000000 	nop
  404fcc:	8fbc0010 	lw	gp,16(sp)
  404fd0:	1040ff16 	beqz	v0,404c2c <tzset+0x8c>
  404fd4:	00402821 	move	a1,v0
  404fd8:	26730001 	addiu	s3,s3,1
  404fdc:	8fa30048 	lw	v1,72(sp)
  404fe0:	02b61021 	addu	v0,s5,s6
  404fe4:	2a640002 	slti	a0,s3,2
  404fe8:	ac430004 	sw	v1,4(v0)
  404fec:	26940018 	addiu	s4,s4,24
  404ff0:	1480ffa3 	bnez	a0,404e80 <tzset+0x2e0>
  404ff4:	26b50018 	addiu	s5,s5,24
  404ff8:	80a20000 	lb	v0,0(a1)
  404ffc:	00000000 	nop
  405000:	1440ff0a 	bnez	v0,404c2c <tzset+0x8c>
  405004:	00000000 	nop
  405008:	8f840294 	lw	a0,660(gp)
  40500c:	27a50018 	addiu	a1,sp,24
  405010:	24060030 	li	a2,48
  405014:	8f9902fc 	lw	t9,764(gp)
  405018:	00000000 	nop
  40501c:	0320f809 	jalr	t9
  405020:	00000000 	nop
  405024:	8fbc0010 	lw	gp,16(sp)
  405028:	00000000 	nop
  40502c:	8f820294 	lw	v0,660(gp)
  405030:	00000000 	nop
  405034:	80420028 	lb	v0,40(v0)
  405038:	8f850294 	lw	a1,660(gp)
  40503c:	00000000 	nop
  405040:	24a50010 	addiu	a1,a1,16
  405044:	0002102b 	sltu	v0,zero,v0
  405048:	8f810364 	lw	at,868(gp)
  40504c:	00000000 	nop
  405050:	ac220000 	sw	v0,0(at)
  405054:	8f820294 	lw	v0,660(gp)
  405058:	00000000 	nop
  40505c:	8c420000 	lw	v0,0(v0)
  405060:	24a30018 	addiu	v1,a1,24
  405064:	8f840350 	lw	a0,848(gp)
  405068:	8f81026c 	lw	at,620(gp)
  40506c:	00000000 	nop
  405070:	ac230004 	sw	v1,4(at)
  405074:	8f81026c 	lw	at,620(gp)
  405078:	00000000 	nop
  40507c:	ac250000 	sw	a1,0(at)
  405080:	8f8101dc 	lw	at,476(gp)
  405084:	00000000 	nop
  405088:	ac220000 	sw	v0,0(at)
  40508c:	8f990234 	lw	t9,564(gp)
  405090:	00000000 	nop
  405094:	0320f809 	jalr	t9
  405098:	00000000 	nop
  40509c:	8fbc0010 	lw	gp,16(sp)
  4050a0:	8fbf0070 	lw	ra,112(sp)
  4050a4:	8fb60068 	lw	s6,104(sp)
  4050a8:	8fb50064 	lw	s5,100(sp)
  4050ac:	8fb40060 	lw	s4,96(sp)
  4050b0:	8fb3005c 	lw	s3,92(sp)
  4050b4:	8fb20058 	lw	s2,88(sp)
  4050b8:	8fb10054 	lw	s1,84(sp)
  4050bc:	8fb00050 	lw	s0,80(sp)
  4050c0:	03e00008 	jr	ra
  4050c4:	27bd0078 	addiu	sp,sp,120
	...

004050d0 <_time_t2tm>:
  4050d0:	3c1c0001 	lui	gp,0x1
  4050d4:	279c9990 	addiu	gp,gp,-26224
  4050d8:	0399e021 	addu	gp,gp,t9
  4050dc:	8c880000 	lw	t0,0(a0)
  4050e0:	00c04821 	move	t1,a2
  4050e4:	acc0001c 	sw	zero,28(a2)
  4050e8:	8f8c000c 	lw	t4,12(gp)
  4050ec:	00000000 	nop
  4050f0:	258cfa80 	addiu	t4,t4,-1408
  4050f4:	00000000 	nop
  4050f8:	95870000 	lhu	a3,0(t4)
  4050fc:	240b0007 	li	t3,7
  405100:	14eb0013 	bne	a3,t3,405150 <_time_t2tm+0x80>
  405104:	00e06821 	move	t5,a3
  405108:	0107001a 	div	zero,t0,a3
  40510c:	15600002 	bnez	t3,405118 <_time_t2tm+0x48>
  405110:	00000000 	nop
  405114:	0007000d 	break	0x7
  405118:	95840002 	lhu	a0,2(t4)
  40511c:	01051021 	addu	v0,t0,a1
  405120:	3c080002 	lui	t0,0x2
  405124:	35080e76 	ori	t0,t0,0xe76
  405128:	01024021 	addu	t0,t0,v0
  40512c:	00001810 	mfhi	v1
  405130:	2463000b 	addiu	v1,v1,11
  405134:	00000000 	nop
  405138:	0067001a 	div	zero,v1,a3
  40513c:	00043880 	sll	a3,a0,0x2
  405140:	24e70001 	addiu	a3,a3,1
  405144:	00005010 	mfhi	t2
	...
  405150:	0107001a 	div	zero,t0,a3
  405154:	14e00002 	bnez	a3,405160 <_time_t2tm+0x90>
  405158:	00000000 	nop
  40515c:	0007000d 	break	0x7
  405160:	00001012 	mflo	v0
  405164:	00001812 	mflo	v1
	...
  405170:	00470018 	mult	v0,a3
  405174:	00001012 	mflo	v0
  405178:	01024023 	subu	t0,t0,v0
  40517c:	05010003 	bgez	t0,40518c <_time_t2tm+0xbc>
  405180:	00000000 	nop
  405184:	01074021 	addu	t0,t0,a3
  405188:	2463ffff 	addiu	v1,v1,-1
  40518c:	15ab0009 	bne	t5,t3,4051b4 <_time_t2tm+0xe4>
  405190:	28e2003d 	slti	v0,a3,61
  405194:	24e2ffff 	addiu	v0,a3,-1
  405198:	15020006 	bne	t0,v0,4051b4 <_time_t2tm+0xe4>
  40519c:	28e2003d 	slti	v0,a3,61
  4051a0:	8d220010 	lw	v0,16(t1)
  4051a4:	24e8fffe 	addiu	t0,a3,-2
  4051a8:	24420001 	addiu	v0,v0,1
  4051ac:	ad220010 	sw	v0,16(t1)
  4051b0:	28e2003d 	slti	v0,a3,61
  4051b4:	25840002 	addiu	a0,t4,2
  4051b8:	10400004 	beqz	v0,4051cc <_time_t2tm+0xfc>
  4051bc:	25270004 	addiu	a3,t1,4
  4051c0:	ad280000 	sw	t0,0(t1)
  4051c4:	10000002 	b	4051d0 <_time_t2tm+0x100>
  4051c8:	00604021 	move	t0,v1
  4051cc:	ad230000 	sw	v1,0(t1)
  4051d0:	94820000 	lhu	v0,0(a0)
  4051d4:	00e04821 	move	t1,a3
  4051d8:	1440ffc7 	bnez	v0,4050f8 <_time_t2tm+0x28>
  4051dc:	00806021 	move	t4,a0
  4051e0:	8ce3fffc 	lw	v1,-4(a3)
  4051e4:	24020004 	li	v0,4
  4051e8:	14620003 	bne	v1,v0,4051f8 <_time_t2tm+0x128>
  4051ec:	24020003 	li	v0,3
  4051f0:	ace2fffc 	sw	v0,-4(a3)
  4051f4:	2408016d 	li	t0,365
  4051f8:	8ce20000 	lw	v0,0(a3)
  4051fc:	24e9fff8 	addiu	t1,a3,-8
  405200:	00481021 	addu	v0,v0,t0
  405204:	ace20000 	sw	v0,0(a3)
  405208:	8d23fff8 	lw	v1,-8(t1)
  40520c:	8d22fffc 	lw	v0,-4(t1)
  405210:	00031880 	sll	v1,v1,0x2
  405214:	00621821 	addu	v1,v1,v0
  405218:	00031040 	sll	v0,v1,0x1
  40521c:	00431021 	addu	v0,v0,v1
  405220:	8ce4fff8 	lw	a0,-8(a3)
  405224:	000210c0 	sll	v0,v0,0x3
  405228:	00431021 	addu	v0,v0,v1
  40522c:	00441021 	addu	v0,v0,a0
  405230:	8d230004 	lw	v1,4(t1)
  405234:	00021080 	sll	v0,v0,0x2
  405238:	00431021 	addu	v0,v0,v1
  40523c:	2443fed5 	addiu	v1,v0,-299
  405240:	ace3fff8 	sw	v1,-8(a3)
  405244:	ad2a0004 	sw	t2,4(t1)
  405248:	244a0641 	addiu	t2,v0,1601
  40524c:	31420003 	andi	v0,t2,0x3
  405250:	8f87000c 	lw	a3,12(gp)
  405254:	00000000 	nop
  405258:	24e7fa90 	addiu	a3,a3,-1392
  40525c:	14400017 	bnez	v0,4052bc <_time_t2tm+0x1ec>
  405260:	3c0251eb 	lui	v0,0x51eb
  405264:	3442851f 	ori	v0,v0,0x851f
  405268:	01420018 	mult	t2,v0
  40526c:	000a2fc3 	sra	a1,t2,0x1f
  405270:	00002010 	mfhi	a0
  405274:	00041943 	sra	v1,a0,0x5
  405278:	00651823 	subu	v1,v1,a1
  40527c:	00031040 	sll	v0,v1,0x1
  405280:	00431021 	addu	v0,v0,v1
  405284:	000210c0 	sll	v0,v0,0x3
  405288:	00431021 	addu	v0,v0,v1
  40528c:	00021080 	sll	v0,v0,0x2
  405290:	15420009 	bne	t2,v0,4052b8 <_time_t2tm+0x1e8>
  405294:	000419c3 	sra	v1,a0,0x7
  405298:	00651823 	subu	v1,v1,a1
  40529c:	00031040 	sll	v0,v1,0x1
  4052a0:	00431021 	addu	v0,v0,v1
  4052a4:	000210c0 	sll	v0,v0,0x3
  4052a8:	00431021 	addu	v0,v0,v1
  4052ac:	00021100 	sll	v0,v0,0x4
  4052b0:	15420002 	bne	t2,v0,4052bc <_time_t2tm+0x1ec>
  4052b4:	00000000 	nop
  4052b8:	24e7000b 	addiu	a3,a3,11
  4052bc:	8d220008 	lw	v0,8(t1)
  4052c0:	2529fffc 	addiu	t1,t1,-4
  4052c4:	ad200000 	sw	zero,0(t1)
  4052c8:	90e30000 	lbu	v1,0(a3)
  4052cc:	244a0001 	addiu	t2,v0,1
  4052d0:	006a102a 	slt	v0,v1,t2
  4052d4:	1040000e 	beqz	v0,405310 <_time_t2tm+0x240>
  4052d8:	00c01021 	move	v0,a2
  4052dc:	2402001d 	li	v0,29
  4052e0:	14620002 	bne	v1,v0,4052ec <_time_t2tm+0x21c>
  4052e4:	01435023 	subu	t2,t2,v1
  4052e8:	24e7fff5 	addiu	a3,a3,-11
  4052ec:	8d220000 	lw	v0,0(t1)
  4052f0:	24e70001 	addiu	a3,a3,1
  4052f4:	24420001 	addiu	v0,v0,1
  4052f8:	ad220000 	sw	v0,0(t1)
  4052fc:	90e30000 	lbu	v1,0(a3)
  405300:	00000000 	nop
  405304:	006a102a 	slt	v0,v1,t2
  405308:	1440fff4 	bnez	v0,4052dc <_time_t2tm+0x20c>
  40530c:	00c01021 	move	v0,a2
  405310:	ad2afffc 	sw	t2,-4(t1)
  405314:	03e00008 	jr	ra
  405318:	ad200010 	sw	zero,16(t1)
  40531c:	00000000 	nop

00405320 <pthread_exit>:
  405320:	3c1c0001 	lui	gp,0x1
  405324:	279c9740 	addiu	gp,gp,-26816
  405328:	0399e021 	addu	gp,gp,t9
  40532c:	27bdffe0 	addiu	sp,sp,-32
  405330:	afbc0010 	sw	gp,16(sp)
  405334:	00002021 	move	a0,zero
  405338:	afbf001c 	sw	ra,28(sp)
  40533c:	afbc0018 	sw	gp,24(sp)
  405340:	8f9900b4 	lw	t9,180(gp)
  405344:	00000000 	nop
  405348:	0320f809 	jalr	t9
  40534c:	00000000 	nop
  405350:	8fbc0010 	lw	gp,16(sp)
  405354:	00000000 	nop

00405358 <__pthread_return_0>:
  405358:	3c1c0001 	lui	gp,0x1
  40535c:	279c9708 	addiu	gp,gp,-26872
  405360:	0399e021 	addu	gp,gp,t9
  405364:	03e00008 	jr	ra
  405368:	00001021 	move	v0,zero

0040536c <__pthread_return_1>:
  40536c:	3c1c0001 	lui	gp,0x1
  405370:	279c96f4 	addiu	gp,gp,-26892
  405374:	0399e021 	addu	gp,gp,t9
  405378:	03e00008 	jr	ra
  40537c:	24020001 	li	v0,1

00405380 <__pthread_return_void>:
  405380:	3c1c0001 	lui	gp,0x1
  405384:	279c96e0 	addiu	gp,gp,-26912
  405388:	0399e021 	addu	gp,gp,t9
  40538c:	03e00008 	jr	ra
  405390:	00000000 	nop
	...

004053a0 <fclose>:
  4053a0:	3c1c0001 	lui	gp,0x1
  4053a4:	279c96c0 	addiu	gp,gp,-26944
  4053a8:	0399e021 	addu	gp,gp,t9
  4053ac:	27bdffd8 	addiu	sp,sp,-40
  4053b0:	afbc0010 	sw	gp,16(sp)
  4053b4:	afb1001c 	sw	s1,28(sp)
  4053b8:	afb00018 	sw	s0,24(sp)
  4053bc:	afbf0024 	sw	ra,36(sp)
  4053c0:	afbc0020 	sw	gp,32(sp)
  4053c4:	00808021 	move	s0,a0
  4053c8:	00008821 	move	s1,zero
  4053cc:	8e020034 	lw	v0,52(s0)
  4053d0:	00000000 	nop
  4053d4:	14400007 	bnez	v0,4053f4 <fclose+0x54>
  4053d8:	26040038 	addiu	a0,s0,56
  4053dc:	8f990344 	lw	t9,836(gp)
  4053e0:	00000000 	nop
  4053e4:	0320f809 	jalr	t9
  4053e8:	00000000 	nop
  4053ec:	8fbc0010 	lw	gp,16(sp)
  4053f0:	00000000 	nop
  4053f4:	8f84009c 	lw	a0,156(gp)
  4053f8:	8f99021c 	lw	t9,540(gp)
  4053fc:	00000000 	nop
  405400:	0320f809 	jalr	t9
  405404:	00000000 	nop
  405408:	8fbc0010 	lw	gp,16(sp)
  40540c:	10400012 	beqz	v0,405458 <fclose+0xb8>
  405410:	26040038 	addiu	a0,s0,56
  405414:	8e020034 	lw	v0,52(s0)
  405418:	00000000 	nop
  40541c:	14400006 	bnez	v0,405438 <fclose+0x98>
  405420:	00000000 	nop
  405424:	8f990234 	lw	t9,564(gp)
  405428:	00000000 	nop
  40542c:	0320f809 	jalr	t9
  405430:	00000000 	nop
  405434:	8fbc0010 	lw	gp,16(sp)
  405438:	24042710 	li	a0,10000
  40543c:	8f990314 	lw	t9,788(gp)
  405440:	00000000 	nop
  405444:	0320f809 	jalr	t9
  405448:	00000000 	nop
  40544c:	8fbc0010 	lw	gp,16(sp)
  405450:	1000ffde 	b	4053cc <fclose+0x2c>
  405454:	00000000 	nop
  405458:	96020000 	lhu	v0,0(s0)
  40545c:	00000000 	nop
  405460:	30422000 	andi	v0,v0,0x2000
  405464:	10400007 	beqz	v0,405484 <fclose+0xe4>
  405468:	02002021 	move	a0,s0
  40546c:	8f9900f0 	lw	t9,240(gp)
  405470:	00000000 	nop
  405474:	0320f809 	jalr	t9
  405478:	00000000 	nop
  40547c:	8fbc0010 	lw	gp,16(sp)
  405480:	00408821 	move	s1,v0
  405484:	8e020014 	lw	v0,20(s0)
  405488:	00000000 	nop
  40548c:	ae020024 	sw	v0,36(s0)
  405490:	8f830210 	lw	v1,528(gp)
  405494:	00000000 	nop
  405498:	8c630000 	lw	v1,0(v1)
  40549c:	00000000 	nop
  4054a0:	14700009 	bne	v1,s0,4054c8 <fclose+0x128>
  4054a4:	00000000 	nop
  4054a8:	8e020010 	lw	v0,16(s0)
  4054ac:	8f810210 	lw	at,528(gp)
  4054b0:	00000000 	nop
  4054b4:	1000000c 	b	4054e8 <fclose+0x148>
  4054b8:	ac220000 	sw	v0,0(at)
  4054bc:	8e020010 	lw	v0,16(s0)
  4054c0:	10000009 	b	4054e8 <fclose+0x148>
  4054c4:	ac620010 	sw	v0,16(v1)
  4054c8:	10600007 	beqz	v1,4054e8 <fclose+0x148>
  4054cc:	00000000 	nop
  4054d0:	8c620010 	lw	v0,16(v1)
  4054d4:	00000000 	nop
  4054d8:	1050fff8 	beq	v0,s0,4054bc <fclose+0x11c>
  4054dc:	00000000 	nop
  4054e0:	1440fffb 	bnez	v0,4054d0 <fclose+0x130>
  4054e4:	00401821 	move	v1,v0
  4054e8:	8f84009c 	lw	a0,156(gp)
  4054ec:	8f990234 	lw	t9,564(gp)
  4054f0:	00000000 	nop
  4054f4:	0320f809 	jalr	t9
  4054f8:	00000000 	nop
  4054fc:	8fbc0010 	lw	gp,16(sp)
  405500:	8e04000c 	lw	a0,12(s0)
  405504:	8f990038 	lw	t9,56(gp)
  405508:	00000000 	nop
  40550c:	0320f809 	jalr	t9
  405510:	00000000 	nop
  405514:	8fbc0010 	lw	gp,16(sp)
  405518:	04410002 	bgez	v0,405524 <fclose+0x184>
  40551c:	00000000 	nop
  405520:	2411ffff 	li	s1,-1
  405524:	96020000 	lhu	v0,0(s0)
  405528:	2403ffff 	li	v1,-1
  40552c:	30424000 	andi	v0,v0,0x4000
  405530:	10400007 	beqz	v0,405550 <fclose+0x1b0>
  405534:	ae03000c 	sw	v1,12(s0)
  405538:	8e040014 	lw	a0,20(s0)
  40553c:	8f990020 	lw	t9,32(gp)
  405540:	00000000 	nop
  405544:	0320f809 	jalr	t9
  405548:	00000000 	nop
  40554c:	8fbc0010 	lw	gp,16(sp)
  405550:	8e020034 	lw	v0,52(s0)
  405554:	00000000 	nop
  405558:	14400006 	bnez	v0,405574 <fclose+0x1d4>
  40555c:	26040038 	addiu	a0,s0,56
  405560:	8f990234 	lw	t9,564(gp)
  405564:	00000000 	nop
  405568:	0320f809 	jalr	t9
  40556c:	00000000 	nop
  405570:	8fbc0010 	lw	gp,16(sp)
  405574:	96020000 	lhu	v0,0(s0)
  405578:	00000000 	nop
  40557c:	30420040 	andi	v0,v0,0x40
  405580:	10400008 	beqz	v0,4055a4 <fclose+0x204>
  405584:	02201021 	move	v0,s1
  405588:	02002021 	move	a0,s0
  40558c:	8f990020 	lw	t9,32(gp)
  405590:	00000000 	nop
  405594:	0320f809 	jalr	t9
  405598:	00000000 	nop
  40559c:	8fbc0010 	lw	gp,16(sp)
  4055a0:	02201021 	move	v0,s1
  4055a4:	8fbf0024 	lw	ra,36(sp)
  4055a8:	8fb1001c 	lw	s1,28(sp)
  4055ac:	8fb00018 	lw	s0,24(sp)
  4055b0:	03e00008 	jr	ra
  4055b4:	27bd0028 	addiu	sp,sp,40
	...

004055c0 <fflush>:
  4055c0:	3c1c0001 	lui	gp,0x1
  4055c4:	279c94a0 	addiu	gp,gp,-27488
  4055c8:	0399e021 	addu	gp,gp,t9
  4055cc:	27bdffd8 	addiu	sp,sp,-40
  4055d0:	afbc0010 	sw	gp,16(sp)
  4055d4:	afb00018 	sw	s0,24(sp)
  4055d8:	afbf0024 	sw	ra,36(sp)
  4055dc:	afbc0020 	sw	gp,32(sp)
  4055e0:	afb1001c 	sw	s1,28(sp)
  4055e4:	10800020 	beqz	a0,405668 <fflush+0xa8>
  4055e8:	00808021 	move	s0,a0
  4055ec:	8f820210 	lw	v0,528(gp)
  4055f0:	00000000 	nop
  4055f4:	1082001c 	beq	a0,v0,405668 <fflush+0xa8>
  4055f8:	00000000 	nop
  4055fc:	8c820034 	lw	v0,52(a0)
  405600:	00000000 	nop
  405604:	14400006 	bnez	v0,405620 <fflush+0x60>
  405608:	24840038 	addiu	a0,a0,56
  40560c:	8f990344 	lw	t9,836(gp)
  405610:	00000000 	nop
  405614:	0320f809 	jalr	t9
  405618:	00000000 	nop
  40561c:	8fbc0010 	lw	gp,16(sp)
  405620:	02002021 	move	a0,s0
  405624:	8f9900f0 	lw	t9,240(gp)
  405628:	00000000 	nop
  40562c:	0320f809 	jalr	t9
  405630:	00000000 	nop
  405634:	8fbc0010 	lw	gp,16(sp)
  405638:	00408821 	move	s1,v0
  40563c:	8e020034 	lw	v0,52(s0)
  405640:	00000000 	nop
  405644:	1440000e 	bnez	v0,405680 <fflush+0xc0>
  405648:	26040038 	addiu	a0,s0,56
  40564c:	8f990234 	lw	t9,564(gp)
  405650:	00000000 	nop
  405654:	0320f809 	jalr	t9
  405658:	00000000 	nop
  40565c:	8fbc0010 	lw	gp,16(sp)
  405660:	10000008 	b	405684 <fflush+0xc4>
  405664:	02201021 	move	v0,s1
  405668:	8f9900f0 	lw	t9,240(gp)
  40566c:	00000000 	nop
  405670:	0320f809 	jalr	t9
  405674:	00000000 	nop
  405678:	8fbc0010 	lw	gp,16(sp)
  40567c:	00408821 	move	s1,v0
  405680:	02201021 	move	v0,s1
  405684:	8fbf0024 	lw	ra,36(sp)
  405688:	8fb1001c 	lw	s1,28(sp)
  40568c:	8fb00018 	lw	s0,24(sp)
  405690:	03e00008 	jr	ra
  405694:	27bd0028 	addiu	sp,sp,40

00405698 <fflush_unlocked>:
  405698:	3c1c0001 	lui	gp,0x1
  40569c:	279c93c8 	addiu	gp,gp,-27704
  4056a0:	0399e021 	addu	gp,gp,t9
  4056a4:	27bdffd0 	addiu	sp,sp,-48
  4056a8:	afbc0010 	sw	gp,16(sp)
  4056ac:	8f820210 	lw	v0,528(gp)
  4056b0:	afb20020 	sw	s2,32(sp)
  4056b4:	afb1001c 	sw	s1,28(sp)
  4056b8:	afb00018 	sw	s0,24(sp)
  4056bc:	afbf0028 	sw	ra,40(sp)
  4056c0:	afbc0024 	sw	gp,36(sp)
  4056c4:	00808021 	move	s0,a0
  4056c8:	00008821 	move	s1,zero
  4056cc:	14820003 	bne	a0,v0,4056dc <fflush_unlocked+0x44>
  4056d0:	24120300 	li	s2,768
  4056d4:	00008021 	move	s0,zero
  4056d8:	24120100 	li	s2,256
  4056dc:	1600002a 	bnez	s0,405788 <fflush_unlocked+0xf0>
  4056e0:	00000000 	nop
  4056e4:	8f84009c 	lw	a0,156(gp)
  4056e8:	8f990344 	lw	t9,836(gp)
  4056ec:	00000000 	nop
  4056f0:	0320f809 	jalr	t9
  4056f4:	00000000 	nop
  4056f8:	8fbc0010 	lw	gp,16(sp)
  4056fc:	00000000 	nop
  405700:	8f900210 	lw	s0,528(gp)
  405704:	00000000 	nop
  405708:	8e100000 	lw	s0,0(s0)
  40570c:	00000000 	nop
  405710:	12000015 	beqz	s0,405768 <fflush_unlocked+0xd0>
  405714:	00000000 	nop
  405718:	96030000 	lhu	v1,0(s0)
  40571c:	00000000 	nop
  405720:	38620200 	xori	v0,v1,0x200
  405724:	02421024 	and	v0,s2,v0
  405728:	1040000b 	beqz	v0,405758 <fflush_unlocked+0xc0>
  40572c:	30632000 	andi	v1,v1,0x2000
  405730:	10600009 	beqz	v1,405758 <fflush_unlocked+0xc0>
  405734:	02002021 	move	a0,s0
  405738:	8f9902a4 	lw	t9,676(gp)
  40573c:	00000000 	nop
  405740:	0320f809 	jalr	t9
  405744:	00000000 	nop
  405748:	8fbc0010 	lw	gp,16(sp)
  40574c:	10400002 	beqz	v0,405758 <fflush_unlocked+0xc0>
  405750:	00000000 	nop
  405754:	2411ffff 	li	s1,-1
  405758:	8e100010 	lw	s0,16(s0)
  40575c:	00000000 	nop
  405760:	1600ffed 	bnez	s0,405718 <fflush_unlocked+0x80>
  405764:	00000000 	nop
  405768:	8f84009c 	lw	a0,156(gp)
  40576c:	8f990234 	lw	t9,564(gp)
  405770:	00000000 	nop
  405774:	0320f809 	jalr	t9
  405778:	00000000 	nop
  40577c:	8fbc0010 	lw	gp,16(sp)
  405780:	10000012 	b	4057cc <fflush_unlocked+0x134>
  405784:	02201021 	move	v0,s1
  405788:	96020000 	lhu	v0,0(s0)
  40578c:	00000000 	nop
  405790:	30422000 	andi	v0,v0,0x2000
  405794:	1040000d 	beqz	v0,4057cc <fflush_unlocked+0x134>
  405798:	02201021 	move	v0,s1
  40579c:	02003021 	move	a2,s0
  4057a0:	00002021 	move	a0,zero
  4057a4:	00002821 	move	a1,zero
  4057a8:	8f990358 	lw	t9,856(gp)
  4057ac:	00000000 	nop
  4057b0:	0320f809 	jalr	t9
  4057b4:	00000000 	nop
  4057b8:	8fbc0010 	lw	gp,16(sp)
  4057bc:	10400003 	beqz	v0,4057cc <fflush_unlocked+0x134>
  4057c0:	02201021 	move	v0,s1
  4057c4:	2411ffff 	li	s1,-1
  4057c8:	02201021 	move	v0,s1
  4057cc:	8fbf0028 	lw	ra,40(sp)
  4057d0:	8fb20020 	lw	s2,32(sp)
  4057d4:	8fb1001c 	lw	s1,28(sp)
  4057d8:	8fb00018 	lw	s0,24(sp)
  4057dc:	03e00008 	jr	ra
  4057e0:	27bd0030 	addiu	sp,sp,48
	...

004057f0 <fopen>:
  4057f0:	3c1c0001 	lui	gp,0x1
  4057f4:	279c9270 	addiu	gp,gp,-28048
  4057f8:	0399e021 	addu	gp,gp,t9
  4057fc:	27bdffe0 	addiu	sp,sp,-32
  405800:	afbc0010 	sw	gp,16(sp)
  405804:	00003021 	move	a2,zero
  405808:	2407ffff 	li	a3,-1
  40580c:	afbf001c 	sw	ra,28(sp)
  405810:	afbc0018 	sw	gp,24(sp)
  405814:	8f990124 	lw	t9,292(gp)
  405818:	00000000 	nop
  40581c:	0320f809 	jalr	t9
  405820:	00000000 	nop
  405824:	8fbc0010 	lw	gp,16(sp)
  405828:	8fbf001c 	lw	ra,28(sp)
  40582c:	00000000 	nop
  405830:	03e00008 	jr	ra
  405834:	27bd0020 	addiu	sp,sp,32
	...

00405840 <perror>:
  405840:	3c1c0001 	lui	gp,0x1
  405844:	279c9220 	addiu	gp,gp,-28128
  405848:	0399e021 	addu	gp,gp,t9
  40584c:	27bdff90 	addiu	sp,sp,-112
  405850:	afbc0018 	sw	gp,24(sp)
  405854:	afb10064 	sw	s1,100(sp)
  405858:	afb00060 	sw	s0,96(sp)
  40585c:	afbf006c 	sw	ra,108(sp)
  405860:	afbc0068 	sw	gp,104(sp)
  405864:	8f91000c 	lw	s1,12(gp)
  405868:	00000000 	nop
  40586c:	2631faa0 	addiu	s1,s1,-1376
  405870:	10800005 	beqz	a0,405888 <perror+0x48>
  405874:	00808021 	move	s0,a0
  405878:	80820000 	lb	v0,0(a0)
  40587c:	00000000 	nop
  405880:	14400003 	bnez	v0,405890 <perror+0x50>
  405884:	00000000 	nop
  405888:	26310002 	addiu	s1,s1,2
  40588c:	02208021 	move	s0,s1
  405890:	8f9900bc 	lw	t9,188(gp)
  405894:	00000000 	nop
  405898:	0320f809 	jalr	t9
  40589c:	00000000 	nop
  4058a0:	8fbc0018 	lw	gp,24(sp)
  4058a4:	8c440000 	lw	a0,0(v0)
  4058a8:	27a50020 	addiu	a1,sp,32
  4058ac:	24060040 	li	a2,64
  4058b0:	8f99027c 	lw	t9,636(gp)
  4058b4:	00000000 	nop
  4058b8:	0320f809 	jalr	t9
  4058bc:	00000000 	nop
  4058c0:	8fbc0018 	lw	gp,24(sp)
  4058c4:	00000000 	nop
  4058c8:	8f840110 	lw	a0,272(gp)
  4058cc:	00000000 	nop
  4058d0:	8c840000 	lw	a0,0(a0)
  4058d4:	02003021 	move	a2,s0
  4058d8:	02203821 	move	a3,s1
  4058dc:	8f85000c 	lw	a1,12(gp)
  4058e0:	00000000 	nop
  4058e4:	24a5faa4 	addiu	a1,a1,-1372
  4058e8:	afa20010 	sw	v0,16(sp)
  4058ec:	8f990224 	lw	t9,548(gp)
  4058f0:	00000000 	nop
  4058f4:	0320f809 	jalr	t9
  4058f8:	00000000 	nop
  4058fc:	8fbc0018 	lw	gp,24(sp)
  405900:	8fbf006c 	lw	ra,108(sp)
  405904:	8fb10064 	lw	s1,100(sp)
  405908:	8fb00060 	lw	s0,96(sp)
  40590c:	03e00008 	jr	ra
  405910:	27bd0070 	addiu	sp,sp,112
	...

00405920 <fgets>:
  405920:	3c1c0001 	lui	gp,0x1
  405924:	279c9140 	addiu	gp,gp,-28352
  405928:	0399e021 	addu	gp,gp,t9
  40592c:	27bdffd0 	addiu	sp,sp,-48
  405930:	afbc0010 	sw	gp,16(sp)
  405934:	afb20020 	sw	s2,32(sp)
  405938:	afb1001c 	sw	s1,28(sp)
  40593c:	afb00018 	sw	s0,24(sp)
  405940:	afbf0028 	sw	ra,40(sp)
  405944:	afbc0024 	sw	gp,36(sp)
  405948:	8cc30034 	lw	v1,52(a2)
  40594c:	24c20038 	addiu	v0,a2,56
  405950:	00809021 	move	s2,a0
  405954:	00c08021 	move	s0,a2
  405958:	00402021 	move	a0,v0
  40595c:	14600006 	bnez	v1,405978 <fgets+0x58>
  405960:	00a08821 	move	s1,a1
  405964:	8f990344 	lw	t9,836(gp)
  405968:	00000000 	nop
  40596c:	0320f809 	jalr	t9
  405970:	00000000 	nop
  405974:	8fbc0010 	lw	gp,16(sp)
  405978:	02402021 	move	a0,s2
  40597c:	02202821 	move	a1,s1
  405980:	02003021 	move	a2,s0
  405984:	8f99008c 	lw	t9,140(gp)
  405988:	00000000 	nop
  40598c:	0320f809 	jalr	t9
  405990:	00000000 	nop
  405994:	8fbc0010 	lw	gp,16(sp)
  405998:	00408821 	move	s1,v0
  40599c:	8e020034 	lw	v0,52(s0)
  4059a0:	00000000 	nop
  4059a4:	14400006 	bnez	v0,4059c0 <fgets+0xa0>
  4059a8:	26040038 	addiu	a0,s0,56
  4059ac:	8f990234 	lw	t9,564(gp)
  4059b0:	00000000 	nop
  4059b4:	0320f809 	jalr	t9
  4059b8:	00000000 	nop
  4059bc:	8fbc0010 	lw	gp,16(sp)
  4059c0:	02201021 	move	v0,s1
  4059c4:	8fbf0028 	lw	ra,40(sp)
  4059c8:	8fb20020 	lw	s2,32(sp)
  4059cc:	8fb1001c 	lw	s1,28(sp)
  4059d0:	8fb00018 	lw	s0,24(sp)
  4059d4:	03e00008 	jr	ra
  4059d8:	27bd0030 	addiu	sp,sp,48

004059dc <fgets_unlocked>:
  4059dc:	3c1c0001 	lui	gp,0x1
  4059e0:	279c9084 	addiu	gp,gp,-28540
  4059e4:	0399e021 	addu	gp,gp,t9
  4059e8:	27bdffd0 	addiu	sp,sp,-48
  4059ec:	afbc0010 	sw	gp,16(sp)
  4059f0:	afb30024 	sw	s3,36(sp)
  4059f4:	afb20020 	sw	s2,32(sp)
  4059f8:	afbf002c 	sw	ra,44(sp)
  4059fc:	afbc0028 	sw	gp,40(sp)
  405a00:	afb1001c 	sw	s1,28(sp)
  405a04:	afb00018 	sw	s0,24(sp)
  405a08:	00809021 	move	s2,a0
  405a0c:	18a00022 	blez	a1,405a98 <fgets_unlocked+0xbc>
  405a10:	00c09821 	move	s3,a2
  405a14:	24b0ffff 	addiu	s0,a1,-1
  405a18:	1200001a 	beqz	s0,405a84 <fgets_unlocked+0xa8>
  405a1c:	00808821 	move	s1,a0
  405a20:	02602021 	move	a0,s3
  405a24:	8f99032c 	lw	t9,812(gp)
  405a28:	00000000 	nop
  405a2c:	0320f809 	jalr	t9
  405a30:	00000000 	nop
  405a34:	8fbc0010 	lw	gp,16(sp)
  405a38:	00401821 	move	v1,v0
  405a3c:	00021600 	sll	v0,v0,0x18
  405a40:	00022603 	sra	a0,v0,0x18
  405a44:	2402ffff 	li	v0,-1
  405a48:	14620008 	bne	v1,v0,405a6c <fgets_unlocked+0x90>
  405a4c:	2610ffff 	addiu	s0,s0,-1
  405a50:	96620000 	lhu	v0,0(s3)
  405a54:	00000000 	nop
  405a58:	30420008 	andi	v0,v0,0x8
  405a5c:	10400009 	beqz	v0,405a84 <fgets_unlocked+0xa8>
  405a60:	00001021 	move	v0,zero
  405a64:	1000000d 	b	405a9c <fgets_unlocked+0xc0>
  405a68:	00000000 	nop
  405a6c:	2402000a 	li	v0,10
  405a70:	a2230000 	sb	v1,0(s1)
  405a74:	10820003 	beq	a0,v0,405a84 <fgets_unlocked+0xa8>
  405a78:	26310001 	addiu	s1,s1,1
  405a7c:	1600ffe9 	bnez	s0,405a24 <fgets_unlocked+0x48>
  405a80:	02602021 	move	a0,s3
  405a84:	0251102b 	sltu	v0,s2,s1
  405a88:	10400003 	beqz	v0,405a98 <fgets_unlocked+0xbc>
  405a8c:	02401021 	move	v0,s2
  405a90:	10000002 	b	405a9c <fgets_unlocked+0xc0>
  405a94:	a2200000 	sb	zero,0(s1)
  405a98:	00001021 	move	v0,zero
  405a9c:	8fbf002c 	lw	ra,44(sp)
  405aa0:	8fb30024 	lw	s3,36(sp)
  405aa4:	8fb20020 	lw	s2,32(sp)
  405aa8:	8fb1001c 	lw	s1,28(sp)
  405aac:	8fb00018 	lw	s0,24(sp)
  405ab0:	03e00008 	jr	ra
  405ab4:	27bd0030 	addiu	sp,sp,48
	...

00405ac0 <fputs>:
  405ac0:	3c1c0001 	lui	gp,0x1
  405ac4:	279c8fa0 	addiu	gp,gp,-28768
  405ac8:	0399e021 	addu	gp,gp,t9
  405acc:	27bdffd8 	addiu	sp,sp,-40
  405ad0:	afbc0010 	sw	gp,16(sp)
  405ad4:	afb1001c 	sw	s1,28(sp)
  405ad8:	afb00018 	sw	s0,24(sp)
  405adc:	afbf0024 	sw	ra,36(sp)
  405ae0:	afbc0020 	sw	gp,32(sp)
  405ae4:	8ca30034 	lw	v1,52(a1)
  405ae8:	24a20038 	addiu	v0,a1,56
  405aec:	00808821 	move	s1,a0
  405af0:	00a08021 	move	s0,a1
  405af4:	14600006 	bnez	v1,405b10 <fputs+0x50>
  405af8:	00402021 	move	a0,v0
  405afc:	8f990344 	lw	t9,836(gp)
  405b00:	00000000 	nop
  405b04:	0320f809 	jalr	t9
  405b08:	00000000 	nop
  405b0c:	8fbc0010 	lw	gp,16(sp)
  405b10:	02202021 	move	a0,s1
  405b14:	02002821 	move	a1,s0
  405b18:	8f990220 	lw	t9,544(gp)
  405b1c:	00000000 	nop
  405b20:	0320f809 	jalr	t9
  405b24:	00000000 	nop
  405b28:	8fbc0010 	lw	gp,16(sp)
  405b2c:	00408821 	move	s1,v0
  405b30:	8e020034 	lw	v0,52(s0)
  405b34:	00000000 	nop
  405b38:	14400006 	bnez	v0,405b54 <fputs+0x94>
  405b3c:	26040038 	addiu	a0,s0,56
  405b40:	8f990234 	lw	t9,564(gp)
  405b44:	00000000 	nop
  405b48:	0320f809 	jalr	t9
  405b4c:	00000000 	nop
  405b50:	8fbc0010 	lw	gp,16(sp)
  405b54:	02201021 	move	v0,s1
  405b58:	8fbf0024 	lw	ra,36(sp)
  405b5c:	8fb1001c 	lw	s1,28(sp)
  405b60:	8fb00018 	lw	s0,24(sp)
  405b64:	03e00008 	jr	ra
  405b68:	27bd0028 	addiu	sp,sp,40

00405b6c <fputs_unlocked>:
  405b6c:	3c1c0001 	lui	gp,0x1
  405b70:	279c8ef4 	addiu	gp,gp,-28940
  405b74:	0399e021 	addu	gp,gp,t9
  405b78:	27bdffd0 	addiu	sp,sp,-48
  405b7c:	afbc0010 	sw	gp,16(sp)
  405b80:	afbf0028 	sw	ra,40(sp)
  405b84:	afb20020 	sw	s2,32(sp)
  405b88:	afb1001c 	sw	s1,28(sp)
  405b8c:	afb00018 	sw	s0,24(sp)
  405b90:	afbc0024 	sw	gp,36(sp)
  405b94:	00a08821 	move	s1,a1
  405b98:	00808021 	move	s0,a0
  405b9c:	8f99007c 	lw	t9,124(gp)
  405ba0:	00000000 	nop
  405ba4:	0320f809 	jalr	t9
  405ba8:	00000000 	nop
  405bac:	8fbc0010 	lw	gp,16(sp)
  405bb0:	00403021 	move	a2,v0
  405bb4:	02002021 	move	a0,s0
  405bb8:	02203821 	move	a3,s1
  405bbc:	24050001 	li	a1,1
  405bc0:	00409021 	move	s2,v0
  405bc4:	8f9900ec 	lw	t9,236(gp)
  405bc8:	00000000 	nop
  405bcc:	0320f809 	jalr	t9
  405bd0:	00000000 	nop
  405bd4:	8fbc0010 	lw	gp,16(sp)
  405bd8:	10520002 	beq	v0,s2,405be4 <fputs_unlocked+0x78>
  405bdc:	00401821 	move	v1,v0
  405be0:	2403ffff 	li	v1,-1
  405be4:	8fbf0028 	lw	ra,40(sp)
  405be8:	8fb20020 	lw	s2,32(sp)
  405bec:	8fb1001c 	lw	s1,28(sp)
  405bf0:	8fb00018 	lw	s0,24(sp)
  405bf4:	00601021 	move	v0,v1
  405bf8:	03e00008 	jr	ra
  405bfc:	27bd0030 	addiu	sp,sp,48

00405c00 <getc>:
  405c00:	3c1c0001 	lui	gp,0x1
  405c04:	279c8e60 	addiu	gp,gp,-29088
  405c08:	0399e021 	addu	gp,gp,t9
  405c0c:	27bdffd8 	addiu	sp,sp,-40
  405c10:	afbc0010 	sw	gp,16(sp)
  405c14:	afb00018 	sw	s0,24(sp)
  405c18:	afbf0024 	sw	ra,36(sp)
  405c1c:	afbc0020 	sw	gp,32(sp)
  405c20:	afb1001c 	sw	s1,28(sp)
  405c24:	8c820034 	lw	v0,52(a0)
  405c28:	00808021 	move	s0,a0
  405c2c:	14400006 	bnez	v0,405c48 <getc+0x48>
  405c30:	24840038 	addiu	a0,a0,56
  405c34:	8f990344 	lw	t9,836(gp)
  405c38:	00000000 	nop
  405c3c:	0320f809 	jalr	t9
  405c40:	00000000 	nop
  405c44:	8fbc0010 	lw	gp,16(sp)
  405c48:	02002021 	move	a0,s0
  405c4c:	8f99032c 	lw	t9,812(gp)
  405c50:	00000000 	nop
  405c54:	0320f809 	jalr	t9
  405c58:	00000000 	nop
  405c5c:	8fbc0010 	lw	gp,16(sp)
  405c60:	00408821 	move	s1,v0
  405c64:	8e020034 	lw	v0,52(s0)
  405c68:	00000000 	nop
  405c6c:	14400006 	bnez	v0,405c88 <getc+0x88>
  405c70:	26040038 	addiu	a0,s0,56
  405c74:	8f990234 	lw	t9,564(gp)
  405c78:	00000000 	nop
  405c7c:	0320f809 	jalr	t9
  405c80:	00000000 	nop
  405c84:	8fbc0010 	lw	gp,16(sp)
  405c88:	02201021 	move	v0,s1
  405c8c:	8fbf0024 	lw	ra,36(sp)
  405c90:	8fb1001c 	lw	s1,28(sp)
  405c94:	8fb00018 	lw	s0,24(sp)
  405c98:	03e00008 	jr	ra
  405c9c:	27bd0028 	addiu	sp,sp,40

00405ca0 <getc_unlocked>:
  405ca0:	3c1c0001 	lui	gp,0x1
  405ca4:	279c8dc0 	addiu	gp,gp,-29248
  405ca8:	0399e021 	addu	gp,gp,t9
  405cac:	27bdffe0 	addiu	sp,sp,-32
  405cb0:	afbc0010 	sw	gp,16(sp)
  405cb4:	afbf001c 	sw	ra,28(sp)
  405cb8:	afbc0018 	sw	gp,24(sp)
  405cbc:	8c83001c 	lw	v1,28(a0)
  405cc0:	8c820024 	lw	v0,36(a0)
  405cc4:	00000000 	nop
  405cc8:	0062102b 	sltu	v0,v1,v0
  405ccc:	10400004 	beqz	v0,405ce0 <getc_unlocked+0x40>
  405cd0:	24660001 	addiu	a2,v1,1
  405cd4:	90620000 	lbu	v0,0(v1)
  405cd8:	10000006 	b	405cf4 <getc_unlocked+0x54>
  405cdc:	ac86001c 	sw	a2,28(a0)
  405ce0:	8f9900c8 	lw	t9,200(gp)
  405ce4:	00000000 	nop
  405ce8:	0320f809 	jalr	t9
  405cec:	00000000 	nop
  405cf0:	8fbc0010 	lw	gp,16(sp)
  405cf4:	8fbf001c 	lw	ra,28(sp)
  405cf8:	00000000 	nop
  405cfc:	03e00008 	jr	ra
  405d00:	27bd0020 	addiu	sp,sp,32
	...

00405d10 <puts>:
  405d10:	3c1c0001 	lui	gp,0x1
  405d14:	279c8d50 	addiu	gp,gp,-29360
  405d18:	0399e021 	addu	gp,gp,t9
  405d1c:	27bdffd8 	addiu	sp,sp,-40
  405d20:	afbc0010 	sw	gp,16(sp)
  405d24:	afb00018 	sw	s0,24(sp)
  405d28:	8f900368 	lw	s0,872(gp)
  405d2c:	00000000 	nop
  405d30:	8e100000 	lw	s0,0(s0)
  405d34:	afb1001c 	sw	s1,28(sp)
  405d38:	afbf0024 	sw	ra,36(sp)
  405d3c:	afbc0020 	sw	gp,32(sp)
  405d40:	8e020034 	lw	v0,52(s0)
  405d44:	00808821 	move	s1,a0
  405d48:	14400006 	bnez	v0,405d64 <puts+0x54>
  405d4c:	26040038 	addiu	a0,s0,56
  405d50:	8f990344 	lw	t9,836(gp)
  405d54:	00000000 	nop
  405d58:	0320f809 	jalr	t9
  405d5c:	00000000 	nop
  405d60:	8fbc0010 	lw	gp,16(sp)
  405d64:	02202021 	move	a0,s1
  405d68:	02002821 	move	a1,s0
  405d6c:	8f990220 	lw	t9,544(gp)
  405d70:	00000000 	nop
  405d74:	0320f809 	jalr	t9
  405d78:	00000000 	nop
  405d7c:	8fbc0010 	lw	gp,16(sp)
  405d80:	2404000a 	li	a0,10
  405d84:	02002821 	move	a1,s0
  405d88:	24510001 	addiu	s1,v0,1
  405d8c:	8f990054 	lw	t9,84(gp)
  405d90:	00000000 	nop
  405d94:	0320f809 	jalr	t9
  405d98:	00000000 	nop
  405d9c:	8fbc0010 	lw	gp,16(sp)
  405da0:	2403ffff 	li	v1,-1
  405da4:	14430002 	bne	v0,v1,405db0 <puts+0xa0>
  405da8:	26040038 	addiu	a0,s0,56
  405dac:	2411ffff 	li	s1,-1
  405db0:	8e020034 	lw	v0,52(s0)
  405db4:	00000000 	nop
  405db8:	14400007 	bnez	v0,405dd8 <puts+0xc8>
  405dbc:	02201021 	move	v0,s1
  405dc0:	8f990234 	lw	t9,564(gp)
  405dc4:	00000000 	nop
  405dc8:	0320f809 	jalr	t9
  405dcc:	00000000 	nop
  405dd0:	8fbc0010 	lw	gp,16(sp)
  405dd4:	02201021 	move	v0,s1
  405dd8:	8fbf0024 	lw	ra,36(sp)
  405ddc:	8fb1001c 	lw	s1,28(sp)
  405de0:	8fb00018 	lw	s0,24(sp)
  405de4:	03e00008 	jr	ra
  405de8:	27bd0028 	addiu	sp,sp,40
  405dec:	00000000 	nop

00405df0 <fwrite>:
  405df0:	3c1c0001 	lui	gp,0x1
  405df4:	279c8c70 	addiu	gp,gp,-29584
  405df8:	0399e021 	addu	gp,gp,t9
  405dfc:	27bdffd0 	addiu	sp,sp,-48
  405e00:	afbc0010 	sw	gp,16(sp)
  405e04:	afb30024 	sw	s3,36(sp)
  405e08:	afb20020 	sw	s2,32(sp)
  405e0c:	afb1001c 	sw	s1,28(sp)
  405e10:	afb00018 	sw	s0,24(sp)
  405e14:	afbf002c 	sw	ra,44(sp)
  405e18:	afbc0028 	sw	gp,40(sp)
  405e1c:	8ce30034 	lw	v1,52(a3)
  405e20:	24e20038 	addiu	v0,a3,56
  405e24:	00809821 	move	s3,a0
  405e28:	00e08021 	move	s0,a3
  405e2c:	00402021 	move	a0,v0
  405e30:	00a08821 	move	s1,a1
  405e34:	14600006 	bnez	v1,405e50 <fwrite+0x60>
  405e38:	00c09021 	move	s2,a2
  405e3c:	8f990344 	lw	t9,836(gp)
  405e40:	00000000 	nop
  405e44:	0320f809 	jalr	t9
  405e48:	00000000 	nop
  405e4c:	8fbc0010 	lw	gp,16(sp)
  405e50:	02602021 	move	a0,s3
  405e54:	02202821 	move	a1,s1
  405e58:	02403021 	move	a2,s2
  405e5c:	02003821 	move	a3,s0
  405e60:	8f9900ec 	lw	t9,236(gp)
  405e64:	00000000 	nop
  405e68:	0320f809 	jalr	t9
  405e6c:	00000000 	nop
  405e70:	8fbc0010 	lw	gp,16(sp)
  405e74:	00408821 	move	s1,v0
  405e78:	8e020034 	lw	v0,52(s0)
  405e7c:	00000000 	nop
  405e80:	14400006 	bnez	v0,405e9c <fwrite+0xac>
  405e84:	26040038 	addiu	a0,s0,56
  405e88:	8f990234 	lw	t9,564(gp)
  405e8c:	00000000 	nop
  405e90:	0320f809 	jalr	t9
  405e94:	00000000 	nop
  405e98:	8fbc0010 	lw	gp,16(sp)
  405e9c:	02201021 	move	v0,s1
  405ea0:	8fbf002c 	lw	ra,44(sp)
  405ea4:	8fb30024 	lw	s3,36(sp)
  405ea8:	8fb20020 	lw	s2,32(sp)
  405eac:	8fb1001c 	lw	s1,28(sp)
  405eb0:	8fb00018 	lw	s0,24(sp)
  405eb4:	03e00008 	jr	ra
  405eb8:	27bd0030 	addiu	sp,sp,48

00405ebc <fwrite_unlocked>:
  405ebc:	3c1c0001 	lui	gp,0x1
  405ec0:	279c8ba4 	addiu	gp,gp,-29788
  405ec4:	0399e021 	addu	gp,gp,t9
  405ec8:	27bdffd8 	addiu	sp,sp,-40
  405ecc:	afbc0010 	sw	gp,16(sp)
  405ed0:	94e20000 	lhu	v0,0(a3)
  405ed4:	afb00018 	sw	s0,24(sp)
  405ed8:	34480080 	ori	t0,v0,0x80
  405edc:	34430008 	ori	v1,v0,0x8
  405ee0:	30420800 	andi	v0,v0,0x800
  405ee4:	00a08021 	move	s0,a1
  405ee8:	afbf0020 	sw	ra,32(sp)
  405eec:	afbc001c 	sw	gp,28(sp)
  405ef0:	00004821 	move	t1,zero
  405ef4:	10400003 	beqz	v0,405f04 <fwrite_unlocked+0x48>
  405ef8:	00c02821 	move	a1,a2
  405efc:	10000012 	b	405f48 <fwrite_unlocked+0x8c>
  405f00:	a4e30000 	sh	v1,0(a3)
  405f04:	00e03021 	move	a2,a3
  405f08:	a4e80000 	sh	t0,0(a3)
  405f0c:	1200000d 	beqz	s0,405f44 <fwrite_unlocked+0x88>
  405f10:	00001021 	move	v0,zero
  405f14:	00b00018 	mult	a1,s0
  405f18:	00002812 	mflo	a1
  405f1c:	8f990358 	lw	t9,856(gp)
  405f20:	00000000 	nop
  405f24:	0320f809 	jalr	t9
  405f28:	00000000 	nop
  405f2c:	8fbc0010 	lw	gp,16(sp)
  405f30:	16000002 	bnez	s0,405f3c <fwrite_unlocked+0x80>
  405f34:	00000000 	nop
  405f38:	0007000d 	break	0x7
  405f3c:	0050001b 	divu	zero,v0,s0
  405f40:	00001012 	mflo	v0
  405f44:	00404821 	move	t1,v0
  405f48:	8fbf0020 	lw	ra,32(sp)
  405f4c:	8fb00018 	lw	s0,24(sp)
  405f50:	01201021 	move	v0,t1
  405f54:	03e00008 	jr	ra
  405f58:	27bd0028 	addiu	sp,sp,40
  405f5c:	00000000 	nop

00405f60 <fseek>:
  405f60:	3c1c0001 	lui	gp,0x1
  405f64:	279c8b00 	addiu	gp,gp,-29952
  405f68:	0399e021 	addu	gp,gp,t9
  405f6c:	27bdffc8 	addiu	sp,sp,-56
  405f70:	afbc0010 	sw	gp,16(sp)
  405f74:	2cc20003 	sltiu	v0,a2,3
  405f78:	afb20028 	sw	s2,40(sp)
  405f7c:	afb10024 	sw	s1,36(sp)
  405f80:	afb00020 	sw	s0,32(sp)
  405f84:	afbf0030 	sw	ra,48(sp)
  405f88:	afbc002c 	sw	gp,44(sp)
  405f8c:	00c08821 	move	s1,a2
  405f90:	00808021 	move	s0,a0
  405f94:	1440000a 	bnez	v0,405fc0 <fseek+0x60>
  405f98:	00a09021 	move	s2,a1
  405f9c:	8f9900bc 	lw	t9,188(gp)
  405fa0:	00000000 	nop
  405fa4:	0320f809 	jalr	t9
  405fa8:	00000000 	nop
  405fac:	8fbc0010 	lw	gp,16(sp)
  405fb0:	24030016 	li	v1,22
  405fb4:	2404ffff 	li	a0,-1
  405fb8:	10000041 	b	4060c0 <fseek+0x160>
  405fbc:	ac430000 	sw	v1,0(v0)
  405fc0:	8c820034 	lw	v0,52(a0)
  405fc4:	00000000 	nop
  405fc8:	14400006 	bnez	v0,405fe4 <fseek+0x84>
  405fcc:	24840038 	addiu	a0,a0,56
  405fd0:	8f990344 	lw	t9,836(gp)
  405fd4:	00000000 	nop
  405fd8:	0320f809 	jalr	t9
  405fdc:	00000000 	nop
  405fe0:	8fbc0010 	lw	gp,16(sp)
  405fe4:	96020000 	lhu	v0,0(s0)
  405fe8:	afb20018 	sw	s2,24(sp)
  405fec:	30422000 	andi	v0,v0,0x2000
  405ff0:	10400009 	beqz	v0,406018 <fseek+0xb8>
  405ff4:	2412ffff 	li	s2,-1
  405ff8:	02002021 	move	a0,s0
  405ffc:	8f9900f0 	lw	t9,240(gp)
  406000:	00000000 	nop
  406004:	0320f809 	jalr	t9
  406008:	00000000 	nop
  40600c:	8fbc0010 	lw	gp,16(sp)
  406010:	14400020 	bnez	v0,406094 <fseek+0x134>
  406014:	00000000 	nop
  406018:	24020001 	li	v0,1
  40601c:	1622000a 	bne	s1,v0,406048 <fseek+0xe8>
  406020:	02203021 	move	a2,s1
  406024:	02002021 	move	a0,s0
  406028:	27a50018 	addiu	a1,sp,24
  40602c:	8f9902e4 	lw	t9,740(gp)
  406030:	00000000 	nop
  406034:	0320f809 	jalr	t9
  406038:	00000000 	nop
  40603c:	8fbc0010 	lw	gp,16(sp)
  406040:	04400014 	bltz	v0,406094 <fseek+0x134>
  406044:	02203021 	move	a2,s1
  406048:	02002021 	move	a0,s0
  40604c:	27a50018 	addiu	a1,sp,24
  406050:	8f9902e8 	lw	t9,744(gp)
  406054:	00000000 	nop
  406058:	0320f809 	jalr	t9
  40605c:	00000000 	nop
  406060:	8fbc0010 	lw	gp,16(sp)
  406064:	0440000b 	bltz	v0,406094 <fseek+0x134>
  406068:	00000000 	nop
  40606c:	96020000 	lhu	v0,0(s0)
  406070:	8e030014 	lw	v1,20(s0)
  406074:	3042cff8 	andi	v0,v0,0xcff8
  406078:	ae030024 	sw	v1,36(s0)
  40607c:	a6020000 	sh	v0,0(s0)
  406080:	ae030020 	sw	v1,32(s0)
  406084:	ae03001c 	sw	v1,28(s0)
  406088:	a2000002 	sb	zero,2(s0)
  40608c:	ae00002c 	sw	zero,44(s0)
  406090:	00009021 	move	s2,zero
  406094:	8e020034 	lw	v0,52(s0)
  406098:	00000000 	nop
  40609c:	14400008 	bnez	v0,4060c0 <fseek+0x160>
  4060a0:	02402021 	move	a0,s2
  4060a4:	26040038 	addiu	a0,s0,56
  4060a8:	8f990234 	lw	t9,564(gp)
  4060ac:	00000000 	nop
  4060b0:	0320f809 	jalr	t9
  4060b4:	00000000 	nop
  4060b8:	8fbc0010 	lw	gp,16(sp)
  4060bc:	02402021 	move	a0,s2
  4060c0:	8fbf0030 	lw	ra,48(sp)
  4060c4:	8fb20028 	lw	s2,40(sp)
  4060c8:	8fb10024 	lw	s1,36(sp)
  4060cc:	8fb00020 	lw	s0,32(sp)
  4060d0:	00801021 	move	v0,a0
  4060d4:	03e00008 	jr	ra
  4060d8:	27bd0038 	addiu	sp,sp,56
  4060dc:	00000000 	nop

004060e0 <rewind>:
  4060e0:	3c1c0001 	lui	gp,0x1
  4060e4:	279c8980 	addiu	gp,gp,-30336
  4060e8:	0399e021 	addu	gp,gp,t9
  4060ec:	27bdffd8 	addiu	sp,sp,-40
  4060f0:	afbc0010 	sw	gp,16(sp)
  4060f4:	afb00018 	sw	s0,24(sp)
  4060f8:	afbf0020 	sw	ra,32(sp)
  4060fc:	afbc001c 	sw	gp,28(sp)
  406100:	8c820034 	lw	v0,52(a0)
  406104:	00808021 	move	s0,a0
  406108:	14400006 	bnez	v0,406124 <rewind+0x44>
  40610c:	24840038 	addiu	a0,a0,56
  406110:	8f990344 	lw	t9,836(gp)
  406114:	00000000 	nop
  406118:	0320f809 	jalr	t9
  40611c:	00000000 	nop
  406120:	8fbc0010 	lw	gp,16(sp)
  406124:	96020000 	lhu	v0,0(s0)
  406128:	02002021 	move	a0,s0
  40612c:	3042fff3 	andi	v0,v0,0xfff3
  406130:	00002821 	move	a1,zero
  406134:	a6020000 	sh	v0,0(s0)
  406138:	00003021 	move	a2,zero
  40613c:	8f9901fc 	lw	t9,508(gp)
  406140:	00000000 	nop
  406144:	0320f809 	jalr	t9
  406148:	00000000 	nop
  40614c:	8fbc0010 	lw	gp,16(sp)
  406150:	8e020034 	lw	v0,52(s0)
  406154:	00000000 	nop
  406158:	14400006 	bnez	v0,406174 <rewind+0x94>
  40615c:	26040038 	addiu	a0,s0,56
  406160:	8f990234 	lw	t9,564(gp)
  406164:	00000000 	nop
  406168:	0320f809 	jalr	t9
  40616c:	00000000 	nop
  406170:	8fbc0010 	lw	gp,16(sp)
  406174:	8fbf0020 	lw	ra,32(sp)
  406178:	8fb00018 	lw	s0,24(sp)
  40617c:	03e00008 	jr	ra
  406180:	27bd0028 	addiu	sp,sp,40
	...

00406190 <_stdio_fopen>:
  406190:	3c1c0001 	lui	gp,0x1
  406194:	279c88d0 	addiu	gp,gp,-30512
  406198:	0399e021 	addu	gp,gp,t9
  40619c:	27bdffd0 	addiu	sp,sp,-48
  4061a0:	afbc0010 	sw	gp,16(sp)
  4061a4:	afb30024 	sw	s3,36(sp)
  4061a8:	afb20020 	sw	s2,32(sp)
  4061ac:	afb1001c 	sw	s1,28(sp)
  4061b0:	afb00018 	sw	s0,24(sp)
  4061b4:	afbf002c 	sw	ra,44(sp)
  4061b8:	afbc0028 	sw	gp,40(sp)
  4061bc:	80a30000 	lb	v1,0(a1)
  4061c0:	24020072 	li	v0,114
  4061c4:	00808821 	move	s1,a0
  4061c8:	00c09021 	move	s2,a2
  4061cc:	00e08021 	move	s0,a3
  4061d0:	10620010 	beq	v1,v0,406214 <_stdio_fopen+0x84>
  4061d4:	00009821 	move	s3,zero
  4061d8:	24020077 	li	v0,119
  4061dc:	1062000d 	beq	v1,v0,406214 <_stdio_fopen+0x84>
  4061e0:	24130301 	li	s3,769
  4061e4:	24020061 	li	v0,97
  4061e8:	1062000a 	beq	v1,v0,406214 <_stdio_fopen+0x84>
  4061ec:	24130109 	li	s3,265
  4061f0:	8f9900bc 	lw	t9,188(gp)
  4061f4:	00000000 	nop
  4061f8:	0320f809 	jalr	t9
  4061fc:	00000000 	nop
  406200:	8fbc0010 	lw	gp,16(sp)
  406204:	24030016 	li	v1,22
  406208:	00002021 	move	a0,zero
  40620c:	100000ad 	b	4064c4 <_stdio_fopen+0x334>
  406210:	ac430000 	sw	v1,0(v0)
  406214:	24a50001 	addiu	a1,a1,1
  406218:	80a30000 	lb	v1,0(a1)
  40621c:	24020062 	li	v0,98
  406220:	14620004 	bne	v1,v0,406234 <_stdio_fopen+0xa4>
  406224:	2402002b 	li	v0,43
  406228:	24a50001 	addiu	a1,a1,1
  40622c:	80a30000 	lb	v1,0(a1)
  406230:	00000000 	nop
  406234:	14620003 	bne	v1,v0,406244 <_stdio_fopen+0xb4>
  406238:	2402fffe 	li	v0,-2
  40623c:	02629824 	and	s3,s3,v0
  406240:	36730002 	ori	s3,s3,0x2
  406244:	1640001c 	bnez	s2,4062b8 <_stdio_fopen+0x128>
  406248:	24040050 	li	a0,80
  40624c:	8f9902d4 	lw	t9,724(gp)
  406250:	00000000 	nop
  406254:	0320f809 	jalr	t9
  406258:	00000000 	nop
  40625c:	8fbc0010 	lw	gp,16(sp)
  406260:	00409021 	move	s2,v0
  406264:	10400097 	beqz	v0,4064c4 <_stdio_fopen+0x334>
  406268:	00002021 	move	a0,zero
  40626c:	24020040 	li	v0,64
  406270:	a6420000 	sh	v0,0(s2)
  406274:	24041000 	li	a0,4096
  406278:	8f9902d4 	lw	t9,724(gp)
  40627c:	00000000 	nop
  406280:	0320f809 	jalr	t9
  406284:	00000000 	nop
  406288:	8fbc0010 	lw	gp,16(sp)
  40628c:	00401821 	move	v1,v0
  406290:	10400007 	beqz	v0,4062b0 <_stdio_fopen+0x120>
  406294:	ae420014 	sw	v0,20(s2)
  406298:	96420000 	lhu	v0,0(s2)
  40629c:	24631000 	addiu	v1,v1,4096
  4062a0:	34424000 	ori	v0,v0,0x4000
  4062a4:	ae430018 	sw	v1,24(s2)
  4062a8:	10000003 	b	4062b8 <_stdio_fopen+0x128>
  4062ac:	a6420000 	sh	v0,0(s2)
  4062b0:	ae400018 	sw	zero,24(s2)
  4062b4:	ae400014 	sw	zero,20(s2)
  4062b8:	0600001d 	bltz	s0,406330 <_stdio_fopen+0x1a0>
  4062bc:	32630003 	andi	v1,s3,0x3
  4062c0:	24630001 	addiu	v1,v1,1
  4062c4:	26220001 	addiu	v0,s1,1
  4062c8:	00621024 	and	v0,v1,v0
  4062cc:	1443000e 	bne	v0,v1,406308 <_stdio_fopen+0x178>
  4062d0:	32620008 	andi	v0,s3,0x8
  4062d4:	10400014 	beqz	v0,406328 <_stdio_fopen+0x198>
  4062d8:	32220008 	andi	v0,s1,0x8
  4062dc:	14400012 	bnez	v0,406328 <_stdio_fopen+0x198>
  4062e0:	02002021 	move	a0,s0
  4062e4:	24050004 	li	a1,4
  4062e8:	24060008 	li	a2,8
  4062ec:	8f990050 	lw	t9,80(gp)
  4062f0:	00000000 	nop
  4062f4:	0320f809 	jalr	t9
  4062f8:	00000000 	nop
  4062fc:	8fbc0010 	lw	gp,16(sp)
  406300:	10400009 	beqz	v0,406328 <_stdio_fopen+0x198>
  406304:	00000000 	nop
  406308:	8f9900bc 	lw	t9,188(gp)
  40630c:	00000000 	nop
  406310:	0320f809 	jalr	t9
  406314:	00000000 	nop
  406318:	8fbc0010 	lw	gp,16(sp)
  40631c:	24030016 	li	v1,22
  406320:	ac430000 	sw	v1,0(v0)
  406324:	2410ffff 	li	s0,-1
  406328:	1000000a 	b	406354 <_stdio_fopen+0x1c4>
  40632c:	ae50000c 	sw	s0,12(s2)
  406330:	02202021 	move	a0,s1
  406334:	02602821 	move	a1,s3
  406338:	240601b6 	li	a2,438
  40633c:	8f990070 	lw	t9,112(gp)
  406340:	00000000 	nop
  406344:	0320f809 	jalr	t9
  406348:	00000000 	nop
  40634c:	8fbc0010 	lw	gp,16(sp)
  406350:	ae42000c 	sw	v0,12(s2)
  406354:	8e51000c 	lw	s1,12(s2)
  406358:	00000000 	nop
  40635c:	06210019 	bgez	s1,4063c4 <_stdio_fopen+0x234>
  406360:	00000000 	nop
  406364:	96420000 	lhu	v0,0(s2)
  406368:	00000000 	nop
  40636c:	30424000 	andi	v0,v0,0x4000
  406370:	10400007 	beqz	v0,406390 <_stdio_fopen+0x200>
  406374:	00000000 	nop
  406378:	8e440014 	lw	a0,20(s2)
  40637c:	8f990020 	lw	t9,32(gp)
  406380:	00000000 	nop
  406384:	0320f809 	jalr	t9
  406388:	00000000 	nop
  40638c:	8fbc0010 	lw	gp,16(sp)
  406390:	96420000 	lhu	v0,0(s2)
  406394:	00000000 	nop
  406398:	30420040 	andi	v0,v0,0x40
  40639c:	10400007 	beqz	v0,4063bc <_stdio_fopen+0x22c>
  4063a0:	00000000 	nop
  4063a4:	02402021 	move	a0,s2
  4063a8:	8f990020 	lw	t9,32(gp)
  4063ac:	00000000 	nop
  4063b0:	0320f809 	jalr	t9
  4063b4:	00000000 	nop
  4063b8:	8fbc0010 	lw	gp,16(sp)
  4063bc:	10000041 	b	4064c4 <_stdio_fopen+0x334>
  4063c0:	00002021 	move	a0,zero
  4063c4:	8f9900bc 	lw	t9,188(gp)
  4063c8:	00000000 	nop
  4063cc:	0320f809 	jalr	t9
  4063d0:	00000000 	nop
  4063d4:	8fbc0010 	lw	gp,16(sp)
  4063d8:	02202021 	move	a0,s1
  4063dc:	00408021 	move	s0,v0
  4063e0:	8c510000 	lw	s1,0(v0)
  4063e4:	8f9902d0 	lw	t9,720(gp)
  4063e8:	00000000 	nop
  4063ec:	0320f809 	jalr	t9
  4063f0:	00000000 	nop
  4063f4:	8fbc0010 	lw	gp,16(sp)
  4063f8:	96440000 	lhu	a0,0(s2)
  4063fc:	32630003 	andi	v1,s3,0x3
  406400:	00021200 	sll	v0,v0,0x8
  406404:	24630001 	addiu	v1,v1,1
  406408:	00822025 	or	a0,a0,v0
  40640c:	38630003 	xori	v1,v1,0x3
  406410:	32620008 	andi	v0,s3,0x8
  406414:	a6440000 	sh	a0,0(s2)
  406418:	ae110000 	sw	s1,0(s0)
  40641c:	10400002 	beqz	v0,406428 <_stdio_fopen+0x298>
  406420:	00032100 	sll	a0,v1,0x4
  406424:	34840400 	ori	a0,a0,0x400
  406428:	96420000 	lhu	v0,0(s2)
  40642c:	8e430014 	lw	v1,20(s2)
  406430:	00441025 	or	v0,v0,a0
  406434:	ae430024 	sw	v1,36(s2)
  406438:	ae430020 	sw	v1,32(s2)
  40643c:	ae43001c 	sw	v1,28(s2)
  406440:	ae430028 	sw	v1,40(s2)
  406444:	26440038 	addiu	a0,s2,56
  406448:	a6420000 	sh	v0,0(s2)
  40644c:	a2400002 	sb	zero,2(s2)
  406450:	ae40002c 	sw	zero,44(s2)
  406454:	ae400034 	sw	zero,52(s2)
  406458:	8f99013c 	lw	t9,316(gp)
  40645c:	00000000 	nop
  406460:	0320f809 	jalr	t9
  406464:	00000000 	nop
  406468:	8fbc0010 	lw	gp,16(sp)
  40646c:	00000000 	nop
  406470:	8f84009c 	lw	a0,156(gp)
  406474:	8f990344 	lw	t9,836(gp)
  406478:	00000000 	nop
  40647c:	0320f809 	jalr	t9
  406480:	00000000 	nop
  406484:	8fbc0010 	lw	gp,16(sp)
  406488:	00000000 	nop
  40648c:	8f820210 	lw	v0,528(gp)
  406490:	00000000 	nop
  406494:	8c420000 	lw	v0,0(v0)
  406498:	8f84009c 	lw	a0,156(gp)
  40649c:	ae420010 	sw	v0,16(s2)
  4064a0:	8f810210 	lw	at,528(gp)
  4064a4:	00000000 	nop
  4064a8:	ac320000 	sw	s2,0(at)
  4064ac:	8f990234 	lw	t9,564(gp)
  4064b0:	00000000 	nop
  4064b4:	0320f809 	jalr	t9
  4064b8:	00000000 	nop
  4064bc:	8fbc0010 	lw	gp,16(sp)
  4064c0:	02402021 	move	a0,s2
  4064c4:	8fbf002c 	lw	ra,44(sp)
  4064c8:	8fb30024 	lw	s3,36(sp)
  4064cc:	8fb20020 	lw	s2,32(sp)
  4064d0:	8fb1001c 	lw	s1,28(sp)
  4064d4:	8fb00018 	lw	s0,24(sp)
  4064d8:	00801021 	move	v0,a0
  4064dc:	03e00008 	jr	ra
  4064e0:	27bd0030 	addiu	sp,sp,48
	...
  4064f0:	3c1c0001 	lui	gp,0x1
  4064f4:	279c8570 	addiu	gp,gp,-31376
  4064f8:	0399e021 	addu	gp,gp,t9
  4064fc:	27bdffd0 	addiu	sp,sp,-48
  406500:	afbc0010 	sw	gp,16(sp)
  406504:	afb30024 	sw	s3,36(sp)
  406508:	afb20020 	sw	s2,32(sp)
  40650c:	afb1001c 	sw	s1,28(sp)
  406510:	afb00018 	sw	s0,24(sp)
  406514:	afbf002c 	sw	ra,44(sp)
  406518:	afbc0028 	sw	gp,40(sp)
  40651c:	00c09821 	move	s3,a2
  406520:	00809021 	move	s2,a0
  406524:	00a08821 	move	s1,a1
  406528:	10c00016 	beqz	a2,406584 <_stdio_fopen+0x3f4>
  40652c:	00c08021 	move	s0,a2
  406530:	02202821 	move	a1,s1
  406534:	06010003 	bgez	s0,406544 <_stdio_fopen+0x3b4>
  406538:	02003021 	move	a2,s0
  40653c:	3c067fff 	lui	a2,0x7fff
  406540:	34c6ffff 	ori	a2,a2,0xffff
  406544:	8e44000c 	lw	a0,12(s2)
  406548:	8f990228 	lw	t9,552(gp)
  40654c:	00000000 	nop
  406550:	0320f809 	jalr	t9
  406554:	00000000 	nop
  406558:	8fbc0010 	lw	gp,16(sp)
  40655c:	04410006 	bgez	v0,406578 <_stdio_fopen+0x3e8>
  406560:	02228821 	addu	s1,s1,v0
  406564:	96420000 	lhu	v0,0(s2)
  406568:	00000000 	nop
  40656c:	34420008 	ori	v0,v0,0x8
  406570:	10000004 	b	406584 <_stdio_fopen+0x3f4>
  406574:	a6420000 	sh	v0,0(s2)
  406578:	02028023 	subu	s0,s0,v0
  40657c:	1600ffed 	bnez	s0,406534 <_stdio_fopen+0x3a4>
  406580:	02202821 	move	a1,s1
  406584:	02701023 	subu	v0,s3,s0
  406588:	8fbf002c 	lw	ra,44(sp)
  40658c:	8fb30024 	lw	s3,36(sp)
  406590:	8fb20020 	lw	s2,32(sp)
  406594:	8fb1001c 	lw	s1,28(sp)
  406598:	8fb00018 	lw	s0,24(sp)
  40659c:	03e00008 	jr	ra
  4065a0:	27bd0030 	addiu	sp,sp,48

004065a4 <_stdio_fwrite>:
  4065a4:	3c1c0001 	lui	gp,0x1
  4065a8:	279c84bc 	addiu	gp,gp,-31556
  4065ac:	0399e021 	addu	gp,gp,t9
  4065b0:	27bdffc0 	addiu	sp,sp,-64
  4065b4:	afbc0010 	sw	gp,16(sp)
  4065b8:	afb40030 	sw	s4,48(sp)
  4065bc:	afb3002c 	sw	s3,44(sp)
  4065c0:	afb20028 	sw	s2,40(sp)
  4065c4:	afbf003c 	sw	ra,60(sp)
  4065c8:	afbc0038 	sw	gp,56(sp)
  4065cc:	afb50034 	sw	s5,52(sp)
  4065d0:	afb10024 	sw	s1,36(sp)
  4065d4:	afb00020 	sw	s0,32(sp)
  4065d8:	94c30000 	lhu	v1,0(a2)
  4065dc:	00c09021 	move	s2,a2
  4065e0:	3066ffff 	andi	a2,v1,0xffff
  4065e4:	30c20020 	andi	v0,a2,0x20
  4065e8:	00809821 	move	s3,a0
  4065ec:	1040000c 	beqz	v0,406620 <_stdio_fwrite+0x7c>
  4065f0:	00a0a021 	move	s4,a1
  4065f4:	34620008 	ori	v0,v1,0x8
  4065f8:	a6420000 	sh	v0,0(s2)
  4065fc:	8f9900bc 	lw	t9,188(gp)
  406600:	00000000 	nop
  406604:	0320f809 	jalr	t9
  406608:	00000000 	nop
  40660c:	8fbc0010 	lw	gp,16(sp)
  406610:	24030009 	li	v1,9
  406614:	00002021 	move	a0,zero
  406618:	100000b8 	b	4068fc <_stdio_fwrite+0x358>
  40661c:	ac430000 	sw	v1,0(v0)
  406620:	30c21000 	andi	v0,a2,0x1000
  406624:	1040001c 	beqz	v0,406698 <_stdio_fwrite+0xf4>
  406628:	30c32400 	andi	v1,a2,0x2400
  40662c:	8e42001c 	lw	v0,28(s2)
  406630:	8e430020 	lw	v1,32(s2)
  406634:	00000000 	nop
  406638:	0043102b 	sltu	v0,v0,v1
  40663c:	14400003 	bnez	v0,40664c <_stdio_fwrite+0xa8>
  406640:	30c20003 	andi	v0,a2,0x3
  406644:	1040000e 	beqz	v0,406680 <_stdio_fwrite+0xdc>
  406648:	00000000 	nop
  40664c:	30c60400 	andi	a2,a2,0x400
  406650:	2cc60001 	sltiu	a2,a2,1
  406654:	24020002 	li	v0,2
  406658:	00463023 	subu	a2,v0,a2
  40665c:	02402021 	move	a0,s2
  406660:	00002821 	move	a1,zero
  406664:	8f9901fc 	lw	t9,508(gp)
  406668:	00000000 	nop
  40666c:	0320f809 	jalr	t9
  406670:	00000000 	nop
  406674:	8fbc0010 	lw	gp,16(sp)
  406678:	1440001d 	bnez	v0,4066f0 <_stdio_fwrite+0x14c>
  40667c:	00000000 	nop
  406680:	8e420014 	lw	v0,20(s2)
  406684:	00000000 	nop
  406688:	ae420024 	sw	v0,36(s2)
  40668c:	ae420020 	sw	v0,32(s2)
  406690:	1000001c 	b	406704 <_stdio_fwrite+0x160>
  406694:	ae42001c 	sw	v0,28(s2)
  406698:	24020400 	li	v0,1024
  40669c:	14620019 	bne	v1,v0,406704 <_stdio_fwrite+0x160>
  4066a0:	02402021 	move	a0,s2
  4066a4:	27a50018 	addiu	a1,sp,24
  4066a8:	24060002 	li	a2,2
  4066ac:	afa00018 	sw	zero,24(sp)
  4066b0:	8f9902e8 	lw	t9,744(gp)
  4066b4:	00000000 	nop
  4066b8:	0320f809 	jalr	t9
  4066bc:	00000000 	nop
  4066c0:	8fbc0010 	lw	gp,16(sp)
  4066c4:	1040000f 	beqz	v0,406704 <_stdio_fwrite+0x160>
  4066c8:	00000000 	nop
  4066cc:	8f9900bc 	lw	t9,188(gp)
  4066d0:	00000000 	nop
  4066d4:	0320f809 	jalr	t9
  4066d8:	00000000 	nop
  4066dc:	8fbc0010 	lw	gp,16(sp)
  4066e0:	8c430000 	lw	v1,0(v0)
  4066e4:	24020020 	li	v0,32
  4066e8:	10620006 	beq	v1,v0,406704 <_stdio_fwrite+0x160>
  4066ec:	00000000 	nop
  4066f0:	96420000 	lhu	v0,0(s2)
  4066f4:	00002021 	move	a0,zero
  4066f8:	34420008 	ori	v0,v0,0x8
  4066fc:	1000007f 	b	4068fc <_stdio_fwrite+0x358>
  406700:	a6420000 	sh	v0,0(s2)
  406704:	96420000 	lhu	v0,0(s2)
  406708:	8e430014 	lw	v1,20(s2)
  40670c:	3042cfff 	andi	v0,v0,0xcfff
  406710:	ae430028 	sw	v1,40(s2)
  406714:	a6420000 	sh	v0,0(s2)
  406718:	0260a821 	move	s5,s3
  40671c:	1660002f 	bnez	s3,4067dc <_stdio_fwrite+0x238>
  406720:	24050001 	li	a1,1
  406724:	8e430014 	lw	v1,20(s2)
  406728:	8e42001c 	lw	v0,28(s2)
  40672c:	8e44000c 	lw	a0,12(s2)
  406730:	00438023 	subu	s0,v0,v1
  406734:	2402fffe 	li	v0,-2
  406738:	1482000a 	bne	a0,v0,406764 <_stdio_fwrite+0x1c0>
  40673c:	00608821 	move	s1,v1
  406740:	96420000 	lhu	v0,0(s2)
  406744:	00001821 	move	v1,zero
  406748:	34422000 	ori	v0,v0,0x2000
  40674c:	12600003 	beqz	s3,40675c <_stdio_fwrite+0x1b8>
  406750:	a6420000 	sh	v0,0(s2)
  406754:	02751023 	subu	v0,s3,s5
  406758:	00541821 	addu	v1,v0,s4
  40675c:	10000067 	b	4068fc <_stdio_fwrite+0x358>
  406760:	00602021 	move	a0,v1
  406764:	00602821 	move	a1,v1
  406768:	02003021 	move	a2,s0
  40676c:	02402021 	move	a0,s2
  406770:	8f990008 	lw	t9,8(gp)
  406774:	00000000 	nop
  406778:	273964f0 	addiu	t9,t9,25840
  40677c:	00000000 	nop
  406780:	0320f809 	jalr	t9
  406784:	00000000 	nop
  406788:	8fbc0010 	lw	gp,16(sp)
  40678c:	00402821 	move	a1,v0
  406790:	8e420014 	lw	v0,20(s2)
  406794:	02058023 	subu	s0,s0,a1
  406798:	ae42001c 	sw	v0,28(s2)
  40679c:	12000009 	beqz	s0,4067c4 <_stdio_fwrite+0x220>
  4067a0:	02258821 	addu	s1,s1,a1
  4067a4:	8e42001c 	lw	v0,28(s2)
  4067a8:	92230000 	lbu	v1,0(s1)
  4067ac:	2610ffff 	addiu	s0,s0,-1
  4067b0:	a0430000 	sb	v1,0(v0)
  4067b4:	24420001 	addiu	v0,v0,1
  4067b8:	ae42001c 	sw	v0,28(s2)
  4067bc:	1600fff9 	bnez	s0,4067a4 <_stdio_fwrite+0x200>
  4067c0:	26310001 	addiu	s1,s1,1
  4067c4:	16600005 	bnez	s3,4067dc <_stdio_fwrite+0x238>
  4067c8:	00000000 	nop
  4067cc:	8e430014 	lw	v1,20(s2)
  4067d0:	8e42001c 	lw	v0,28(s2)
  4067d4:	10000049 	b	4068fc <_stdio_fwrite+0x358>
  4067d8:	00432023 	subu	a0,v0,v1
  4067dc:	8e44001c 	lw	a0,28(s2)
  4067e0:	8e420014 	lw	v0,20(s2)
  4067e4:	00000000 	nop
  4067e8:	14820016 	bne	a0,v0,406844 <_stdio_fwrite+0x2a0>
  4067ec:	00000000 	nop
  4067f0:	8e420018 	lw	v0,24(s2)
  4067f4:	00000000 	nop
  4067f8:	00441023 	subu	v0,v0,a0
  4067fc:	0282102b 	sltu	v0,s4,v0
  406800:	14400010 	bnez	v0,406844 <_stdio_fwrite+0x2a0>
  406804:	2402fffe 	li	v0,-2
  406808:	8e43000c 	lw	v1,12(s2)
  40680c:	00000000 	nop
  406810:	1062000c 	beq	v1,v0,406844 <_stdio_fwrite+0x2a0>
  406814:	02803021 	move	a2,s4
  406818:	02602821 	move	a1,s3
  40681c:	02402021 	move	a0,s2
  406820:	8f990008 	lw	t9,8(gp)
  406824:	00000000 	nop
  406828:	273964f0 	addiu	t9,t9,25840
  40682c:	00000000 	nop
  406830:	0320f809 	jalr	t9
  406834:	00000000 	nop
  406838:	8fbc0010 	lw	gp,16(sp)
  40683c:	10000024 	b	4068d0 <_stdio_fwrite+0x32c>
  406840:	02629821 	addu	s3,s3,v0
  406844:	8e420018 	lw	v0,24(s2)
  406848:	00000000 	nop
  40684c:	00442023 	subu	a0,v0,a0
  406850:	0284102b 	sltu	v0,s4,a0
  406854:	10400002 	beqz	v0,406860 <_stdio_fwrite+0x2bc>
  406858:	02608821 	move	s1,s3
  40685c:	02802021 	move	a0,s4
  406860:	10800009 	beqz	a0,406888 <_stdio_fwrite+0x2e4>
  406864:	0284a023 	subu	s4,s4,a0
  406868:	8e42001c 	lw	v0,28(s2)
  40686c:	92630000 	lbu	v1,0(s3)
  406870:	2484ffff 	addiu	a0,a0,-1
  406874:	a0430000 	sb	v1,0(v0)
  406878:	24420001 	addiu	v0,v0,1
  40687c:	ae42001c 	sw	v0,28(s2)
  406880:	1480fff9 	bnez	a0,406868 <_stdio_fwrite+0x2c4>
  406884:	26730001 	addiu	s3,s3,1
  406888:	10a00011 	beqz	a1,4068d0 <_stdio_fwrite+0x32c>
  40688c:	00000000 	nop
  406890:	1680ffa4 	bnez	s4,406724 <_stdio_fwrite+0x180>
  406894:	00000000 	nop
  406898:	96420000 	lhu	v0,0(s2)
  40689c:	00000000 	nop
  4068a0:	30420100 	andi	v0,v0,0x100
  4068a4:	1040000a 	beqz	v0,4068d0 <_stdio_fwrite+0x32c>
  4068a8:	0233102b 	sltu	v0,s1,s3
  4068ac:	10400008 	beqz	v0,4068d0 <_stdio_fwrite+0x32c>
  4068b0:	00000000 	nop
  4068b4:	92230000 	lbu	v1,0(s1)
  4068b8:	2402000a 	li	v0,10
  4068bc:	26310001 	addiu	s1,s1,1
  4068c0:	1062ff98 	beq	v1,v0,406724 <_stdio_fwrite+0x180>
  4068c4:	0233202b 	sltu	a0,s1,s3
  4068c8:	1480fffa 	bnez	a0,4068b4 <_stdio_fwrite+0x310>
  4068cc:	00000000 	nop
  4068d0:	96430000 	lhu	v1,0(s2)
  4068d4:	00000000 	nop
  4068d8:	30620b08 	andi	v0,v1,0xb08
  4068dc:	14400005 	bnez	v0,4068f4 <_stdio_fwrite+0x350>
  4068e0:	34622000 	ori	v0,v1,0x2000
  4068e4:	8e420018 	lw	v0,24(s2)
  4068e8:	00000000 	nop
  4068ec:	ae420028 	sw	v0,40(s2)
  4068f0:	34622000 	ori	v0,v1,0x2000
  4068f4:	a6420000 	sh	v0,0(s2)
  4068f8:	02752023 	subu	a0,s3,s5
  4068fc:	8fbf003c 	lw	ra,60(sp)
  406900:	8fb50034 	lw	s5,52(sp)
  406904:	8fb40030 	lw	s4,48(sp)
  406908:	8fb3002c 	lw	s3,44(sp)
  40690c:	8fb20028 	lw	s2,40(sp)
  406910:	8fb10024 	lw	s1,36(sp)
  406914:	8fb00020 	lw	s0,32(sp)
  406918:	00801021 	move	v0,a0
  40691c:	03e00008 	jr	ra
  406920:	27bd0040 	addiu	sp,sp,64
	...

00406930 <_stdio_adjpos>:
  406930:	3c1c0001 	lui	gp,0x1
  406934:	279c8130 	addiu	gp,gp,-32464
  406938:	0399e021 	addu	gp,gp,t9
  40693c:	94830000 	lhu	v1,0(a0)
  406940:	00000000 	nop
  406944:	3062ffff 	andi	v0,v1,0xffff
  406948:	30460003 	andi	a2,v0,0x3
  40694c:	10c0001a 	beqz	a2,4069b8 <_stdio_adjpos+0x88>
  406950:	3067ffff 	andi	a3,v1,0xffff
  406954:	30420800 	andi	v0,v0,0x800
  406958:	10400018 	beqz	v0,4069bc <_stdio_adjpos+0x8c>
  40695c:	30e22000 	andi	v0,a3,0x2000
  406960:	28c20002 	slti	v0,a2,2
  406964:	10400005 	beqz	v0,40697c <_stdio_adjpos+0x4c>
  406968:	00000000 	nop
  40696c:	8c820008 	lw	v0,8(a0)
  406970:	00000000 	nop
  406974:	10400003 	beqz	v0,406984 <_stdio_adjpos+0x54>
  406978:	00000000 	nop
  40697c:	03e00008 	jr	ra
  406980:	2402ffff 	li	v0,-1
  406984:	10c00005 	beqz	a2,40699c <_stdio_adjpos+0x6c>
  406988:	00000000 	nop
  40698c:	90820003 	lbu	v0,3(a0)
  406990:	00000000 	nop
  406994:	00c21021 	addu	v0,a2,v0
  406998:	2446ffff 	addiu	a2,v0,-1
  40699c:	8c82002c 	lw	v0,44(a0)
  4069a0:	00000000 	nop
  4069a4:	18400004 	blez	v0,4069b8 <_stdio_adjpos+0x88>
  4069a8:	3067ffff 	andi	a3,v1,0xffff
  4069ac:	90820002 	lbu	v0,2(a0)
  4069b0:	00000000 	nop
  4069b4:	00c23023 	subu	a2,a2,v0
  4069b8:	30e22000 	andi	v0,a3,0x2000
  4069bc:	10400007 	beqz	v0,4069dc <_stdio_adjpos+0xac>
  4069c0:	30e21000 	andi	v0,a3,0x1000
  4069c4:	8c82001c 	lw	v0,28(a0)
  4069c8:	8c830014 	lw	v1,20(a0)
  4069cc:	00000000 	nop
  4069d0:	00431023 	subu	v0,v0,v1
  4069d4:	00c23023 	subu	a2,a2,v0
  4069d8:	30e21000 	andi	v0,a3,0x1000
  4069dc:	10400006 	beqz	v0,4069f8 <_stdio_adjpos+0xc8>
  4069e0:	00000000 	nop
  4069e4:	8c83001c 	lw	v1,28(a0)
  4069e8:	8c820020 	lw	v0,32(a0)
  4069ec:	00000000 	nop
  4069f0:	00431023 	subu	v0,v0,v1
  4069f4:	00c23021 	addu	a2,a2,v0
  4069f8:	8ca20000 	lw	v0,0(a1)
  4069fc:	00062023 	negu	a0,a2
  406a00:	00461823 	subu	v1,v0,a2
  406a04:	0043102a 	slt	v0,v0,v1
  406a08:	14400002 	bnez	v0,406a14 <_stdio_adjpos+0xe4>
  406a0c:	aca30000 	sw	v1,0(a1)
  406a10:	00c02021 	move	a0,a2
  406a14:	03e00008 	jr	ra
  406a18:	00801021 	move	v0,a0
  406a1c:	00000000 	nop

00406a20 <_stdio_lseek>:
  406a20:	3c1c0001 	lui	gp,0x1
  406a24:	279c8040 	addiu	gp,gp,-32704
  406a28:	0399e021 	addu	gp,gp,t9
  406a2c:	27bdffd8 	addiu	sp,sp,-40
  406a30:	afbc0010 	sw	gp,16(sp)
  406a34:	afb00018 	sw	s0,24(sp)
  406a38:	afbf0020 	sw	ra,32(sp)
  406a3c:	afbc001c 	sw	gp,28(sp)
  406a40:	00a08021 	move	s0,a1
  406a44:	8c84000c 	lw	a0,12(a0)
  406a48:	8ca50000 	lw	a1,0(a1)
  406a4c:	8f990290 	lw	t9,656(gp)
  406a50:	00000000 	nop
  406a54:	0320f809 	jalr	t9
  406a58:	00000000 	nop
  406a5c:	8fbc0010 	lw	gp,16(sp)
  406a60:	04400003 	bltz	v0,406a70 <_stdio_lseek+0x50>
  406a64:	2403ffff 	li	v1,-1
  406a68:	ae020000 	sw	v0,0(s0)
  406a6c:	00001821 	move	v1,zero
  406a70:	8fbf0020 	lw	ra,32(sp)
  406a74:	8fb00018 	lw	s0,24(sp)
  406a78:	00601021 	move	v0,v1
  406a7c:	03e00008 	jr	ra
  406a80:	27bd0028 	addiu	sp,sp,40
	...

00406a90 <__stdio_init_mutex>:
  406a90:	3c1c0000 	lui	gp,0x0
  406a94:	279c7fd0 	addiu	gp,gp,32720
  406a98:	0399e021 	addu	gp,gp,t9
  406a9c:	27bdffe0 	addiu	sp,sp,-32
  406aa0:	afbc0010 	sw	gp,16(sp)
  406aa4:	8f85000c 	lw	a1,12(gp)
  406aa8:	00000000 	nop
  406aac:	24a5fab0 	addiu	a1,a1,-1360
  406ab0:	24060018 	li	a2,24
  406ab4:	afbf001c 	sw	ra,28(sp)
  406ab8:	afbc0018 	sw	gp,24(sp)
  406abc:	8f9902fc 	lw	t9,764(gp)
  406ac0:	00000000 	nop
  406ac4:	0320f809 	jalr	t9
  406ac8:	00000000 	nop
  406acc:	8fbc0010 	lw	gp,16(sp)
  406ad0:	8fbf001c 	lw	ra,28(sp)
  406ad4:	00000000 	nop
  406ad8:	03e00008 	jr	ra
  406adc:	27bd0020 	addiu	sp,sp,32

00406ae0 <_stdio_term>:
  406ae0:	3c1c0000 	lui	gp,0x0
  406ae4:	279c7f80 	addiu	gp,gp,32640
  406ae8:	0399e021 	addu	gp,gp,t9
  406aec:	27bdffd8 	addiu	sp,sp,-40
  406af0:	afbc0010 	sw	gp,16(sp)
  406af4:	8f84009c 	lw	a0,156(gp)
  406af8:	afb00018 	sw	s0,24(sp)
  406afc:	afbf0020 	sw	ra,32(sp)
  406b00:	afbc001c 	sw	gp,28(sp)
  406b04:	8f99013c 	lw	t9,316(gp)
  406b08:	00000000 	nop
  406b0c:	0320f809 	jalr	t9
  406b10:	00000000 	nop
  406b14:	8fbc0010 	lw	gp,16(sp)
  406b18:	00000000 	nop
  406b1c:	8f900210 	lw	s0,528(gp)
  406b20:	00000000 	nop
  406b24:	8e100000 	lw	s0,0(s0)
  406b28:	00000000 	nop
  406b2c:	1200000e 	beqz	s0,406b68 <_stdio_term+0x88>
  406b30:	00002021 	move	a0,zero
  406b34:	24020001 	li	v0,1
  406b38:	26040038 	addiu	a0,s0,56
  406b3c:	ae020034 	sw	v0,52(s0)
  406b40:	8f99013c 	lw	t9,316(gp)
  406b44:	00000000 	nop
  406b48:	0320f809 	jalr	t9
  406b4c:	00000000 	nop
  406b50:	8fbc0010 	lw	gp,16(sp)
  406b54:	8e100010 	lw	s0,16(s0)
  406b58:	00000000 	nop
  406b5c:	1600fff6 	bnez	s0,406b38 <_stdio_term+0x58>
  406b60:	24020001 	li	v0,1
  406b64:	00002021 	move	a0,zero
  406b68:	8f9900f0 	lw	t9,240(gp)
  406b6c:	00000000 	nop
  406b70:	0320f809 	jalr	t9
  406b74:	00000000 	nop
  406b78:	8fbc0010 	lw	gp,16(sp)
  406b7c:	8fbf0020 	lw	ra,32(sp)
  406b80:	8fb00018 	lw	s0,24(sp)
  406b84:	03e00008 	jr	ra
  406b88:	27bd0028 	addiu	sp,sp,40

00406b8c <_stdio_init>:
  406b8c:	3c1c0000 	lui	gp,0x0
  406b90:	279c7ed4 	addiu	gp,gp,32468
  406b94:	0399e021 	addu	gp,gp,t9
  406b98:	27bdffd0 	addiu	sp,sp,-48
  406b9c:	afbc0010 	sw	gp,16(sp)
  406ba0:	afbf002c 	sw	ra,44(sp)
  406ba4:	afb30024 	sw	s3,36(sp)
  406ba8:	afb20020 	sw	s2,32(sp)
  406bac:	afb1001c 	sw	s1,28(sp)
  406bb0:	afb00018 	sw	s0,24(sp)
  406bb4:	afbc0028 	sw	gp,40(sp)
  406bb8:	8f9900bc 	lw	t9,188(gp)
  406bbc:	00000000 	nop
  406bc0:	0320f809 	jalr	t9
  406bc4:	00000000 	nop
  406bc8:	8fbc0010 	lw	gp,16(sp)
  406bcc:	00002021 	move	a0,zero
  406bd0:	8f91000c 	lw	s1,12(gp)
  406bd4:	00000000 	nop
  406bd8:	26311ae0 	addiu	s1,s1,6880
  406bdc:	00409021 	move	s2,v0
  406be0:	8c530000 	lw	s3,0(v0)
  406be4:	24100001 	li	s0,1
  406be8:	8f9902d0 	lw	t9,720(gp)
  406bec:	00000000 	nop
  406bf0:	0320f809 	jalr	t9
  406bf4:	00000000 	nop
  406bf8:	8fbc0010 	lw	gp,16(sp)
  406bfc:	02021023 	subu	v0,s0,v0
  406c00:	96230000 	lhu	v1,0(s1)
  406c04:	00021200 	sll	v0,v0,0x8
  406c08:	00621826 	xor	v1,v1,v0
  406c0c:	24040001 	li	a0,1
  406c10:	a6230000 	sh	v1,0(s1)
  406c14:	8f9902d0 	lw	t9,720(gp)
  406c18:	00000000 	nop
  406c1c:	0320f809 	jalr	t9
  406c20:	00000000 	nop
  406c24:	8fbc0010 	lw	gp,16(sp)
  406c28:	02028023 	subu	s0,s0,v0
  406c2c:	96220050 	lhu	v0,80(s1)
  406c30:	00108200 	sll	s0,s0,0x8
  406c34:	00501026 	xor	v0,v0,s0
  406c38:	a6220050 	sh	v0,80(s1)
  406c3c:	8fbf002c 	lw	ra,44(sp)
  406c40:	ae530000 	sw	s3,0(s2)
  406c44:	8fb1001c 	lw	s1,28(sp)
  406c48:	8fb30024 	lw	s3,36(sp)
  406c4c:	8fb20020 	lw	s2,32(sp)
  406c50:	8fb00018 	lw	s0,24(sp)
  406c54:	03e00008 	jr	ra
  406c58:	27bd0030 	addiu	sp,sp,48
  406c5c:	00000000 	nop

00406c60 <vsnprintf>:
  406c60:	3c1c0000 	lui	gp,0x0
  406c64:	279c7e00 	addiu	gp,gp,32256
  406c68:	0399e021 	addu	gp,gp,t9
  406c6c:	27bdff80 	addiu	sp,sp,-128
  406c70:	afbc0010 	sw	gp,16(sp)
  406c74:	00801821 	move	v1,a0
  406c78:	afb00068 	sw	s0,104(sp)
  406c7c:	00a08021 	move	s0,a1
  406c80:	00032827 	nor	a1,zero,v1
  406c84:	00b0102b 	sltu	v0,a1,s0
  406c88:	afb20070 	sw	s2,112(sp)
  406c8c:	afb1006c 	sw	s1,108(sp)
  406c90:	afbf0078 	sw	ra,120(sp)
  406c94:	afbc0074 	sw	gp,116(sp)
  406c98:	27a40050 	addiu	a0,sp,80
  406c9c:	00c08821 	move	s1,a2
  406ca0:	00e09021 	move	s2,a3
  406ca4:	afa3002c 	sw	v1,44(sp)
  406ca8:	afa30038 	sw	v1,56(sp)
  406cac:	afa30034 	sw	v1,52(sp)
  406cb0:	10400002 	beqz	v0,406cbc <vsnprintf+0x5c>
  406cb4:	afa3003c 	sw	v1,60(sp)
  406cb8:	00a08021 	move	s0,a1
  406cbc:	00701021 	addu	v0,v1,s0
  406cc0:	2403fffe 	li	v1,-2
  406cc4:	afa30024 	sw	v1,36(sp)
  406cc8:	24032090 	li	v1,8336
  406ccc:	a7a30018 	sh	v1,24(sp)
  406cd0:	afa20040 	sw	v0,64(sp)
  406cd4:	afa20030 	sw	v0,48(sp)
  406cd8:	afa00044 	sw	zero,68(sp)
  406cdc:	afa0004c 	sw	zero,76(sp)
  406ce0:	8f99013c 	lw	t9,316(gp)
  406ce4:	00000000 	nop
  406ce8:	0320f809 	jalr	t9
  406cec:	00000000 	nop
  406cf0:	8fbc0010 	lw	gp,16(sp)
  406cf4:	02202821 	move	a1,s1
  406cf8:	02403021 	move	a2,s2
  406cfc:	27a40018 	addiu	a0,sp,24
  406d00:	8f99002c 	lw	t9,44(gp)
  406d04:	00000000 	nop
  406d08:	0320f809 	jalr	t9
  406d0c:	00000000 	nop
  406d10:	8fbc0010 	lw	gp,16(sp)
  406d14:	1200000a 	beqz	s0,406d40 <vsnprintf+0xe0>
  406d18:	00402821 	move	a1,v0
  406d1c:	8fa30034 	lw	v1,52(sp)
  406d20:	8fa20030 	lw	v0,48(sp)
  406d24:	00000000 	nop
  406d28:	14620002 	bne	v1,v0,406d34 <vsnprintf+0xd4>
  406d2c:	2464ffff 	addiu	a0,v1,-1
  406d30:	afa40034 	sw	a0,52(sp)
  406d34:	8fa20034 	lw	v0,52(sp)
  406d38:	00000000 	nop
  406d3c:	a0400000 	sb	zero,0(v0)
  406d40:	8fbf0078 	lw	ra,120(sp)
  406d44:	8fb20070 	lw	s2,112(sp)
  406d48:	8fb1006c 	lw	s1,108(sp)
  406d4c:	8fb00068 	lw	s0,104(sp)
  406d50:	00a01021 	move	v0,a1
  406d54:	03e00008 	jr	ra
  406d58:	27bd0080 	addiu	sp,sp,128
  406d5c:	00000000 	nop

00406d60 <fprintf>:
  406d60:	3c1c0000 	lui	gp,0x0
  406d64:	279c7d00 	addiu	gp,gp,32000
  406d68:	0399e021 	addu	gp,gp,t9
  406d6c:	27bdffe0 	addiu	sp,sp,-32
  406d70:	afbc0010 	sw	gp,16(sp)
  406d74:	afa60028 	sw	a2,40(sp)
  406d78:	27a60028 	addiu	a2,sp,40
  406d7c:	afbf001c 	sw	ra,28(sp)
  406d80:	afa7002c 	sw	a3,44(sp)
  406d84:	afbc0018 	sw	gp,24(sp)
  406d88:	8f99002c 	lw	t9,44(gp)
  406d8c:	00000000 	nop
  406d90:	0320f809 	jalr	t9
  406d94:	00000000 	nop
  406d98:	8fbc0010 	lw	gp,16(sp)
  406d9c:	8fbf001c 	lw	ra,28(sp)
  406da0:	00000000 	nop
  406da4:	03e00008 	jr	ra
  406da8:	27bd0020 	addiu	sp,sp,32
  406dac:	00000000 	nop

00406db0 <sprintf>:
  406db0:	3c1c0000 	lui	gp,0x0
  406db4:	279c7cb0 	addiu	gp,gp,31920
  406db8:	0399e021 	addu	gp,gp,t9
  406dbc:	27bdffe0 	addiu	sp,sp,-32
  406dc0:	afbc0010 	sw	gp,16(sp)
  406dc4:	afa60028 	sw	a2,40(sp)
  406dc8:	afa7002c 	sw	a3,44(sp)
  406dcc:	00a03021 	move	a2,a1
  406dd0:	27a70028 	addiu	a3,sp,40
  406dd4:	2405ffff 	li	a1,-1
  406dd8:	afbf001c 	sw	ra,28(sp)
  406ddc:	afbc0018 	sw	gp,24(sp)
  406de0:	8f9902c8 	lw	t9,712(gp)
  406de4:	00000000 	nop
  406de8:	0320f809 	jalr	t9
  406dec:	00000000 	nop
  406df0:	8fbc0010 	lw	gp,16(sp)
  406df4:	8fbf001c 	lw	ra,28(sp)
  406df8:	00000000 	nop
  406dfc:	03e00008 	jr	ra
  406e00:	27bd0020 	addiu	sp,sp,32
	...
  406e10:	3c1c0000 	lui	gp,0x0
  406e14:	279c7c50 	addiu	gp,gp,31824
  406e18:	0399e021 	addu	gp,gp,t9
  406e1c:	27bdffc8 	addiu	sp,sp,-56
  406e20:	afbc0010 	sw	gp,16(sp)
  406e24:	30a20080 	andi	v0,a1,0x80
  406e28:	afb40028 	sw	s4,40(sp)
  406e2c:	afb30024 	sw	s3,36(sp)
  406e30:	afb20020 	sw	s2,32(sp)
  406e34:	afb00018 	sw	s0,24(sp)
  406e38:	0080a021 	move	s4,a0
  406e3c:	afbf0030 	sw	ra,48(sp)
  406e40:	afbc002c 	sw	gp,44(sp)
  406e44:	afb1001c 	sw	s1,28(sp)
  406e48:	00a09021 	move	s2,a1
  406e4c:	00c08021 	move	s0,a2
  406e50:	00e09821 	move	s3,a3
  406e54:	10400014 	beqz	v0,406ea8 <sprintf+0xf8>
  406e58:	00e02021 	move	a0,a3
  406e5c:	8f99007c 	lw	t9,124(gp)
  406e60:	00000000 	nop
  406e64:	0320f809 	jalr	t9
  406e68:	00000000 	nop
  406e6c:	8fbc0010 	lw	gp,16(sp)
  406e70:	02028023 	subu	s0,s0,v0
  406e74:	00408821 	move	s1,v0
  406e78:	3245007f 	andi	a1,s2,0x7f
  406e7c:	02003021 	move	a2,s0
  406e80:	1a000008 	blez	s0,406ea4 <sprintf+0xf4>
  406e84:	02802021 	move	a0,s4
  406e88:	8f990008 	lw	t9,8(gp)
  406e8c:	00000000 	nop
  406e90:	27396ee8 	addiu	t9,t9,28392
  406e94:	00000000 	nop
  406e98:	0320f809 	jalr	t9
  406e9c:	00000000 	nop
  406ea0:	8fbc0010 	lw	gp,16(sp)
  406ea4:	02208021 	move	s0,s1
  406ea8:	02602021 	move	a0,s3
  406eac:	02002821 	move	a1,s0
  406eb0:	02803021 	move	a2,s4
  406eb4:	8f990358 	lw	t9,856(gp)
  406eb8:	00000000 	nop
  406ebc:	0320f809 	jalr	t9
  406ec0:	00000000 	nop
  406ec4:	8fbc0010 	lw	gp,16(sp)
  406ec8:	8fbf0030 	lw	ra,48(sp)
  406ecc:	8fb40028 	lw	s4,40(sp)
  406ed0:	8fb30024 	lw	s3,36(sp)
  406ed4:	8fb20020 	lw	s2,32(sp)
  406ed8:	8fb1001c 	lw	s1,28(sp)
  406edc:	8fb00018 	lw	s0,24(sp)
  406ee0:	03e00008 	jr	ra
  406ee4:	27bd0038 	addiu	sp,sp,56
  406ee8:	3c1c0000 	lui	gp,0x0
  406eec:	279c7b78 	addiu	gp,gp,31608
  406ef0:	0399e021 	addu	gp,gp,t9
  406ef4:	27bdffd0 	addiu	sp,sp,-48
  406ef8:	afbc0010 	sw	gp,16(sp)
  406efc:	afb10024 	sw	s1,36(sp)
  406f00:	afb00020 	sw	s0,32(sp)
  406f04:	afbf002c 	sw	ra,44(sp)
  406f08:	afbc0028 	sw	gp,40(sp)
  406f0c:	00c08021 	move	s0,a2
  406f10:	a3a50018 	sb	a1,24(sp)
  406f14:	10c0000c 	beqz	a2,406f48 <sprintf+0x198>
  406f18:	00808821 	move	s1,a0
  406f1c:	2610ffff 	addiu	s0,s0,-1
  406f20:	27a40018 	addiu	a0,sp,24
  406f24:	24050001 	li	a1,1
  406f28:	02203021 	move	a2,s1
  406f2c:	8f990358 	lw	t9,856(gp)
  406f30:	00000000 	nop
  406f34:	0320f809 	jalr	t9
  406f38:	00000000 	nop
  406f3c:	8fbc0010 	lw	gp,16(sp)
  406f40:	1600fff7 	bnez	s0,406f20 <sprintf+0x170>
  406f44:	2610ffff 	addiu	s0,s0,-1
  406f48:	8fbf002c 	lw	ra,44(sp)
  406f4c:	8fb10024 	lw	s1,36(sp)
  406f50:	8fb00020 	lw	s0,32(sp)
  406f54:	03e00008 	jr	ra
  406f58:	27bd0030 	addiu	sp,sp,48
  406f5c:	3c1c0000 	lui	gp,0x0
  406f60:	279c7b04 	addiu	gp,gp,31492
  406f64:	0399e021 	addu	gp,gp,t9
  406f68:	27bdff20 	addiu	sp,sp,-224
  406f6c:	afbc0018 	sw	gp,24(sp)
  406f70:	afb600c8 	sw	s6,200(sp)
  406f74:	afb300bc 	sw	s3,188(sp)
  406f78:	0080b021 	move	s6,a0
  406f7c:	00a09821 	move	s3,a1
  406f80:	00a02021 	move	a0,a1
  406f84:	afbf00d8 	sw	ra,216(sp)
  406f88:	afbe00d4 	sw	s8,212(sp)
  406f8c:	afb700cc 	sw	s7,204(sp)
  406f90:	afb500c4 	sw	s5,196(sp)
  406f94:	00c0b821 	move	s7,a2
  406f98:	afb400c0 	sw	s4,192(sp)
  406f9c:	afbc00d0 	sw	gp,208(sp)
  406fa0:	afb200b8 	sw	s2,184(sp)
  406fa4:	afb100b4 	sw	s1,180(sp)
  406fa8:	afb000b0 	sw	s0,176(sp)
  406fac:	afa000ac 	sw	zero,172(sp)
  406fb0:	8f990068 	lw	t9,104(gp)
  406fb4:	00000000 	nop
  406fb8:	0320f809 	jalr	t9
  406fbc:	00000000 	nop
  406fc0:	8fbc0018 	lw	gp,24(sp)
  406fc4:	02602021 	move	a0,s3
  406fc8:	8f99010c 	lw	t9,268(gp)
  406fcc:	00000000 	nop
  406fd0:	0320f809 	jalr	t9
  406fd4:	00000000 	nop
  406fd8:	8fbc0018 	lw	gp,24(sp)
  406fdc:	92660026 	lbu	a2,38(s3)
  406fe0:	8e630018 	lw	v1,24(s3)
  406fe4:	00061080 	sll	v0,a2,0x2
  406fe8:	02621021 	addu	v0,s3,v0
  406fec:	24440024 	addiu	a0,v0,36
  406ff0:	0000a021 	move	s4,zero
  406ff4:	2415000b 	li	s5,11
  406ff8:	241e0020 	li	s8,32
  406ffc:	18600004 	blez	v1,407010 <sprintf+0x260>
  407000:	26650050 	addiu	a1,s3,80
  407004:	000610c0 	sll	v0,a2,0x3
  407008:	00a21021 	addu	v0,a1,v0
  40700c:	2445fff8 	addiu	a1,v0,-8
  407010:	8e67001c 	lw	a3,28(s3)
  407014:	00000000 	nop
  407018:	18e00008 	blez	a3,40703c <sprintf+0x28c>
  40701c:	00003021 	move	a2,zero
  407020:	00061080 	sll	v0,a2,0x2
  407024:	24c60001 	addiu	a2,a2,1
  407028:	03a21021 	addu	v0,sp,v0
  40702c:	00c7182a 	slt	v1,a2,a3
  407030:	ac4500a8 	sw	a1,168(v0)
  407034:	1460fffa 	bnez	v1,407020 <sprintf+0x270>
  407038:	24a50008 	addiu	a1,a1,8
  40703c:	8e630020 	lw	v1,32(s3)
  407040:	00000000 	nop
  407044:	1460000f 	bnez	v1,407084 <sprintf+0x2d4>
  407048:	00009021 	move	s2,zero
  40704c:	8fa200a8 	lw	v0,168(sp)
  407050:	8ee30000 	lw	v1,0(s7)
  407054:	8e650010 	lw	a1,16(s3)
  407058:	8c440000 	lw	a0,0(v0)
  40705c:	30a50f00 	andi	a1,a1,0xf00
  407060:	00603821 	move	a3,v1
  407064:	000337c3 	sra	a2,v1,0x1f
  407068:	8f99018c 	lw	t9,396(gp)
  40706c:	00000000 	nop
  407070:	0320f809 	jalr	t9
  407074:	00000000 	nop
  407078:	8fbc0018 	lw	gp,24(sp)
  40707c:	10000166 	b	407618 <sprintf+0x868>
  407080:	00002021 	move	a0,zero
  407084:	2c620008 	sltiu	v0,v1,8
  407088:	1040007f 	beqz	v0,407288 <sprintf+0x4d8>
  40708c:	2c620010 	sltiu	v0,v1,16
  407090:	8f90000c 	lw	s0,12(gp)
  407094:	00000000 	nop
  407098:	2610fad0 	addiu	s0,s0,-1328
  40709c:	02038021 	addu	s0,s0,v1
  4070a0:	8210ffff 	lb	s0,-1(s0)
  4070a4:	2402000a 	li	v0,10
  4070a8:	1602000a 	bne	s0,v0,4070d4 <sprintf+0x324>
  4070ac:	24110057 	li	s1,87
  4070b0:	8e650010 	lw	a1,16(s3)
  4070b4:	00000000 	nop
  4070b8:	30a20020 	andi	v0,a1,0x20
  4070bc:	10400002 	beqz	v0,4070c8 <sprintf+0x318>
  4070c0:	30a20040 	andi	v0,a1,0x40
  4070c4:	2411002c 	li	s1,44
  4070c8:	10400003 	beqz	v0,4070d8 <sprintf+0x328>
  4070cc:	2c620006 	sltiu	v0,v1,6
  4070d0:	36310080 	ori	s1,s1,0x80
  4070d4:	2c620006 	sltiu	v0,v1,6
  4070d8:	10400008 	beqz	v0,4070fc <sprintf+0x34c>
  4070dc:	24020003 	li	v0,3
  4070e0:	14620002 	bne	v1,v0,4070ec <sprintf+0x33c>
  4070e4:	24020001 	li	v0,1
  4070e8:	24110037 	li	s1,55
  4070ec:	14620004 	bne	v1,v0,407100 <sprintf+0x350>
  4070f0:	00000000 	nop
  4070f4:	10000002 	b	407100 <sprintf+0x350>
  4070f8:	24150006 	li	s5,6
  4070fc:	00108023 	negu	s0,s0
  407100:	8e620004 	lw	v0,4(s3)
  407104:	00000000 	nop
  407108:	04410002 	bgez	v0,407114 <sprintf+0x364>
  40710c:	00000000 	nop
  407110:	827e0017 	lb	s8,23(s3)
  407114:	8c840000 	lw	a0,0(a0)
  407118:	8fa500a8 	lw	a1,168(sp)
  40711c:	30840f00 	andi	a0,a0,0xf00
  407120:	02003021 	move	a2,s0
  407124:	8f990024 	lw	t9,36(gp)
  407128:	00000000 	nop
  40712c:	0320f809 	jalr	t9
  407130:	00000000 	nop
  407134:	8fbc0018 	lw	gp,24(sp)
  407138:	00403021 	move	a2,v0
  40713c:	27a400a7 	addiu	a0,sp,167
  407140:	00603821 	move	a3,v1
  407144:	afb00010 	sw	s0,16(sp)
  407148:	afb10014 	sw	s1,20(sp)
  40714c:	8f990330 	lw	t9,816(gp)
  407150:	00000000 	nop
  407154:	0320f809 	jalr	t9
  407158:	00000000 	nop
  40715c:	8fbc0018 	lw	gp,24(sp)
  407160:	8e650020 	lw	a1,32(s3)
  407164:	00409021 	move	s2,v0
  407168:	2ca20006 	sltiu	v0,a1,6
  40716c:	14400013 	bnez	v0,4071bc <sprintf+0x40c>
  407170:	27a20028 	addiu	v0,sp,40
  407174:	82430000 	lb	v1,0(s2)
  407178:	2402002d 	li	v0,45
  40717c:	8e640010 	lw	a0,16(s3)
  407180:	14620006 	bne	v1,v0,40719c <sprintf+0x3ec>
  407184:	30820002 	andi	v0,a0,0x2
  407188:	34820002 	ori	v0,a0,0x2
  40718c:	26520001 	addiu	s2,s2,1
  407190:	24150002 	li	s5,2
  407194:	10000008 	b	4071b8 <sprintf+0x408>
  407198:	ae620010 	sw	v0,16(s3)
  40719c:	10400003 	beqz	v0,4071ac <sprintf+0x3fc>
  4071a0:	30820001 	andi	v0,a0,0x1
  4071a4:	10000004 	b	4071b8 <sprintf+0x408>
  4071a8:	0000a821 	move	s5,zero
  4071ac:	10400003 	beqz	v0,4071bc <sprintf+0x40c>
  4071b0:	27a20028 	addiu	v0,sp,40
  4071b4:	24150004 	li	s5,4
  4071b8:	27a20028 	addiu	v0,sp,40
  4071bc:	8e740004 	lw	s4,4(s3)
  4071c0:	00522023 	subu	a0,v0,s2
  4071c4:	06810002 	bgez	s4,4071d0 <sprintf+0x420>
  4071c8:	2490007f 	addiu	s0,a0,127
  4071cc:	24140001 	li	s4,1
  4071d0:	8e620010 	lw	v0,16(s3)
  4071d4:	00000000 	nop
  4071d8:	30420010 	andi	v0,v0,0x10
  4071dc:	10400010 	beqz	v0,407220 <sprintf+0x470>
  4071e0:	2ca20003 	sltiu	v0,a1,3
  4071e4:	10400002 	beqz	v0,4071f0 <sprintf+0x440>
  4071e8:	24020003 	li	v0,3
  4071ec:	24150006 	li	s5,6
  4071f0:	14a20002 	bne	a1,v0,4071fc <sprintf+0x44c>
  4071f4:	24020004 	li	v0,4
  4071f8:	24150009 	li	s5,9
  4071fc:	14a20008 	bne	a1,v0,407220 <sprintf+0x470>
  407200:	0214102b 	sltu	v0,s0,s4
  407204:	14400006 	bnez	v0,407220 <sprintf+0x470>
  407208:	24020030 	li	v0,48
  40720c:	82430000 	lb	v1,0(s2)
  407210:	00000000 	nop
  407214:	14620004 	bne	v1,v0,407228 <sprintf+0x478>
  407218:	24940080 	addiu	s4,a0,128
  40721c:	24140001 	li	s4,1
  407220:	82430000 	lb	v1,0(s2)
  407224:	24020030 	li	v0,48
  407228:	14620012 	bne	v1,v0,407274 <sprintf+0x4c4>
  40722c:	0214102b 	sltu	v0,s0,s4
  407230:	2aa20006 	slti	v0,s5,6
  407234:	14400002 	bnez	v0,407240 <sprintf+0x490>
  407238:	00000000 	nop
  40723c:	2415000b 	li	s5,11
  407240:	8e630020 	lw	v1,32(s3)
  407244:	24020001 	li	v0,1
  407248:	14620006 	bne	v1,v0,407264 <sprintf+0x4b4>
  40724c:	00000000 	nop
  407250:	8f92000c 	lw	s2,12(gp)
  407254:	00000000 	nop
  407258:	2652fae4 	addiu	s2,s2,-1308
  40725c:	10000007 	b	40727c <sprintf+0x4cc>
  407260:	24100005 	li	s0,5
  407264:	16800003 	bnez	s4,407274 <sprintf+0x4c4>
  407268:	0214102b 	sltu	v0,s0,s4
  40726c:	00008021 	move	s0,zero
  407270:	0214102b 	sltu	v0,s0,s4
  407274:	14400002 	bnez	v0,407280 <sprintf+0x4d0>
  407278:	02903023 	subu	a2,s4,s0
  40727c:	00003021 	move	a2,zero
  407280:	10000077 	b	407460 <sprintf+0x6b0>
  407284:	00c0a021 	move	s4,a2
  407288:	10400016 	beqz	v0,4072e4 <sprintf+0x534>
  40728c:	2c620012 	sltiu	v0,v1,18
  407290:	8fa500a8 	lw	a1,168(sp)
  407294:	26620004 	addiu	v0,s3,4
  407298:	8ca60000 	lw	a2,0(a1)
  40729c:	8ca70004 	lw	a3,4(a1)
  4072a0:	02c02021 	move	a0,s6
  4072a4:	afa20010 	sw	v0,16(sp)
  4072a8:	8f820008 	lw	v0,8(gp)
  4072ac:	00000000 	nop
  4072b0:	24426e10 	addiu	v0,v0,28176
  4072b4:	00000000 	nop
  4072b8:	afa20014 	sw	v0,20(sp)
  4072bc:	8f9900c0 	lw	t9,192(gp)
  4072c0:	00000000 	nop
  4072c4:	0320f809 	jalr	t9
  4072c8:	00000000 	nop
  4072cc:	8fbc0018 	lw	gp,24(sp)
  4072d0:	8ee30000 	lw	v1,0(s7)
  4072d4:	00002021 	move	a0,zero
  4072d8:	00621821 	addu	v1,v1,v0
  4072dc:	100000ce 	b	407618 <sprintf+0x868>
  4072e0:	aee30000 	sw	v1,0(s7)
  4072e4:	1040002c 	beqz	v0,407398 <sprintf+0x5e8>
  4072e8:	2c620014 	sltiu	v0,v1,20
  4072ec:	24020011 	li	v0,17
  4072f0:	afa00020 	sw	zero,32(sp)
  4072f4:	8fa500a8 	lw	a1,168(sp)
  4072f8:	14620018 	bne	v1,v0,40735c <sprintf+0x5ac>
  4072fc:	27a60020 	addiu	a2,sp,32
  407300:	8ca20000 	lw	v0,0(a1)
  407304:	00000000 	nop
  407308:	1040003a 	beqz	v0,4073f4 <sprintf+0x644>
  40730c:	afa200ac 	sw	v0,172(sp)
  407310:	8e620004 	lw	v0,4(s3)
  407314:	00000000 	nop
  407318:	04410002 	bgez	v0,407324 <sprintf+0x574>
  40731c:	00403021 	move	a2,v0
  407320:	2406ffff 	li	a2,-1
  407324:	27a400ac 	addiu	a0,sp,172
  407328:	00802821 	move	a1,a0
  40732c:	27a70020 	addiu	a3,sp,32
  407330:	8f9901c4 	lw	t9,452(gp)
  407334:	00000000 	nop
  407338:	0320f809 	jalr	t9
  40733c:	00000000 	nop
  407340:	8fbc0018 	lw	gp,24(sp)
  407344:	00408021 	move	s0,v0
  407348:	2402ffff 	li	v0,-1
  40734c:	120200b2 	beq	s0,v0,407618 <sprintf+0x868>
  407350:	2404ffff 	li	a0,-1
  407354:	10000043 	b	407464 <sprintf+0x6b4>
  407358:	2402000b 	li	v0,11
  40735c:	8ca50000 	lw	a1,0(a1)
  407360:	27b20028 	addiu	s2,sp,40
  407364:	02402021 	move	a0,s2
  407368:	8f99003c 	lw	t9,60(gp)
  40736c:	00000000 	nop
  407370:	0320f809 	jalr	t9
  407374:	00000000 	nop
  407378:	8fbc0018 	lw	gp,24(sp)
  40737c:	00408021 	move	s0,v0
  407380:	2402ffff 	li	v0,-1
  407384:	120200a4 	beq	s0,v0,407618 <sprintf+0x868>
  407388:	2404ffff 	li	a0,-1
  40738c:	02501021 	addu	v0,s2,s0
  407390:	10000033 	b	407460 <sprintf+0x6b0>
  407394:	a0400000 	sb	zero,0(v0)
  407398:	10400020 	beqz	v0,40741c <sprintf+0x66c>
  40739c:	24020014 	li	v0,20
  4073a0:	24020013 	li	v0,19
  4073a4:	8fa500a8 	lw	a1,168(sp)
  4073a8:	14620017 	bne	v1,v0,407408 <sprintf+0x658>
  4073ac:	27b20028 	addiu	s2,sp,40
  4073b0:	8cb20000 	lw	s2,0(a1)
  4073b4:	00000000 	nop
  4073b8:	1240000e 	beqz	s2,4073f4 <sprintf+0x644>
  4073bc:	00000000 	nop
  4073c0:	8e620004 	lw	v0,4(s3)
  4073c4:	00000000 	nop
  4073c8:	04410002 	bgez	v0,4073d4 <sprintf+0x624>
  4073cc:	00402821 	move	a1,v0
  4073d0:	2405ffff 	li	a1,-1
  4073d4:	02402021 	move	a0,s2
  4073d8:	8f99025c 	lw	t9,604(gp)
  4073dc:	00000000 	nop
  4073e0:	0320f809 	jalr	t9
  4073e4:	00000000 	nop
  4073e8:	8fbc0018 	lw	gp,24(sp)
  4073ec:	1000001c 	b	407460 <sprintf+0x6b0>
  4073f0:	00408021 	move	s0,v0
  4073f4:	8f92000c 	lw	s2,12(gp)
  4073f8:	00000000 	nop
  4073fc:	2652faec 	addiu	s2,s2,-1300
  407400:	10000017 	b	407460 <sprintf+0x6b0>
  407404:	24100006 	li	s0,6
  407408:	90a20003 	lbu	v0,3(a1)
  40740c:	24100001 	li	s0,1
  407410:	a3a20028 	sb	v0,40(sp)
  407414:	10000012 	b	407460 <sprintf+0x6b0>
  407418:	a3a00029 	sb	zero,41(sp)
  40741c:	1462007e 	bne	v1,v0,407618 <sprintf+0x868>
  407420:	2404ffff 	li	a0,-1
  407424:	8f9900bc 	lw	t9,188(gp)
  407428:	00000000 	nop
  40742c:	0320f809 	jalr	t9
  407430:	00000000 	nop
  407434:	8fbc0018 	lw	gp,24(sp)
  407438:	8c440000 	lw	a0,0(v0)
  40743c:	27a50028 	addiu	a1,sp,40
  407440:	24060080 	li	a2,128
  407444:	8f99027c 	lw	t9,636(gp)
  407448:	00000000 	nop
  40744c:	0320f809 	jalr	t9
  407450:	00000000 	nop
  407454:	8fbc0018 	lw	gp,24(sp)
  407458:	1000ffd9 	b	4073c0 <sprintf+0x610>
  40745c:	00409021 	move	s2,v0
  407460:	2402000b 	li	v0,11
  407464:	12a20007 	beq	s5,v0,407484 <sprintf+0x6d4>
  407468:	02142021 	addu	a0,s0,s4
  40746c:	2aa20006 	slti	v0,s5,6
  407470:	10400003 	beqz	v0,407480 <sprintf+0x6d0>
  407474:	00000000 	nop
  407478:	10000002 	b	407484 <sprintf+0x6d4>
  40747c:	24840001 	addiu	a0,a0,1
  407480:	24840002 	addiu	a0,a0,2
  407484:	8e620008 	lw	v0,8(s3)
  407488:	00000000 	nop
  40748c:	0082182b 	sltu	v1,a0,v0
  407490:	14600002 	bnez	v1,40749c <sprintf+0x6ec>
  407494:	00448823 	subu	s1,v0,a0
  407498:	00008821 	move	s1,zero
  40749c:	8ee20000 	lw	v0,0(s7)
  4074a0:	00911821 	addu	v1,a0,s1
  4074a4:	00431021 	addu	v0,v0,v1
  4074a8:	aee20000 	sw	v0,0(s7)
  4074ac:	24020030 	li	v0,48
  4074b0:	17c20003 	bne	s8,v0,4074c0 <sprintf+0x710>
  4074b4:	00000000 	nop
  4074b8:	0291a021 	addu	s4,s4,s1
  4074bc:	00008821 	move	s1,zero
  4074c0:	8e620010 	lw	v0,16(s3)
  4074c4:	00000000 	nop
  4074c8:	30420008 	andi	v0,v0,0x8
  4074cc:	1440000b 	bnez	v0,4074fc <sprintf+0x74c>
  4074d0:	02203021 	move	a2,s1
  4074d4:	02c02021 	move	a0,s6
  4074d8:	24050020 	li	a1,32
  4074dc:	8f990008 	lw	t9,8(gp)
  4074e0:	00000000 	nop
  4074e4:	27396ee8 	addiu	t9,t9,28392
  4074e8:	00000000 	nop
  4074ec:	0320f809 	jalr	t9
  4074f0:	00000000 	nop
  4074f4:	8fbc0018 	lw	gp,24(sp)
  4074f8:	00008821 	move	s1,zero
  4074fc:	8f84000c 	lw	a0,12(gp)
  407500:	00000000 	nop
  407504:	2484fad8 	addiu	a0,a0,-1320
  407508:	00952021 	addu	a0,a0,s5
  40750c:	02c02821 	move	a1,s6
  407510:	8f990060 	lw	t9,96(gp)
  407514:	00000000 	nop
  407518:	0320f809 	jalr	t9
  40751c:	00000000 	nop
  407520:	8fbc0018 	lw	gp,24(sp)
  407524:	02c02021 	move	a0,s6
  407528:	02803021 	move	a2,s4
  40752c:	24050030 	li	a1,48
  407530:	8f990008 	lw	t9,8(gp)
  407534:	00000000 	nop
  407538:	27396ee8 	addiu	t9,t9,28392
  40753c:	00000000 	nop
  407540:	0320f809 	jalr	t9
  407544:	00000000 	nop
  407548:	8fbc0018 	lw	gp,24(sp)
  40754c:	8fa200ac 	lw	v0,172(sp)
  407550:	00000000 	nop
  407554:	1440000a 	bnez	v0,407580 <sprintf+0x7d0>
  407558:	02402021 	move	a0,s2
  40755c:	02002821 	move	a1,s0
  407560:	02c03021 	move	a2,s6
  407564:	8f990358 	lw	t9,856(gp)
  407568:	00000000 	nop
  40756c:	0320f809 	jalr	t9
  407570:	00000000 	nop
  407574:	8fbc0018 	lw	gp,24(sp)
  407578:	1000001d 	b	4075f0 <sprintf+0x840>
  40757c:	02c02021 	move	a0,s6
  407580:	1200001a 	beqz	s0,4075ec <sprintf+0x83c>
  407584:	afa00020 	sw	zero,32(sp)
  407588:	27b20028 	addiu	s2,sp,40
  40758c:	2e020081 	sltiu	v0,s0,129
  407590:	27a70020 	addiu	a3,sp,32
  407594:	02402021 	move	a0,s2
  407598:	27a500ac 	addiu	a1,sp,172
  40759c:	14400002 	bnez	v0,4075a8 <sprintf+0x7f8>
  4075a0:	02001821 	move	v1,s0
  4075a4:	24030080 	li	v1,128
  4075a8:	00603021 	move	a2,v1
  4075ac:	8f9901c4 	lw	t9,452(gp)
  4075b0:	00000000 	nop
  4075b4:	0320f809 	jalr	t9
  4075b8:	00000000 	nop
  4075bc:	8fbc0018 	lw	gp,24(sp)
  4075c0:	02028023 	subu	s0,s0,v0
  4075c4:	02402021 	move	a0,s2
  4075c8:	00402821 	move	a1,v0
  4075cc:	02c03021 	move	a2,s6
  4075d0:	8f990358 	lw	t9,856(gp)
  4075d4:	00000000 	nop
  4075d8:	0320f809 	jalr	t9
  4075dc:	00000000 	nop
  4075e0:	8fbc0018 	lw	gp,24(sp)
  4075e4:	1600ffe9 	bnez	s0,40758c <sprintf+0x7dc>
  4075e8:	27b20028 	addiu	s2,sp,40
  4075ec:	02c02021 	move	a0,s6
  4075f0:	02203021 	move	a2,s1
  4075f4:	24050020 	li	a1,32
  4075f8:	8f990008 	lw	t9,8(gp)
  4075fc:	00000000 	nop
  407600:	27396ee8 	addiu	t9,t9,28392
  407604:	00000000 	nop
  407608:	0320f809 	jalr	t9
  40760c:	00000000 	nop
  407610:	8fbc0018 	lw	gp,24(sp)
  407614:	00002021 	move	a0,zero
  407618:	8fbf00d8 	lw	ra,216(sp)
  40761c:	8fbe00d4 	lw	s8,212(sp)
  407620:	8fb700cc 	lw	s7,204(sp)
  407624:	8fb600c8 	lw	s6,200(sp)
  407628:	8fb500c4 	lw	s5,196(sp)
  40762c:	8fb400c0 	lw	s4,192(sp)
  407630:	8fb300bc 	lw	s3,188(sp)
  407634:	8fb200b8 	lw	s2,184(sp)
  407638:	8fb100b4 	lw	s1,180(sp)
  40763c:	8fb000b0 	lw	s0,176(sp)
  407640:	00801021 	move	v0,a0
  407644:	03e00008 	jr	ra
  407648:	27bd00e0 	addiu	sp,sp,224

0040764c <vfprintf>:
  40764c:	3c1c0000 	lui	gp,0x0
  407650:	279c7414 	addiu	gp,gp,29716
  407654:	0399e021 	addu	gp,gp,t9
  407658:	27bdff30 	addiu	sp,sp,-208
  40765c:	afbc0010 	sw	gp,16(sp)
  407660:	afb300c4 	sw	s3,196(sp)
  407664:	afb200c0 	sw	s2,192(sp)
  407668:	afb000b8 	sw	s0,184(sp)
  40766c:	afbf00cc 	sw	ra,204(sp)
  407670:	afbc00c8 	sw	gp,200(sp)
  407674:	afb100bc 	sw	s1,188(sp)
  407678:	8c820034 	lw	v0,52(a0)
  40767c:	00809021 	move	s2,a0
  407680:	00a08021 	move	s0,a1
  407684:	14400007 	bnez	v0,4076a4 <vfprintf+0x58>
  407688:	00c09821 	move	s3,a2
  40768c:	24840038 	addiu	a0,a0,56
  407690:	8f990344 	lw	t9,836(gp)
  407694:	00000000 	nop
  407698:	0320f809 	jalr	t9
  40769c:	00000000 	nop
  4076a0:	8fbc0010 	lw	gp,16(sp)
  4076a4:	96430000 	lhu	v1,0(s2)
  4076a8:	02008821 	move	s1,s0
  4076ac:	30620800 	andi	v0,v1,0x800
  4076b0:	10400004 	beqz	v0,4076c4 <vfprintf+0x78>
  4076b4:	afa000b0 	sw	zero,176(sp)
  4076b8:	34620008 	ori	v0,v1,0x8
  4076bc:	1000001a 	b	407728 <vfprintf+0xdc>
  4076c0:	a6420000 	sh	v0,0(s2)
  4076c4:	34620080 	ori	v0,v1,0x80
  4076c8:	a6420000 	sh	v0,0(s2)
  4076cc:	27a40018 	addiu	a0,sp,24
  4076d0:	02002821 	move	a1,s0
  4076d4:	8f9902e0 	lw	t9,736(gp)
  4076d8:	00000000 	nop
  4076dc:	0320f809 	jalr	t9
  4076e0:	00000000 	nop
  4076e4:	8fbc0010 	lw	gp,16(sp)
  4076e8:	04410012 	bgez	v0,407734 <vfprintf+0xe8>
  4076ec:	02602821 	move	a1,s3
  4076f0:	8fa40018 	lw	a0,24(sp)
  4076f4:	8f99007c 	lw	t9,124(gp)
  4076f8:	00000000 	nop
  4076fc:	0320f809 	jalr	t9
  407700:	00000000 	nop
  407704:	8fbc0010 	lw	gp,16(sp)
  407708:	8fa40018 	lw	a0,24(sp)
  40770c:	00402821 	move	a1,v0
  407710:	02403021 	move	a2,s2
  407714:	8f990358 	lw	t9,856(gp)
  407718:	00000000 	nop
  40771c:	0320f809 	jalr	t9
  407720:	00000000 	nop
  407724:	8fbc0010 	lw	gp,16(sp)
  407728:	2402ffff 	li	v0,-1
  40772c:	1000003e 	b	407828 <vfprintf+0x1dc>
  407730:	afa200b0 	sw	v0,176(sp)
  407734:	27a40018 	addiu	a0,sp,24
  407738:	8f9900cc 	lw	t9,204(gp)
  40773c:	00000000 	nop
  407740:	0320f809 	jalr	t9
  407744:	00000000 	nop
  407748:	8fbc0010 	lw	gp,16(sp)
  40774c:	82030000 	lb	v1,0(s0)
  407750:	00000000 	nop
  407754:	1060000a 	beqz	v1,407780 <vfprintf+0x134>
  407758:	24020025 	li	v0,37
  40775c:	10620008 	beq	v1,v0,407780 <vfprintf+0x134>
