
dproxy.gdb:     file format elf32-tradbigmips

Disassembly of section .text:

00400000 <_stext-0x4>:
  400000:	00000000 	nop

00400004 <_stext>:
  400004:	b20000f4 	0xb20000f4
	...
  400018:	00007fef 	0x7fef
  40001c:	00000000 	nop

00400020 <__start>:
  400020:	04100001 	bltzal	zero,400028 <__start+0x8>
  400024:	00000000 	nop
  400028:	3c1c0001 	lui	gp,0x1
  40002c:	279cea38 	addiu	gp,gp,-5576
  400030:	039fe021 	addu	gp,gp,ra
  400034:	0000f821 	move	ra,zero
  400038:	8fa40000 	lw	a0,0(sp)
  40003c:	27a50004 	addiu	a1,sp,4
  400040:	24860001 	addiu	a2,a0,1
  400044:	00063080 	sll	a2,a2,0x2
  400048:	00c53020 	add	a2,a2,a1
  40004c:	8f870268 	lw	a3,616(gp)
  400050:	27bdffe8 	addiu	sp,sp,-24
  400054:	8f820120 	lw	v0,288(gp)
  400058:	00000000 	nop
  40005c:	afa20010 	sw	v0,16(sp)
  400060:	8f990078 	lw	t9,120(gp)
  400064:	00000000 	nop
  400068:	0320f809 	jalr	t9
  40006c:	00000000 	nop
  400070:	27bd0018 	addiu	sp,sp,24
  400074:	1000ffff 	b	400074 <__start+0x54>
  400078:	00000000 	nop
  40007c:	00000000 	nop
  400080:	3c1c0001 	lui	gp,0x1
  400084:	279ce9e0 	addiu	gp,gp,-5664
  400088:	0399e021 	addu	gp,gp,t9
  40008c:	27bdffe0 	addiu	sp,sp,-32
  400090:	afbc0010 	sw	gp,16(sp)
  400094:	8f82000c 	lw	v0,12(gp)
  400098:	00000000 	nop
  40009c:	24421df0 	addiu	v0,v0,7664
  4000a0:	90420000 	lbu	v0,0(v0)
  4000a4:	afbf001c 	sw	ra,28(sp)
  4000a8:	1440002c 	bnez	v0,40015c <__start+0x13c>
  4000ac:	afbc0018 	sw	gp,24(sp)
  4000b0:	8f82000c 	lw	v0,12(gp)
  4000b4:	00000000 	nop
  4000b8:	24420cd4 	addiu	v0,v0,3284
  4000bc:	8c420000 	lw	v0,0(v0)
  4000c0:	00000000 	nop
  4000c4:	8c430000 	lw	v1,0(v0)
  4000c8:	00000000 	nop
  4000cc:	10600013 	beqz	v1,40011c <__start+0xfc>
  4000d0:	24420004 	addiu	v0,v0,4
  4000d4:	8f81000c 	lw	at,12(gp)
  4000d8:	00000000 	nop
  4000dc:	24210cd4 	addiu	at,at,3284
  4000e0:	ac220000 	sw	v0,0(at)
  4000e4:	0060c821 	move	t9,v1
  4000e8:	0320f809 	jalr	t9
  4000ec:	00000000 	nop
  4000f0:	8fbc0010 	lw	gp,16(sp)
  4000f4:	00000000 	nop
  4000f8:	8f82000c 	lw	v0,12(gp)
  4000fc:	00000000 	nop
  400100:	24420cd4 	addiu	v0,v0,3284
  400104:	8c420000 	lw	v0,0(v0)
  400108:	00000000 	nop
  40010c:	8c430000 	lw	v1,0(v0)
  400110:	00000000 	nop
  400114:	1460ffef 	bnez	v1,4000d4 <__start+0xb4>
  400118:	24420004 	addiu	v0,v0,4
  40011c:	8f82020c 	lw	v0,524(gp)
  400120:	00000000 	nop
  400124:	10400008 	beqz	v0,400148 <__start+0x128>
  400128:	00000000 	nop
  40012c:	8f84000c 	lw	a0,12(gp)
  400130:	00000000 	nop
  400134:	24841db0 	addiu	a0,a0,7600
  400138:	0040c821 	move	t9,v0
  40013c:	0320f809 	jalr	t9
  400140:	00000000 	nop
  400144:	8fbc0010 	lw	gp,16(sp)
  400148:	24020001 	li	v0,1
  40014c:	8f81000c 	lw	at,12(gp)
  400150:	00000000 	nop
  400154:	24211df0 	addiu	at,at,7664
  400158:	a0220000 	sb	v0,0(at)
  40015c:	8fbf001c 	lw	ra,28(sp)
  400160:	00000000 	nop
  400164:	03e00008 	jr	ra
  400168:	27bd0020 	addiu	sp,sp,32
  40016c:	3c1c0001 	lui	gp,0x1
  400170:	279ce8f4 	addiu	gp,gp,-5900
  400174:	0399e021 	addu	gp,gp,t9
  400178:	27bdffe0 	addiu	sp,sp,-32
  40017c:	afbc0010 	sw	gp,16(sp)
  400180:	8f820048 	lw	v0,72(gp)
  400184:	afbf001c 	sw	ra,28(sp)
  400188:	8f84000c 	lw	a0,12(gp)
  40018c:	00000000 	nop
  400190:	24841db0 	addiu	a0,a0,7600
  400194:	8f85000c 	lw	a1,12(gp)
  400198:	00000000 	nop
  40019c:	24a51df4 	addiu	a1,a1,7668
  4001a0:	10400006 	beqz	v0,4001bc <__start+0x19c>
  4001a4:	afbc0018 	sw	gp,24(sp)
  4001a8:	0040c821 	move	t9,v0
  4001ac:	0320f809 	jalr	t9
  4001b0:	00000000 	nop
  4001b4:	8fbc0010 	lw	gp,16(sp)
  4001b8:	00000000 	nop
  4001bc:	8f82000c 	lw	v0,12(gp)
  4001c0:	00000000 	nop
  4001c4:	2442e990 	addiu	v0,v0,-5744
  4001c8:	8c420000 	lw	v0,0(v0)
  4001cc:	00000000 	nop
  4001d0:	1040000b 	beqz	v0,400200 <__start+0x1e0>
  4001d4:	00000000 	nop
  4001d8:	8f82005c 	lw	v0,92(gp)
  4001dc:	8f84000c 	lw	a0,12(gp)
  4001e0:	00000000 	nop
  4001e4:	2484e990 	addiu	a0,a0,-5744
  4001e8:	10400005 	beqz	v0,400200 <__start+0x1e0>
  4001ec:	00000000 	nop
  4001f0:	0040c821 	move	t9,v0
  4001f4:	0320f809 	jalr	t9
  4001f8:	00000000 	nop
  4001fc:	8fbc0010 	lw	gp,16(sp)
  400200:	8fbf001c 	lw	ra,28(sp)
  400204:	00000000 	nop
  400208:	03e00008 	jr	ra
  40020c:	27bd0020 	addiu	sp,sp,32

00400210 <is_connected>:
  400210:	3c1c0001 	lui	gp,0x1
  400214:	279ce850 	addiu	gp,gp,-6064
  400218:	0399e021 	addu	gp,gp,t9
  40021c:	27bdffe0 	addiu	sp,sp,-32
  400220:	afbc0010 	sw	gp,16(sp)
  400224:	8f820034 	lw	v0,52(gp)
  400228:	00000000 	nop
  40022c:	8c420504 	lw	v0,1284(v0)
  400230:	afbf001c 	sw	ra,28(sp)
  400234:	afbc0018 	sw	gp,24(sp)
  400238:	8f840034 	lw	a0,52(gp)
  40023c:	00000000 	nop
  400240:	2484090c 	addiu	a0,a0,2316
  400244:	8f85000c 	lw	a1,12(gp)
  400248:	00000000 	nop
  40024c:	24a5ee10 	addiu	a1,a1,-4592
  400250:	1040000f 	beqz	v0,400290 <is_connected+0x80>
  400254:	24030001 	li	v1,1
  400258:	8f990178 	lw	t9,376(gp)
  40025c:	00000000 	nop
  400260:	0320f809 	jalr	t9
  400264:	00000000 	nop
  400268:	8fbc0010 	lw	gp,16(sp)
  40026c:	00402021 	move	a0,v0
  400270:	10400007 	beqz	v0,400290 <is_connected+0x80>
  400274:	00001821 	move	v1,zero
  400278:	8f99015c 	lw	t9,348(gp)
  40027c:	00000000 	nop
  400280:	0320f809 	jalr	t9
  400284:	00000000 	nop
  400288:	8fbc0010 	lw	gp,16(sp)
  40028c:	24030001 	li	v1,1
  400290:	8fbf001c 	lw	ra,28(sp)
  400294:	00601021 	move	v0,v1
  400298:	03e00008 	jr	ra
  40029c:	27bd0020 	addiu	sp,sp,32

004002a0 <dns_init>:
  4002a0:	3c1c0001 	lui	gp,0x1
  4002a4:	279ce7c0 	addiu	gp,gp,-6208
  4002a8:	0399e021 	addu	gp,gp,t9
  4002ac:	27bdffc8 	addiu	sp,sp,-56
  4002b0:	afbc0010 	sw	gp,16(sp)
  4002b4:	afb00028 	sw	s0,40(sp)
  4002b8:	27b00018 	addiu	s0,sp,24
  4002bc:	02002021 	move	a0,s0
  4002c0:	00002821 	move	a1,zero
  4002c4:	24060010 	li	a2,16
  4002c8:	afbf0030 	sw	ra,48(sp)
  4002cc:	afbc002c 	sw	gp,44(sp)
  4002d0:	8f990164 	lw	t9,356(gp)
  4002d4:	00000000 	nop
  4002d8:	0320f809 	jalr	t9
  4002dc:	00000000 	nop
  4002e0:	8fbc0010 	lw	gp,16(sp)
  4002e4:	24040002 	li	a0,2
  4002e8:	24050001 	li	a1,1
  4002ec:	24060011 	li	a2,17
  4002f0:	8f9902bc 	lw	t9,700(gp)
  4002f4:	00000000 	nop
  4002f8:	0320f809 	jalr	t9
  4002fc:	00000000 	nop
  400300:	8fbc0010 	lw	gp,16(sp)
  400304:	00000000 	nop
  400308:	8f8100e4 	lw	at,228(gp)
  40030c:	00000000 	nop
  400310:	ac220000 	sw	v0,0(at)
  400314:	8f84000c 	lw	a0,12(gp)
  400318:	00000000 	nop
  40031c:	2484ee14 	addiu	a0,a0,-4588
  400320:	04400012 	bltz	v0,40036c <dns_init+0xcc>
  400324:	02002821 	move	a1,s0
  400328:	00402021 	move	a0,v0
  40032c:	24020002 	li	v0,2
  400330:	a7a20018 	sh	v0,24(sp)
  400334:	24020035 	li	v0,53
  400338:	24060010 	li	a2,16
  40033c:	a7a2001a 	sh	v0,26(sp)
  400340:	afa0001c 	sw	zero,28(sp)
  400344:	8f990214 	lw	t9,532(gp)
  400348:	00000000 	nop
  40034c:	0320f809 	jalr	t9
  400350:	00000000 	nop
  400354:	8fbc0010 	lw	gp,16(sp)
  400358:	04410010 	bgez	v0,40039c <dns_init+0xfc>
  40035c:	00002021 	move	a0,zero
  400360:	8f84000c 	lw	a0,12(gp)
  400364:	00000000 	nop
  400368:	2484ee2c 	addiu	a0,a0,-4564
  40036c:	8f9900d8 	lw	t9,216(gp)
  400370:	00000000 	nop
  400374:	0320f809 	jalr	t9
  400378:	00000000 	nop
  40037c:	8fbc0010 	lw	gp,16(sp)
  400380:	24040001 	li	a0,1
  400384:	8f9900b4 	lw	t9,180(gp)
  400388:	00000000 	nop
  40038c:	0320f809 	jalr	t9
  400390:	00000000 	nop
  400394:	8fbc0010 	lw	gp,16(sp)
  400398:	00000000 	nop
  40039c:	8f810100 	lw	at,256(gp)
  4003a0:	00000000 	nop
  4003a4:	ac200000 	sw	zero,0(at)
  4003a8:	8f830040 	lw	v1,64(gp)
  4003ac:	24840001 	addiu	a0,a0,1
  4003b0:	2c820020 	sltiu	v0,a0,32
  4003b4:	ac600000 	sw	zero,0(v1)
  4003b8:	1440fffc 	bnez	v0,4003ac <dns_init+0x10c>
  4003bc:	24630004 	addiu	v1,v1,4
  4003c0:	8f8400e4 	lw	a0,228(gp)
  4003c4:	00000000 	nop
  4003c8:	8c840000 	lw	a0,0(a0)
  4003cc:	24020001 	li	v0,1
  4003d0:	00042942 	srl	a1,a0,0x5
  4003d4:	00052880 	sll	a1,a1,0x2
  4003d8:	8f810040 	lw	at,64(gp)
  4003dc:	00000000 	nop
  4003e0:	00252821 	addu	a1,at,a1
  4003e4:	8ca30000 	lw	v1,0(a1)
  4003e8:	3084001f 	andi	a0,a0,0x1f
  4003ec:	00821004 	sllv	v0,v0,a0
  4003f0:	00621825 	or	v1,v1,v0
  4003f4:	8f840034 	lw	a0,52(gp)
  4003f8:	00000000 	nop
  4003fc:	8c840508 	lw	a0,1288(a0)
  400400:	aca30000 	sw	v1,0(a1)
  400404:	8f8102f8 	lw	at,760(gp)
  400408:	00000000 	nop
  40040c:	ac200000 	sw	zero,0(at)
  400410:	8f990298 	lw	t9,664(gp)
  400414:	00000000 	nop
  400418:	0320f809 	jalr	t9
  40041c:	00000000 	nop
  400420:	8fbc0010 	lw	gp,16(sp)
  400424:	8fbf0030 	lw	ra,48(sp)
  400428:	8fb00028 	lw	s0,40(sp)
  40042c:	24020001 	li	v0,1
  400430:	03e00008 	jr	ra
  400434:	27bd0038 	addiu	sp,sp,56

00400438 <dns_handle_new_query>:
  400438:	3c1c0001 	lui	gp,0x1
  40043c:	279ce628 	addiu	gp,gp,-6616
  400440:	0399e021 	addu	gp,gp,t9
  400444:	27bdffd0 	addiu	sp,sp,-48
  400448:	afbc0010 	sw	gp,16(sp)
  40044c:	afb10024 	sw	s1,36(sp)
  400450:	afb00020 	sw	s0,32(sp)
  400454:	afbf002c 	sw	ra,44(sp)
  400458:	afbc0028 	sw	gp,40(sp)
  40045c:	9483022c 	lhu	v1,556(a0)
  400460:	24020001 	li	v0,1
  400464:	00808021 	move	s0,a0
  400468:	10620004 	beq	v1,v0,40047c <dns_handle_new_query+0x44>
  40046c:	2411ffff 	li	s1,-1
  400470:	2402001c 	li	v0,28
  400474:	14620009 	bne	v1,v0,40049c <dns_handle_new_query+0x64>
  400478:	2402000c 	li	v0,12
  40047c:	26050100 	addiu	a1,s0,256
  400480:	8f990118 	lw	t9,280(gp)
  400484:	00000000 	nop
  400488:	0320f809 	jalr	t9
  40048c:	00000000 	nop
  400490:	8fbc0010 	lw	gp,16(sp)
  400494:	1000000b 	b	4004c4 <dns_handle_new_query+0x8c>
  400498:	00408821 	move	s1,v0
  40049c:	1462000a 	bne	v1,v0,4004c8 <dns_handle_new_query+0x90>
  4004a0:	26060100 	addiu	a2,s0,256
  4004a4:	24840100 	addiu	a0,a0,256
  4004a8:	02002821 	move	a1,s0
  4004ac:	8f990264 	lw	t9,612(gp)
  4004b0:	00000000 	nop
  4004b4:	0320f809 	jalr	t9
  4004b8:	00000000 	nop
  4004bc:	8fbc0010 	lw	gp,16(sp)
  4004c0:	00408821 	move	s1,v0
  4004c4:	26060100 	addiu	a2,s0,256
  4004c8:	8f84000c 	lw	a0,12(gp)
  4004cc:	00000000 	nop
  4004d0:	2484ee54 	addiu	a0,a0,-4524
  4004d4:	02002821 	move	a1,s0
  4004d8:	8f9902a0 	lw	t9,672(gp)
  4004dc:	00000000 	nop
  4004e0:	0320f809 	jalr	t9
  4004e4:	00000000 	nop
  4004e8:	8fbc0010 	lw	gp,16(sp)
  4004ec:	12200005 	beqz	s1,400504 <dns_handle_new_query+0xcc>
  4004f0:	24020001 	li	v0,1
  4004f4:	12220054 	beq	s1,v0,400648 <dns_handle_new_query+0x210>
  4004f8:	02002021 	move	a0,s0
  4004fc:	1000006d 	b	4006b4 <dns_handle_new_query+0x27c>
  400500:	00000000 	nop
  400504:	8f990080 	lw	t9,128(gp)
  400508:	00000000 	nop
  40050c:	0320f809 	jalr	t9
  400510:	00000000 	nop
  400514:	8fbc0010 	lw	gp,16(sp)
  400518:	10400030 	beqz	v0,4005dc <dns_handle_new_query+0x1a4>
  40051c:	00000000 	nop
  400520:	96050120 	lhu	a1,288(s0)
  400524:	8f84000c 	lw	a0,12(gp)
  400528:	00000000 	nop
  40052c:	2484ee6c 	addiu	a0,a0,-4500
  400530:	8f9902a0 	lw	t9,672(gp)
  400534:	00000000 	nop
  400538:	0320f809 	jalr	t9
  40053c:	00000000 	nop
  400540:	8fbc0010 	lw	gp,16(sp)
  400544:	00000000 	nop
  400548:	8f8402f8 	lw	a0,760(gp)
  40054c:	00000000 	nop
  400550:	8c840000 	lw	a0,0(a0)
  400554:	02002821 	move	a1,s0
  400558:	8f990208 	lw	t9,520(gp)
  40055c:	00000000 	nop
  400560:	0320f809 	jalr	t9
  400564:	00000000 	nop
  400568:	8fbc0010 	lw	gp,16(sp)
  40056c:	27a50018 	addiu	a1,sp,24
  400570:	8f840034 	lw	a0,52(gp)
  400574:	8f8102f8 	lw	at,760(gp)
  400578:	00000000 	nop
  40057c:	ac220000 	sw	v0,0(at)
  400580:	8f990184 	lw	t9,388(gp)
  400584:	00000000 	nop
  400588:	0320f809 	jalr	t9
  40058c:	00000000 	nop
  400590:	8fbc0010 	lw	gp,16(sp)
  400594:	00000000 	nop
  400598:	8f84000c 	lw	a0,12(gp)
  40059c:	00000000 	nop
  4005a0:	2484ee88 	addiu	a0,a0,-4472
  4005a4:	8f850034 	lw	a1,52(gp)
  4005a8:	8f9902a0 	lw	t9,672(gp)
  4005ac:	00000000 	nop
  4005b0:	0320f809 	jalr	t9
  4005b4:	00000000 	nop
  4005b8:	8fbc0010 	lw	gp,16(sp)
  4005bc:	00000000 	nop
  4005c0:	8f8400e4 	lw	a0,228(gp)
  4005c4:	00000000 	nop
  4005c8:	8c840000 	lw	a0,0(a0)
  4005cc:	8fa50018 	lw	a1,24(sp)
  4005d0:	02003821 	move	a3,s0
  4005d4:	10000015 	b	40062c <dns_handle_new_query+0x1f4>
  4005d8:	24060035 	li	a2,53
  4005dc:	8f84000c 	lw	a0,12(gp)
  4005e0:	00000000 	nop
  4005e4:	2484ee9c 	addiu	a0,a0,-4452
  4005e8:	8f9902a0 	lw	t9,672(gp)
  4005ec:	00000000 	nop
  4005f0:	0320f809 	jalr	t9
  4005f4:	00000000 	nop
  4005f8:	8fbc0010 	lw	gp,16(sp)
  4005fc:	02002021 	move	a0,s0
  400600:	8f990278 	lw	t9,632(gp)
  400604:	00000000 	nop
  400608:	0320f809 	jalr	t9
  40060c:	00000000 	nop
  400610:	8fbc0010 	lw	gp,16(sp)
  400614:	8e0515a4 	lw	a1,5540(s0)
  400618:	8e0615a8 	lw	a2,5544(s0)
  40061c:	8f8400e4 	lw	a0,228(gp)
  400620:	00000000 	nop
  400624:	8c840000 	lw	a0,0(a0)
  400628:	02003821 	move	a3,s0
  40062c:	8f990320 	lw	t9,800(gp)
  400630:	00000000 	nop
  400634:	0320f809 	jalr	t9
  400638:	00000000 	nop
  40063c:	8fbc0010 	lw	gp,16(sp)
  400640:	10000025 	b	4006d8 <dns_handle_new_query+0x2a0>
  400644:	00000000 	nop
  400648:	8f9900a0 	lw	t9,160(gp)
  40064c:	00000000 	nop
  400650:	0320f809 	jalr	t9
  400654:	00000000 	nop
  400658:	8fbc0010 	lw	gp,16(sp)
  40065c:	8e0515a4 	lw	a1,5540(s0)
  400660:	8e0615a8 	lw	a2,5544(s0)
  400664:	8f8400e4 	lw	a0,228(gp)
  400668:	00000000 	nop
  40066c:	8c840000 	lw	a0,0(a0)
  400670:	02003821 	move	a3,s0
  400674:	8f990320 	lw	t9,800(gp)
  400678:	00000000 	nop
  40067c:	0320f809 	jalr	t9
  400680:	00000000 	nop
  400684:	8fbc0010 	lw	gp,16(sp)
  400688:	00000000 	nop
  40068c:	8f84000c 	lw	a0,12(gp)
  400690:	00000000 	nop
  400694:	2484eeb0 	addiu	a0,a0,-4432
  400698:	8f9902a0 	lw	t9,672(gp)
  40069c:	00000000 	nop
  4006a0:	0320f809 	jalr	t9
  4006a4:	00000000 	nop
  4006a8:	8fbc0010 	lw	gp,16(sp)
  4006ac:	1000000a 	b	4006d8 <dns_handle_new_query+0x2a0>
  4006b0:	00000000 	nop
  4006b4:	9605022c 	lhu	a1,556(s0)
  4006b8:	8f84000c 	lw	a0,12(gp)
  4006bc:	00000000 	nop
  4006c0:	2484eebc 	addiu	a0,a0,-4420
  4006c4:	8f9902a0 	lw	t9,672(gp)
  4006c8:	00000000 	nop
  4006cc:	0320f809 	jalr	t9
  4006d0:	00000000 	nop
  4006d4:	8fbc0010 	lw	gp,16(sp)
  4006d8:	8fbf002c 	lw	ra,44(sp)
  4006dc:	8fb10024 	lw	s1,36(sp)
  4006e0:	8fb00020 	lw	s0,32(sp)
  4006e4:	03e00008 	jr	ra
  4006e8:	27bd0030 	addiu	sp,sp,48

004006ec <dns_handle_request>:
  4006ec:	3c1c0001 	lui	gp,0x1
  4006f0:	279ce374 	addiu	gp,gp,-7308
  4006f4:	0399e021 	addu	gp,gp,t9
  4006f8:	27bdffd0 	addiu	sp,sp,-48
  4006fc:	afbc0010 	sw	gp,16(sp)
  400700:	afb1001c 	sw	s1,28(sp)
  400704:	00808821 	move	s1,a0
  400708:	8f8402f8 	lw	a0,760(gp)
  40070c:	00000000 	nop
  400710:	8c840000 	lw	a0,0(a0)
  400714:	02202821 	move	a1,s1
  400718:	afb00018 	sw	s0,24(sp)
  40071c:	afbf0028 	sw	ra,40(sp)
  400720:	afbc0024 	sw	gp,36(sp)
  400724:	afb20020 	sw	s2,32(sp)
  400728:	8f9900c4 	lw	t9,196(gp)
  40072c:	00000000 	nop
  400730:	0320f809 	jalr	t9
  400734:	00000000 	nop
  400738:	8fbc0010 	lw	gp,16(sp)
  40073c:	00000000 	nop
  400740:	8f84000c 	lw	a0,12(gp)
  400744:	00000000 	nop
  400748:	2484eed4 	addiu	a0,a0,-4396
  40074c:	10400050 	beqz	v0,400890 <dns_handle_request+0x1a4>
  400750:	00408021 	move	s0,v0
  400754:	8f9902a0 	lw	t9,672(gp)
  400758:	00000000 	nop
  40075c:	0320f809 	jalr	t9
  400760:	00000000 	nop
  400764:	8fbc0010 	lw	gp,16(sp)
  400768:	8e220120 	lw	v0,288(s1)
  40076c:	8f84000c 	lw	a0,12(gp)
  400770:	00000000 	nop
  400774:	2484eeec 	addiu	a0,a0,-4372
  400778:	3043000f 	andi	v1,v0,0xf
  40077c:	30428000 	andi	v0,v0,0x8000
  400780:	1040003c 	beqz	v0,400874 <dns_handle_request+0x188>
  400784:	02203821 	move	a3,s1
  400788:	14600047 	bnez	v1,4008a8 <dns_handle_request+0x1bc>
  40078c:	26320100 	addiu	s2,s1,256
  400790:	8e0615a8 	lw	a2,5544(s0)
  400794:	8e0515a4 	lw	a1,5540(s0)
  400798:	8f8400e4 	lw	a0,228(gp)
  40079c:	00000000 	nop
  4007a0:	8c840000 	lw	a0,0(a0)
  4007a4:	8f990320 	lw	t9,800(gp)
  4007a8:	00000000 	nop
  4007ac:	0320f809 	jalr	t9
  4007b0:	00000000 	nop
  4007b4:	8fbc0010 	lw	gp,16(sp)
  4007b8:	8e2415a4 	lw	a0,5540(s1)
  4007bc:	8f990154 	lw	t9,340(gp)
  4007c0:	00000000 	nop
  4007c4:	0320f809 	jalr	t9
  4007c8:	00000000 	nop
  4007cc:	8fbc0010 	lw	gp,16(sp)
  4007d0:	00402821 	move	a1,v0
  4007d4:	8f84000c 	lw	a0,12(gp)
  4007d8:	00000000 	nop
  4007dc:	2484ef00 	addiu	a0,a0,-4352
  4007e0:	8f9902a0 	lw	t9,672(gp)
  4007e4:	00000000 	nop
  4007e8:	0320f809 	jalr	t9
  4007ec:	00000000 	nop
  4007f0:	8fbc0010 	lw	gp,16(sp)
  4007f4:	00000000 	nop
  4007f8:	8f8402f8 	lw	a0,760(gp)
  4007fc:	00000000 	nop
  400800:	8c840000 	lw	a0,0(a0)
  400804:	02002821 	move	a1,s0
  400808:	8f9902b4 	lw	t9,692(gp)
  40080c:	00000000 	nop
  400810:	0320f809 	jalr	t9
  400814:	00000000 	nop
  400818:	8fbc0010 	lw	gp,16(sp)
  40081c:	02202821 	move	a1,s1
  400820:	02403021 	move	a2,s2
  400824:	8f84000c 	lw	a0,12(gp)
  400828:	00000000 	nop
  40082c:	2484ef20 	addiu	a0,a0,-4320
  400830:	8f8102f8 	lw	at,760(gp)
  400834:	00000000 	nop
  400838:	ac220000 	sw	v0,0(at)
  40083c:	8f9902a0 	lw	t9,672(gp)
  400840:	00000000 	nop
  400844:	0320f809 	jalr	t9
  400848:	00000000 	nop
  40084c:	8fbc0010 	lw	gp,16(sp)
  400850:	02202021 	move	a0,s1
  400854:	02402821 	move	a1,s2
  400858:	8f99035c 	lw	t9,860(gp)
  40085c:	00000000 	nop
  400860:	0320f809 	jalr	t9
  400864:	00000000 	nop
  400868:	8fbc0010 	lw	gp,16(sp)
  40086c:	1000000e 	b	4008a8 <dns_handle_request+0x1bc>
  400870:	00000000 	nop
  400874:	8f9902a0 	lw	t9,672(gp)
  400878:	00000000 	nop
  40087c:	0320f809 	jalr	t9
  400880:	00000000 	nop
  400884:	8fbc0010 	lw	gp,16(sp)
  400888:	10000007 	b	4008a8 <dns_handle_request+0x1bc>
  40088c:	00000000 	nop
  400890:	02202021 	move	a0,s1
  400894:	8f9900e0 	lw	t9,224(gp)
  400898:	00000000 	nop
  40089c:	0320f809 	jalr	t9
  4008a0:	00000000 	nop
  4008a4:	8fbc0010 	lw	gp,16(sp)
  4008a8:	8fbf0028 	lw	ra,40(sp)
  4008ac:	8fb20020 	lw	s2,32(sp)
  4008b0:	8fb1001c 	lw	s1,28(sp)
  4008b4:	8fb00018 	lw	s0,24(sp)
  4008b8:	03e00008 	jr	ra
  4008bc:	27bd0030 	addiu	sp,sp,48

004008c0 <dns_main_loop>:
  4008c0:	3c1c0001 	lui	gp,0x1
  4008c4:	279ce1a0 	addiu	gp,gp,-7776
  4008c8:	0399e021 	addu	gp,gp,t9
  4008cc:	27bde780 	addiu	sp,sp,-6272
  4008d0:	afbc0018 	sw	gp,24(sp)
  4008d4:	8f830034 	lw	v1,52(gp)
  4008d8:	00000000 	nop
  4008dc:	8c630508 	lw	v1,1288(v1)
  4008e0:	3c028888 	lui	v0,0x8888
  4008e4:	34428889 	ori	v0,v0,0x8889
  4008e8:	00620018 	mult	v1,v0
  4008ec:	000327c3 	sra	a0,v1,0x1f
  4008f0:	afb21870 	sw	s2,6256(sp)
  4008f4:	afbf187c 	sw	ra,6268(sp)
  4008f8:	afbc1878 	sw	gp,6264(sp)
  4008fc:	afb31874 	sw	s3,6260(sp)
  400900:	afb1186c 	sw	s1,6252(sp)
  400904:	afb01868 	sw	s0,6248(sp)
  400908:	00001010 	mfhi	v0
  40090c:	00431021 	addu	v0,v0,v1
  400910:	00021143 	sra	v0,v0,0x5
  400914:	00449023 	subu	s2,v0,a0
  400918:	8f820100 	lw	v0,256(gp)
  40091c:	00000000 	nop
  400920:	8c420000 	lw	v0,0(v0)
  400924:	00000000 	nop
  400928:	144000e9 	bnez	v0,400cd0 <dns_main_loop+0x410>
  40092c:	24020001 	li	v0,1
  400930:	27a50028 	addiu	a1,sp,40
  400934:	8f830040 	lw	v1,64(gp)
  400938:	afa20020 	sw	v0,32(sp)
  40093c:	afa00024 	sw	zero,36(sp)
  400940:	00a01021 	move	v0,a1
  400944:	24640080 	addiu	a0,v1,128
  400948:	8c660000 	lw	a2,0(v1)
  40094c:	8c670004 	lw	a3,4(v1)
  400950:	8c680008 	lw	t0,8(v1)
  400954:	8c69000c 	lw	t1,12(v1)
  400958:	ac460000 	sw	a2,0(v0)
  40095c:	ac470004 	sw	a3,4(v0)
  400960:	ac480008 	sw	t0,8(v0)
  400964:	ac49000c 	sw	t1,12(v0)
  400968:	24630010 	addiu	v1,v1,16
  40096c:	1464fff6 	bne	v1,a0,400948 <dns_main_loop+0x88>
  400970:	24420010 	addiu	v0,v0,16
  400974:	27a20020 	addiu	v0,sp,32
  400978:	24040400 	li	a0,1024
  40097c:	00003021 	move	a2,zero
  400980:	00003821 	move	a3,zero
  400984:	afa20010 	sw	v0,16(sp)
  400988:	8f9902b8 	lw	t9,696(gp)
  40098c:	00000000 	nop
  400990:	0320f809 	jalr	t9
  400994:	00000000 	nop
  400998:	8fbc0018 	lw	gp,24(sp)
  40099c:	10400013 	beqz	v0,4009ec <dns_main_loop+0x12c>
  4009a0:	27b000a8 	addiu	s0,sp,168
  4009a4:	8f8400e4 	lw	a0,228(gp)
  4009a8:	00000000 	nop
  4009ac:	8c840000 	lw	a0,0(a0)
  4009b0:	02002821 	move	a1,s0
  4009b4:	8f990270 	lw	t9,624(gp)
  4009b8:	00000000 	nop
  4009bc:	0320f809 	jalr	t9
  4009c0:	00000000 	nop
  4009c4:	8fbc0018 	lw	gp,24(sp)
  4009c8:	02002021 	move	a0,s0
  4009cc:	afa001c4 	sw	zero,452(sp)
  4009d0:	8f9901f8 	lw	t9,504(gp)
  4009d4:	00000000 	nop
  4009d8:	0320f809 	jalr	t9
  4009dc:	00000000 	nop
  4009e0:	8fbc0018 	lw	gp,24(sp)
  4009e4:	100000b4 	b	400cb8 <dns_main_loop+0x3f8>
  4009e8:	00000000 	nop
  4009ec:	8f9002f8 	lw	s0,760(gp)
  4009f0:	00000000 	nop
  4009f4:	8e100000 	lw	s0,0(s0)
  4009f8:	00000000 	nop
  4009fc:	12000097 	beqz	s0,400c5c <dns_main_loop+0x39c>
  400a00:	00000000 	nop
  400a04:	8e02011c 	lw	v0,284(s0)
  400a08:	8f84000c 	lw	a0,12(gp)
  400a0c:	00000000 	nop
  400a10:	2484ef3c 	addiu	a0,a0,-4292
  400a14:	24420001 	addiu	v0,v0,1
  400a18:	284300f1 	slti	v1,v0,241
  400a1c:	8e1317b4 	lw	s3,6068(s0)
  400a20:	14600025 	bnez	v1,400ab8 <dns_main_loop+0x1f8>
  400a24:	ae02011c 	sw	v0,284(s0)
  400a28:	8f9902a0 	lw	t9,672(gp)
  400a2c:	00000000 	nop
  400a30:	0320f809 	jalr	t9
  400a34:	00000000 	nop
  400a38:	8fbc0018 	lw	gp,24(sp)
  400a3c:	02002021 	move	a0,s0
  400a40:	8f990278 	lw	t9,632(gp)
  400a44:	00000000 	nop
  400a48:	0320f809 	jalr	t9
  400a4c:	00000000 	nop
  400a50:	8fbc0018 	lw	gp,24(sp)
  400a54:	8e0615a8 	lw	a2,5544(s0)
  400a58:	8e0515a4 	lw	a1,5540(s0)
  400a5c:	8f8400e4 	lw	a0,228(gp)
  400a60:	00000000 	nop
  400a64:	8c840000 	lw	a0,0(a0)
  400a68:	02003821 	move	a3,s0
  400a6c:	8f990320 	lw	t9,800(gp)
  400a70:	00000000 	nop
  400a74:	0320f809 	jalr	t9
  400a78:	00000000 	nop
  400a7c:	8fbc0018 	lw	gp,24(sp)
  400a80:	00000000 	nop
  400a84:	8f8402f8 	lw	a0,760(gp)
  400a88:	00000000 	nop
  400a8c:	8c840000 	lw	a0,0(a0)
  400a90:	02002821 	move	a1,s0
  400a94:	8f9902b4 	lw	t9,692(gp)
  400a98:	00000000 	nop
  400a9c:	0320f809 	jalr	t9
  400aa0:	00000000 	nop
  400aa4:	8fbc0018 	lw	gp,24(sp)
  400aa8:	00000000 	nop
  400aac:	8f8102f8 	lw	at,760(gp)
  400ab0:	00000000 	nop
  400ab4:	ac220000 	sw	v0,0(at)
  400ab8:	8e03011c 	lw	v1,284(s0)
  400abc:	00000000 	nop
  400ac0:	30620001 	andi	v0,v1,0x1
  400ac4:	14400062 	bnez	v0,400c50 <dns_main_loop+0x390>
  400ac8:	286400f0 	slti	a0,v1,240
  400acc:	10800060 	beqz	a0,400c50 <dns_main_loop+0x390>
  400ad0:	000317c2 	srl	v0,v1,0x1f
  400ad4:	00621021 	addu	v0,v1,v0
  400ad8:	00021043 	sra	v0,v0,0x1
  400adc:	00021a00 	sll	v1,v0,0x8
  400ae0:	28420005 	slti	v0,v0,5
  400ae4:	8f84000c 	lw	a0,12(gp)
  400ae8:	00000000 	nop
  400aec:	2484ef50 	addiu	a0,a0,-4272
  400af0:	8f910034 	lw	s1,52(gp)
  400af4:	00000000 	nop
  400af8:	10400003 	beqz	v0,400b08 <dns_main_loop+0x248>
  400afc:	02238821 	addu	s1,s1,v1
  400b00:	1620002f 	bnez	s1,400bc0 <dns_main_loop+0x300>
  400b04:	27a51860 	addiu	a1,sp,6240
  400b08:	8f9902a0 	lw	t9,672(gp)
  400b0c:	00000000 	nop
  400b10:	0320f809 	jalr	t9
  400b14:	00000000 	nop
  400b18:	8fbc0018 	lw	gp,24(sp)
  400b1c:	02002021 	move	a0,s0
  400b20:	8f990278 	lw	t9,632(gp)
  400b24:	00000000 	nop
  400b28:	0320f809 	jalr	t9
  400b2c:	00000000 	nop
  400b30:	8fbc0018 	lw	gp,24(sp)
  400b34:	8e0515a4 	lw	a1,5540(s0)
  400b38:	8e0615a8 	lw	a2,5544(s0)
  400b3c:	8f8400e4 	lw	a0,228(gp)
  400b40:	00000000 	nop
  400b44:	8c840000 	lw	a0,0(a0)
  400b48:	02003821 	move	a3,s0
  400b4c:	8f990320 	lw	t9,800(gp)
  400b50:	00000000 	nop
  400b54:	0320f809 	jalr	t9
  400b58:	00000000 	nop
  400b5c:	8fbc0018 	lw	gp,24(sp)
  400b60:	00000000 	nop
  400b64:	8f8402f8 	lw	a0,760(gp)
  400b68:	00000000 	nop
  400b6c:	8c840000 	lw	a0,0(a0)
  400b70:	02002821 	move	a1,s0
  400b74:	8f9902b4 	lw	t9,692(gp)
  400b78:	00000000 	nop
  400b7c:	0320f809 	jalr	t9
  400b80:	00000000 	nop
  400b84:	8fbc0018 	lw	gp,24(sp)
  400b88:	00000000 	nop
  400b8c:	8f84000c 	lw	a0,12(gp)
  400b90:	00000000 	nop
  400b94:	2484ef70 	addiu	a0,a0,-4240
  400b98:	8f8102f8 	lw	at,760(gp)
  400b9c:	00000000 	nop
  400ba0:	ac220000 	sw	v0,0(at)
  400ba4:	8f9902a0 	lw	t9,672(gp)
  400ba8:	00000000 	nop
  400bac:	0320f809 	jalr	t9
  400bb0:	00000000 	nop
  400bb4:	8fbc0018 	lw	gp,24(sp)
  400bb8:	10000026 	b	400c54 <dns_main_loop+0x394>
  400bbc:	02608021 	move	s0,s3
  400bc0:	02202021 	move	a0,s1
  400bc4:	8f990184 	lw	t9,388(gp)
  400bc8:	00000000 	nop
  400bcc:	0320f809 	jalr	t9
  400bd0:	00000000 	nop
  400bd4:	8fbc0018 	lw	gp,24(sp)
  400bd8:	00000000 	nop
  400bdc:	8f84000c 	lw	a0,12(gp)
  400be0:	00000000 	nop
  400be4:	2484ef98 	addiu	a0,a0,-4200
  400be8:	8f9902a0 	lw	t9,672(gp)
  400bec:	00000000 	nop
  400bf0:	0320f809 	jalr	t9
  400bf4:	00000000 	nop
  400bf8:	8fbc0018 	lw	gp,24(sp)
  400bfc:	02202821 	move	a1,s1
  400c00:	8f84000c 	lw	a0,12(gp)
  400c04:	00000000 	nop
  400c08:	2484efc0 	addiu	a0,a0,-4160
  400c0c:	8f9902a0 	lw	t9,672(gp)
  400c10:	00000000 	nop
  400c14:	0320f809 	jalr	t9
  400c18:	00000000 	nop
  400c1c:	8fbc0018 	lw	gp,24(sp)
  400c20:	00000000 	nop
  400c24:	8f8400e4 	lw	a0,228(gp)
  400c28:	00000000 	nop
  400c2c:	8c840000 	lw	a0,0(a0)
  400c30:	8fa51860 	lw	a1,6240(sp)
  400c34:	02003821 	move	a3,s0
  400c38:	24060035 	li	a2,53
  400c3c:	8f990320 	lw	t9,800(gp)
  400c40:	00000000 	nop
  400c44:	0320f809 	jalr	t9
  400c48:	00000000 	nop
  400c4c:	8fbc0018 	lw	gp,24(sp)
  400c50:	02608021 	move	s0,s3
  400c54:	1660ff6b 	bnez	s3,400a04 <dns_main_loop+0x144>
  400c58:	00000000 	nop
  400c5c:	2652ffff 	addiu	s2,s2,-1
  400c60:	16400015 	bnez	s2,400cb8 <dns_main_loop+0x3f8>
  400c64:	00000000 	nop
  400c68:	8f840034 	lw	a0,52(gp)
  400c6c:	00000000 	nop
  400c70:	8c840508 	lw	a0,1288(a0)
  400c74:	8f990298 	lw	t9,664(gp)
  400c78:	00000000 	nop
  400c7c:	0320f809 	jalr	t9
  400c80:	00000000 	nop
  400c84:	8fbc0018 	lw	gp,24(sp)
  400c88:	00000000 	nop
  400c8c:	8f820034 	lw	v0,52(gp)
  400c90:	00000000 	nop
  400c94:	8c420508 	lw	v0,1288(v0)
  400c98:	3c038888 	lui	v1,0x8888
  400c9c:	34638889 	ori	v1,v1,0x8889
  400ca0:	00430018 	mult	v0,v1
  400ca4:	000227c3 	sra	a0,v0,0x1f
  400ca8:	00001810 	mfhi	v1
  400cac:	00621821 	addu	v1,v1,v0
  400cb0:	00031943 	sra	v1,v1,0x5
  400cb4:	00649023 	subu	s2,v1,a0
  400cb8:	8f820100 	lw	v0,256(gp)
  400cbc:	00000000 	nop
  400cc0:	8c420000 	lw	v0,0(v0)
  400cc4:	00000000 	nop
  400cc8:	1040ff19 	beqz	v0,400930 <dns_main_loop+0x70>
  400ccc:	24020001 	li	v0,1
  400cd0:	8fbf187c 	lw	ra,6268(sp)
  400cd4:	8fb31874 	lw	s3,6260(sp)
  400cd8:	8fb21870 	lw	s2,6256(sp)
  400cdc:	8fb1186c 	lw	s1,6252(sp)
  400ce0:	8fb01868 	lw	s0,6248(sp)
  400ce4:	00001021 	move	v0,zero
  400ce8:	03e00008 	jr	ra
  400cec:	27bd1880 	addiu	sp,sp,6272

00400cf0 <debug_perror>:
  400cf0:	3c1c0001 	lui	gp,0x1
  400cf4:	279cdd70 	addiu	gp,gp,-8848
  400cf8:	0399e021 	addu	gp,gp,t9
  400cfc:	27bdffd8 	addiu	sp,sp,-40
  400d00:	afbc0010 	sw	gp,16(sp)
  400d04:	afbf0020 	sw	ra,32(sp)
  400d08:	afb00018 	sw	s0,24(sp)
  400d0c:	afbc001c 	sw	gp,28(sp)
  400d10:	00808021 	move	s0,a0
  400d14:	8f9900bc 	lw	t9,188(gp)
  400d18:	00000000 	nop
  400d1c:	0320f809 	jalr	t9
  400d20:	00000000 	nop
  400d24:	8fbc0010 	lw	gp,16(sp)
  400d28:	8c440000 	lw	a0,0(v0)
  400d2c:	8f990340 	lw	t9,832(gp)
  400d30:	00000000 	nop
  400d34:	0320f809 	jalr	t9
  400d38:	00000000 	nop
  400d3c:	8fbc0010 	lw	gp,16(sp)
  400d40:	00403021 	move	a2,v0
  400d44:	02002821 	move	a1,s0
  400d48:	8f84000c 	lw	a0,12(gp)
  400d4c:	00000000 	nop
  400d50:	2484efe0 	addiu	a0,a0,-4128
  400d54:	8f9902a0 	lw	t9,672(gp)
  400d58:	00000000 	nop
  400d5c:	0320f809 	jalr	t9
  400d60:	00000000 	nop
  400d64:	8fbc0010 	lw	gp,16(sp)
  400d68:	8fbf0020 	lw	ra,32(sp)
  400d6c:	8fb00018 	lw	s0,24(sp)
  400d70:	03e00008 	jr	ra
  400d74:	27bd0028 	addiu	sp,sp,40

00400d78 <debug>:
  400d78:	3c1c0001 	lui	gp,0x1
  400d7c:	279cdce8 	addiu	gp,gp,-8984
  400d80:	0399e021 	addu	gp,gp,t9
  400d84:	27bdfbd8 	addiu	sp,sp,-1064
  400d88:	afbc0010 	sw	gp,16(sp)
  400d8c:	afa70434 	sw	a3,1076(sp)
  400d90:	afbf0424 	sw	ra,1060(sp)
  400d94:	afa5042c 	sw	a1,1068(sp)
  400d98:	afa60430 	sw	a2,1072(sp)
  400d9c:	afb1041c 	sw	s1,1052(sp)
  400da0:	afb00418 	sw	s0,1048(sp)
  400da4:	afbc0420 	sw	gp,1056(sp)
  400da8:	00808021 	move	s0,a0
  400dac:	8f990310 	lw	t9,784(gp)
  400db0:	00000000 	nop
  400db4:	0320f809 	jalr	t9
  400db8:	00000000 	nop
  400dbc:	8fbc0010 	lw	gp,16(sp)
  400dc0:	00403021 	move	a2,v0
  400dc4:	8f85000c 	lw	a1,12(gp)
  400dc8:	00000000 	nop
  400dcc:	24a5efec 	addiu	a1,a1,-4116
  400dd0:	27a40018 	addiu	a0,sp,24
  400dd4:	8f99011c 	lw	t9,284(gp)
  400dd8:	00000000 	nop
  400ddc:	0320f809 	jalr	t9
  400de0:	00000000 	nop
  400de4:	8fbc0010 	lw	gp,16(sp)
  400de8:	27a40018 	addiu	a0,sp,24
  400dec:	8f99007c 	lw	t9,124(gp)
  400df0:	00000000 	nop
  400df4:	0320f809 	jalr	t9
  400df8:	00000000 	nop
  400dfc:	8fbc0010 	lw	gp,16(sp)
  400e00:	27b10018 	addiu	s1,sp,24
  400e04:	24050400 	li	a1,1024
  400e08:	00a22823 	subu	a1,a1,v0
  400e0c:	02221021 	addu	v0,s1,v0
  400e10:	00402021 	move	a0,v0
  400e14:	02003021 	move	a2,s0
  400e18:	27a7042c 	addiu	a3,sp,1068
  400e1c:	8f9902c8 	lw	t9,712(gp)
  400e20:	00000000 	nop
  400e24:	0320f809 	jalr	t9
  400e28:	00000000 	nop
  400e2c:	8fbc0010 	lw	gp,16(sp)
  400e30:	00000000 	nop
  400e34:	8f820034 	lw	v0,52(gp)
  400e38:	00000000 	nop
  400e3c:	80420b0c 	lb	v0,2828(v0)
  400e40:	8f840034 	lw	a0,52(gp)
  400e44:	00000000 	nop
  400e48:	24840b0c 	addiu	a0,a0,2828
  400e4c:	8f85000c 	lw	a1,12(gp)
  400e50:	00000000 	nop
  400e54:	24a5eff8 	addiu	a1,a1,-4104
  400e58:	10400021 	beqz	v0,400ee0 <debug+0x168>
  400e5c:	00000000 	nop
  400e60:	8f990178 	lw	t9,376(gp)
  400e64:	00000000 	nop
  400e68:	0320f809 	jalr	t9
  400e6c:	00000000 	nop
  400e70:	8fbc0010 	lw	gp,16(sp)
  400e74:	00408021 	move	s0,v0
  400e78:	8f85000c 	lw	a1,12(gp)
  400e7c:	00000000 	nop
  400e80:	24a5effc 	addiu	a1,a1,-4100
  400e84:	14400008 	bnez	v0,400ea8 <debug+0x130>
  400e88:	24040003 	li	a0,3
  400e8c:	8f990144 	lw	t9,324(gp)
  400e90:	00000000 	nop
  400e94:	0320f809 	jalr	t9
  400e98:	00000000 	nop
  400e9c:	8fbc0010 	lw	gp,16(sp)
  400ea0:	1000001d 	b	400f18 <debug+0x1a0>
  400ea4:	00000000 	nop
  400ea8:	02202021 	move	a0,s1
  400eac:	00402821 	move	a1,v0
  400eb0:	8f990060 	lw	t9,96(gp)
  400eb4:	00000000 	nop
  400eb8:	0320f809 	jalr	t9
  400ebc:	00000000 	nop
  400ec0:	8fbc0010 	lw	gp,16(sp)
  400ec4:	02002021 	move	a0,s0
  400ec8:	8f99015c 	lw	t9,348(gp)
  400ecc:	00000000 	nop
  400ed0:	0320f809 	jalr	t9
  400ed4:	00000000 	nop
  400ed8:	8fbc0010 	lw	gp,16(sp)
  400edc:	00000000 	nop
  400ee0:	8f820034 	lw	v0,52(gp)
  400ee4:	00000000 	nop
  400ee8:	8c420500 	lw	v0,1280(v0)
  400eec:	00000000 	nop
  400ef0:	14400009 	bnez	v0,400f18 <debug+0x1a0>
  400ef4:	27a40018 	addiu	a0,sp,24
  400ef8:	8f850110 	lw	a1,272(gp)
  400efc:	00000000 	nop
  400f00:	8ca50000 	lw	a1,0(a1)
  400f04:	8f990060 	lw	t9,96(gp)
  400f08:	00000000 	nop
  400f0c:	0320f809 	jalr	t9
  400f10:	00000000 	nop
  400f14:	8fbc0010 	lw	gp,16(sp)
  400f18:	8fbf0424 	lw	ra,1060(sp)
  400f1c:	8fb1041c 	lw	s1,1052(sp)
  400f20:	8fb00418 	lw	s0,1048(sp)
  400f24:	03e00008 	jr	ra
  400f28:	27bd0428 	addiu	sp,sp,1064

00400f2c <usage>:
  400f2c:	3c1c0001 	lui	gp,0x1
  400f30:	279cdb34 	addiu	gp,gp,-9420
  400f34:	0399e021 	addu	gp,gp,t9
  400f38:	27bdffd8 	addiu	sp,sp,-40
  400f3c:	afbc0010 	sw	gp,16(sp)
  400f40:	afb00018 	sw	s0,24(sp)
  400f44:	00808021 	move	s0,a0
  400f48:	8f840110 	lw	a0,272(gp)
  400f4c:	00000000 	nop
  400f50:	8c840000 	lw	a0,0(a0)
  400f54:	00a03021 	move	a2,a1
  400f58:	8f85000c 	lw	a1,12(gp)
  400f5c:	00000000 	nop
  400f60:	24a5f018 	addiu	a1,a1,-4072
  400f64:	afbf0020 	sw	ra,32(sp)
  400f68:	afbc001c 	sw	gp,28(sp)
  400f6c:	8f990224 	lw	t9,548(gp)
  400f70:	00000000 	nop
  400f74:	0320f809 	jalr	t9
  400f78:	00000000 	nop
  400f7c:	8fbc0010 	lw	gp,16(sp)
  400f80:	00000000 	nop
  400f84:	8f840110 	lw	a0,272(gp)
  400f88:	00000000 	nop
  400f8c:	8c840000 	lw	a0,0(a0)
  400f90:	02003021 	move	a2,s0
  400f94:	8f85000c 	lw	a1,12(gp)
  400f98:	00000000 	nop
  400f9c:	24a5f01c 	addiu	a1,a1,-4068
  400fa0:	8f990224 	lw	t9,548(gp)
  400fa4:	00000000 	nop
  400fa8:	0320f809 	jalr	t9
  400fac:	00000000 	nop
  400fb0:	8fbc0010 	lw	gp,16(sp)
  400fb4:	00000000 	nop
  400fb8:	8f850110 	lw	a1,272(gp)
  400fbc:	00000000 	nop
  400fc0:	8ca50000 	lw	a1,0(a1)
  400fc4:	8f84000c 	lw	a0,12(gp)
  400fc8:	00000000 	nop
  400fcc:	2484f04c 	addiu	a0,a0,-4020
  400fd0:	8f990060 	lw	t9,96(gp)
  400fd4:	00000000 	nop
  400fd8:	0320f809 	jalr	t9
  400fdc:	00000000 	nop
  400fe0:	8fbc0010 	lw	gp,16(sp)
  400fe4:	00000000 	nop
  400fe8:	8f850110 	lw	a1,272(gp)
  400fec:	00000000 	nop
  400ff0:	8ca50000 	lw	a1,0(a1)
  400ff4:	8f84000c 	lw	a0,12(gp)
  400ff8:	00000000 	nop
  400ffc:	2484f088 	addiu	a0,a0,-3960
  401000:	8f990060 	lw	t9,96(gp)
  401004:	00000000 	nop
  401008:	0320f809 	jalr	t9
  40100c:	00000000 	nop
  401010:	8fbc0010 	lw	gp,16(sp)
  401014:	00000000 	nop
  401018:	8f850110 	lw	a1,272(gp)
  40101c:	00000000 	nop
  401020:	8ca50000 	lw	a1,0(a1)
  401024:	8f84000c 	lw	a0,12(gp)
  401028:	00000000 	nop
  40102c:	2484f0b0 	addiu	a0,a0,-3920
  401030:	8f990060 	lw	t9,96(gp)
  401034:	00000000 	nop
  401038:	0320f809 	jalr	t9
  40103c:	00000000 	nop
  401040:	8fbc0010 	lw	gp,16(sp)
  401044:	00000000 	nop
  401048:	8f850110 	lw	a1,272(gp)
  40104c:	00000000 	nop
  401050:	8ca50000 	lw	a1,0(a1)
  401054:	8f84000c 	lw	a0,12(gp)
  401058:	00000000 	nop
  40105c:	2484f0e0 	addiu	a0,a0,-3872
  401060:	8f990060 	lw	t9,96(gp)
  401064:	00000000 	nop
  401068:	0320f809 	jalr	t9
  40106c:	00000000 	nop
  401070:	8fbc0010 	lw	gp,16(sp)
  401074:	8fbf0020 	lw	ra,32(sp)
  401078:	8fb00018 	lw	s0,24(sp)
  40107c:	03e00008 	jr	ra
  401080:	27bd0028 	addiu	sp,sp,40

00401084 <get_options>:
  401084:	3c1c0001 	lui	gp,0x1
  401088:	279cd9dc 	addiu	gp,gp,-9764
  40108c:	0399e021 	addu	gp,gp,t9
  401090:	27bdffc8 	addiu	sp,sp,-56
  401094:	afbc0010 	sw	gp,16(sp)
  401098:	afb40028 	sw	s4,40(sp)
  40109c:	afb30024 	sw	s3,36(sp)
  4010a0:	afb20020 	sw	s2,32(sp)
  4010a4:	afb1001c 	sw	s1,28(sp)
  4010a8:	afbf0030 	sw	ra,48(sp)
  4010ac:	afbc002c 	sw	gp,44(sp)
  4010b0:	afb00018 	sw	s0,24(sp)
  4010b4:	8cb00000 	lw	s0,0(a1)
  4010b8:	00a09021 	move	s2,a1
  4010bc:	0080a021 	move	s4,a0
  4010c0:	00008821 	move	s1,zero
  4010c4:	8f9901b8 	lw	t9,440(gp)
  4010c8:	00000000 	nop
  4010cc:	0320f809 	jalr	t9
  4010d0:	00000000 	nop
  4010d4:	8fbc0010 	lw	gp,16(sp)
  4010d8:	10000022 	b	401164 <get_options+0xe0>
  4010dc:	00009821 	move	s3,zero
  4010e0:	24020063 	li	v0,99
  4010e4:	1062000b 	beq	v1,v0,401114 <get_options+0x90>
  4010e8:	00000000 	nop
  4010ec:	10800003 	beqz	a0,4010fc <get_options+0x78>
  4010f0:	24020050 	li	v0,80
  4010f4:	10000003 	b	401104 <get_options+0x80>
  4010f8:	24130001 	li	s3,1
  4010fc:	24110001 	li	s1,1
  401100:	24020064 	li	v0,100
  401104:	10620017 	beq	v1,v0,401164 <get_options+0xe0>
  401108:	00000000 	nop
  40110c:	1000000b 	b	40113c <get_options+0xb8>
  401110:	02002021 	move	a0,s0
  401114:	8f8402cc 	lw	a0,716(gp)
  401118:	00000000 	nop
  40111c:	8c840000 	lw	a0,0(a0)
  401120:	8f9902f4 	lw	t9,756(gp)
  401124:	00000000 	nop
  401128:	0320f809 	jalr	t9
  40112c:	00000000 	nop
  401130:	8fbc0010 	lw	gp,16(sp)
  401134:	1000000c 	b	401168 <get_options+0xe4>
  401138:	02802021 	move	a0,s4
  40113c:	8f85000c 	lw	a1,12(gp)
  401140:	00000000 	nop
  401144:	24a5f0f8 	addiu	a1,a1,-3848
  401148:	8f990308 	lw	t9,776(gp)
  40114c:	00000000 	nop
  401150:	0320f809 	jalr	t9
  401154:	00000000 	nop
  401158:	8fbc0010 	lw	gp,16(sp)
  40115c:	10000022 	b	4011e8 <get_options+0x164>
  401160:	2402ffff 	li	v0,-1
  401164:	02802021 	move	a0,s4
  401168:	02402821 	move	a1,s2
  40116c:	8f86000c 	lw	a2,12(gp)
  401170:	00000000 	nop
  401174:	24c6f0fc 	addiu	a2,a2,-3844
  401178:	8f990170 	lw	t9,368(gp)
  40117c:	00000000 	nop
  401180:	0320f809 	jalr	t9
  401184:	00000000 	nop
  401188:	8fbc0010 	lw	gp,16(sp)
  40118c:	00021600 	sll	v0,v0,0x18
  401190:	00021e03 	sra	v1,v0,0x18
  401194:	2402ffff 	li	v0,-1
  401198:	1462ffd1 	bne	v1,v0,4010e0 <get_options+0x5c>
  40119c:	28640064 	slti	a0,v1,100
  4011a0:	12200004 	beqz	s1,4011b4 <get_options+0x130>
  4011a4:	00000000 	nop
  4011a8:	8f810034 	lw	at,52(gp)
  4011ac:	00000000 	nop
  4011b0:	ac200500 	sw	zero,1280(at)
  4011b4:	1260000c 	beqz	s3,4011e8 <get_options+0x164>
  4011b8:	00001021 	move	v0,zero
  4011bc:	8f990108 	lw	t9,264(gp)
  4011c0:	00000000 	nop
  4011c4:	0320f809 	jalr	t9
  4011c8:	00000000 	nop
  4011cc:	8fbc0010 	lw	gp,16(sp)
  4011d0:	00002021 	move	a0,zero
  4011d4:	8f9900b4 	lw	t9,180(gp)
  4011d8:	00000000 	nop
  4011dc:	0320f809 	jalr	t9
  4011e0:	00000000 	nop
  4011e4:	8fbc0010 	lw	gp,16(sp)
  4011e8:	8fbf0030 	lw	ra,48(sp)
  4011ec:	8fb40028 	lw	s4,40(sp)
  4011f0:	8fb30024 	lw	s3,36(sp)
  4011f4:	8fb20020 	lw	s2,32(sp)
  4011f8:	8fb1001c 	lw	s1,28(sp)
  4011fc:	8fb00018 	lw	s0,24(sp)
  401200:	03e00008 	jr	ra
  401204:	27bd0038 	addiu	sp,sp,56

00401208 <sig_hup>:
  401208:	3c1c0001 	lui	gp,0x1
  40120c:	279cd858 	addiu	gp,gp,-10152
  401210:	0399e021 	addu	gp,gp,t9
  401214:	27bdffe0 	addiu	sp,sp,-32
  401218:	afbc0010 	sw	gp,16(sp)
  40121c:	8f8500dc 	lw	a1,220(gp)
  401220:	24040001 	li	a0,1
  401224:	afbf001c 	sw	ra,28(sp)
  401228:	afbc0018 	sw	gp,24(sp)
  40122c:	8f9901d8 	lw	t9,472(gp)
  401230:	00000000 	nop
  401234:	0320f809 	jalr	t9
  401238:	00000000 	nop
  40123c:	8fbc0010 	lw	gp,16(sp)
  401240:	00000000 	nop
  401244:	8f840034 	lw	a0,52(gp)
  401248:	00000000 	nop
  40124c:	2484050c 	addiu	a0,a0,1292
  401250:	8f9902f4 	lw	t9,756(gp)
  401254:	00000000 	nop
  401258:	0320f809 	jalr	t9
  40125c:	00000000 	nop
  401260:	8fbc0010 	lw	gp,16(sp)
  401264:	8fbf001c 	lw	ra,28(sp)
  401268:	00000000 	nop
  40126c:	03e00008 	jr	ra
  401270:	27bd0020 	addiu	sp,sp,32

00401274 <main>:
  401274:	3c1c0001 	lui	gp,0x1
  401278:	279cd7ec 	addiu	gp,gp,-10260
  40127c:	0399e021 	addu	gp,gp,t9
  401280:	27bdffe0 	addiu	sp,sp,-32
  401284:	afbc0010 	sw	gp,16(sp)
  401288:	afbf001c 	sw	ra,28(sp)
  40128c:	afbc0018 	sw	gp,24(sp)
  401290:	8f9900fc 	lw	t9,252(gp)
  401294:	00000000 	nop
  401298:	0320f809 	jalr	t9
  40129c:	00000000 	nop
  4012a0:	8fbc0010 	lw	gp,16(sp)
  4012a4:	00000000 	nop
  4012a8:	8f8500dc 	lw	a1,220(gp)
  4012ac:	04400029 	bltz	v0,401354 <main+0xe0>
  4012b0:	24040001 	li	a0,1
  4012b4:	8f9901d8 	lw	t9,472(gp)
  4012b8:	00000000 	nop
  4012bc:	0320f809 	jalr	t9
  4012c0:	00000000 	nop
  4012c4:	8fbc0010 	lw	gp,16(sp)
  4012c8:	00000000 	nop
  4012cc:	8f99006c 	lw	t9,108(gp)
  4012d0:	00000000 	nop
  4012d4:	0320f809 	jalr	t9
  4012d8:	00000000 	nop
  4012dc:	8fbc0010 	lw	gp,16(sp)
  4012e0:	00000000 	nop
  4012e4:	8f820034 	lw	v0,52(gp)
  4012e8:	00000000 	nop
  4012ec:	8c420500 	lw	v0,1280(v0)
  4012f0:	00000000 	nop
  4012f4:	1040001d 	beqz	v0,40136c <main+0xf8>
  4012f8:	00000000 	nop
  4012fc:	8f990198 	lw	t9,408(gp)
  401300:	00000000 	nop
  401304:	0320f809 	jalr	t9
  401308:	00000000 	nop
  40130c:	8fbc0010 	lw	gp,16(sp)
  401310:	00401821 	move	v1,v0
  401314:	2402ffff 	li	v0,-1
  401318:	10620005 	beq	v1,v0,401330 <main+0xbc>
  40131c:	00000000 	nop
  401320:	10600012 	beqz	v1,40136c <main+0xf8>
  401324:	00002021 	move	a0,zero
  401328:	1000000a 	b	401354 <main+0xe0>
  40132c:	00000000 	nop
  401330:	8f84000c 	lw	a0,12(gp)
  401334:	00000000 	nop
  401338:	2484f104 	addiu	a0,a0,-3836
  40133c:	8f9900d8 	lw	t9,216(gp)
  401340:	00000000 	nop
  401344:	0320f809 	jalr	t9
  401348:	00000000 	nop
  40134c:	8fbc0010 	lw	gp,16(sp)
  401350:	2404ffff 	li	a0,-1
  401354:	8f9900b4 	lw	t9,180(gp)
  401358:	00000000 	nop
  40135c:	0320f809 	jalr	t9
  401360:	00000000 	nop
  401364:	8fbc0010 	lw	gp,16(sp)
  401368:	00000000 	nop
  40136c:	8f9902ec 	lw	t9,748(gp)
  401370:	00000000 	nop
  401374:	0320f809 	jalr	t9
  401378:	00000000 	nop
  40137c:	8fbc0010 	lw	gp,16(sp)
  401380:	8fbf001c 	lw	ra,28(sp)
  401384:	00001021 	move	v0,zero
  401388:	03e00008 	jr	ra
  40138c:	27bd0020 	addiu	sp,sp,32

00401390 <dns_decode_reverse_name>:
  401390:	3c1c0001 	lui	gp,0x1
  401394:	279cd6d0 	addiu	gp,gp,-10544
  401398:	0399e021 	addu	gp,gp,t9
  40139c:	27bdfee0 	addiu	sp,sp,-288
  4013a0:	afbc0010 	sw	gp,16(sp)
  4013a4:	afbf011c 	sw	ra,284(sp)
  4013a8:	afbc0118 	sw	gp,280(sp)
  4013ac:	00803821 	move	a3,a0
  4013b0:	00003021 	move	a2,zero
  4013b4:	00002821 	move	a1,zero
  4013b8:	24030002 	li	v1,2
  4013bc:	00e51021 	addu	v0,a3,a1
  4013c0:	80420000 	lb	v0,0(v0)
  4013c4:	2408002e 	li	t0,46
  4013c8:	14480002 	bne	v0,t0,4013d4 <dns_decode_reverse_name+0x44>
  4013cc:	24a50001 	addiu	a1,a1,1
  4013d0:	2463ffff 	addiu	v1,v1,-1
  4013d4:	0461fffa 	bgez	v1,4013c0 <dns_decode_reverse_name+0x30>
  4013d8:	00e51021 	addu	v0,a3,a1
  4013dc:	00e52021 	addu	a0,a3,a1
  4013e0:	80820000 	lb	v0,0(a0)
  4013e4:	90840000 	lbu	a0,0(a0)
  4013e8:	1048000b 	beq	v0,t0,401418 <dns_decode_reverse_name+0x88>
  4013ec:	27a90018 	addiu	t1,sp,24
  4013f0:	03a61021 	addu	v0,sp,a2
  4013f4:	24a50001 	addiu	a1,a1,1
  4013f8:	a0440018 	sb	a0,24(v0)
  4013fc:	00e52021 	addu	a0,a3,a1
  401400:	80830000 	lb	v1,0(a0)
  401404:	2402002e 	li	v0,46
  401408:	90840000 	lbu	a0,0(a0)
  40140c:	1462fff8 	bne	v1,v0,4013f0 <dns_decode_reverse_name+0x60>
  401410:	24c60001 	addiu	a2,a2,1
  401414:	27a90018 	addiu	t1,sp,24
  401418:	00c91821 	addu	v1,a2,t1
  40141c:	00e52021 	addu	a0,a3,a1
  401420:	2402002e 	li	v0,46
  401424:	a0620000 	sb	v0,0(v1)
  401428:	24c60001 	addiu	a2,a2,1
  40142c:	a0800000 	sb	zero,0(a0)
  401430:	00002821 	move	a1,zero
  401434:	24030001 	li	v1,1
  401438:	00e51021 	addu	v0,a3,a1
  40143c:	80420000 	lb	v0,0(v0)
  401440:	2408002e 	li	t0,46
  401444:	14480002 	bne	v0,t0,401450 <dns_decode_reverse_name+0xc0>
  401448:	24a50001 	addiu	a1,a1,1
  40144c:	2463ffff 	addiu	v1,v1,-1
  401450:	0461fffa 	bgez	v1,40143c <dns_decode_reverse_name+0xac>
  401454:	00e51021 	addu	v0,a3,a1
  401458:	00e52021 	addu	a0,a3,a1
  40145c:	80820000 	lb	v0,0(a0)
  401460:	90840000 	lbu	a0,0(a0)
  401464:	1048000a 	beq	v0,t0,401490 <dns_decode_reverse_name+0x100>
  401468:	00000000 	nop
  40146c:	00c91021 	addu	v0,a2,t1
  401470:	24a50001 	addiu	a1,a1,1
  401474:	a0440000 	sb	a0,0(v0)
  401478:	00e52021 	addu	a0,a3,a1
  40147c:	80830000 	lb	v1,0(a0)
  401480:	2402002e 	li	v0,46
  401484:	90840000 	lbu	a0,0(a0)
  401488:	1462fff8 	bne	v1,v0,40146c <dns_decode_reverse_name+0xdc>
  40148c:	24c60001 	addiu	a2,a2,1
  401490:	27a90018 	addiu	t1,sp,24
  401494:	00c91821 	addu	v1,a2,t1
  401498:	00002821 	move	a1,zero
  40149c:	2402002e 	li	v0,46
  4014a0:	a0620000 	sb	v0,0(v1)
  4014a4:	24c60001 	addiu	a2,a2,1
  4014a8:	00a01821 	move	v1,a1
  4014ac:	00e51021 	addu	v0,a3,a1
  4014b0:	80420000 	lb	v0,0(v0)
  4014b4:	2408002e 	li	t0,46
  4014b8:	14480002 	bne	v0,t0,4014c4 <dns_decode_reverse_name+0x134>
  4014bc:	24a50001 	addiu	a1,a1,1
  4014c0:	2463ffff 	addiu	v1,v1,-1
  4014c4:	0461fffa 	bgez	v1,4014b0 <dns_decode_reverse_name+0x120>
  4014c8:	00e51021 	addu	v0,a3,a1
  4014cc:	00e52021 	addu	a0,a3,a1
  4014d0:	80820000 	lb	v0,0(a0)
  4014d4:	90840000 	lbu	a0,0(a0)
  4014d8:	1048000b 	beq	v0,t0,401508 <dns_decode_reverse_name+0x178>
  4014dc:	27a80018 	addiu	t0,sp,24
  4014e0:	00c91021 	addu	v0,a2,t1
  4014e4:	24a50001 	addiu	a1,a1,1
  4014e8:	a0440000 	sb	a0,0(v0)
  4014ec:	00e52021 	addu	a0,a3,a1
  4014f0:	80830000 	lb	v1,0(a0)
  4014f4:	2402002e 	li	v0,46
  4014f8:	90840000 	lbu	a0,0(a0)
  4014fc:	1462fff8 	bne	v1,v0,4014e0 <dns_decode_reverse_name+0x150>
  401500:	24c60001 	addiu	a2,a2,1
  401504:	27a80018 	addiu	t0,sp,24
  401508:	00c81821 	addu	v1,a2,t0
  40150c:	2402002e 	li	v0,46
  401510:	80e40000 	lb	a0,0(a3)
  401514:	a0620000 	sb	v0,0(v1)
  401518:	2402002e 	li	v0,46
  40151c:	1082000a 	beq	a0,v0,401548 <dns_decode_reverse_name+0x1b8>
  401520:	24c60001 	addiu	a2,a2,1
  401524:	00e02821 	move	a1,a3
  401528:	90a30000 	lbu	v1,0(a1)
  40152c:	24a50001 	addiu	a1,a1,1
  401530:	00c81021 	addu	v0,a2,t0
  401534:	80a40000 	lb	a0,0(a1)
  401538:	a0430000 	sb	v1,0(v0)
  40153c:	2402002e 	li	v0,46
  401540:	1482fff9 	bne	a0,v0,401528 <dns_decode_reverse_name+0x198>
  401544:	24c60001 	addiu	a2,a2,1
  401548:	27a50018 	addiu	a1,sp,24
  40154c:	00a61021 	addu	v0,a1,a2
  401550:	00e02021 	move	a0,a3
  401554:	a0400000 	sb	zero,0(v0)
  401558:	8f990380 	lw	t9,896(gp)
  40155c:	00000000 	nop
  401560:	0320f809 	jalr	t9
  401564:	00000000 	nop
  401568:	8fbc0010 	lw	gp,16(sp)
  40156c:	8fbf011c 	lw	ra,284(sp)
  401570:	00000000 	nop
  401574:	03e00008 	jr	ra
  401578:	27bd0120 	addiu	sp,sp,288

0040157c <dns_decode_name>:
  40157c:	3c1c0001 	lui	gp,0x1
  401580:	279cd4e4 	addiu	gp,gp,-11036
  401584:	0399e021 	addu	gp,gp,t9
  401588:	8ca30000 	lw	v1,0(a1)
  40158c:	00804021 	move	t0,a0
  401590:	80620000 	lb	v0,0(v1)
  401594:	90640000 	lbu	a0,0(v1)
  401598:	10400019 	beqz	v0,401600 <dns_decode_name+0x84>
  40159c:	00003821 	move	a3,zero
  4015a0:	00041600 	sll	v0,a0,0x18
  4015a4:	24630001 	addiu	v1,v1,1
  4015a8:	00021603 	sra	v0,v0,0x18
  4015ac:	1840000b 	blez	v0,4015dc <dns_decode_name+0x60>
  4015b0:	aca30000 	sw	v1,0(a1)
  4015b4:	00403021 	move	a2,v0
  4015b8:	8ca20000 	lw	v0,0(a1)
  4015bc:	01072021 	addu	a0,t0,a3
  4015c0:	90430000 	lbu	v1,0(v0)
  4015c4:	24c6ffff 	addiu	a2,a2,-1
  4015c8:	24420001 	addiu	v0,v0,1
  4015cc:	a0830000 	sb	v1,0(a0)
  4015d0:	24e70001 	addiu	a3,a3,1
  4015d4:	14c0fff8 	bnez	a2,4015b8 <dns_decode_name+0x3c>
  4015d8:	aca20000 	sw	v0,0(a1)
  4015dc:	01071021 	addu	v0,t0,a3
  4015e0:	2403002e 	li	v1,46
  4015e4:	a0430000 	sb	v1,0(v0)
  4015e8:	8ca30000 	lw	v1,0(a1)
  4015ec:	00000000 	nop
  4015f0:	80620000 	lb	v0,0(v1)
  4015f4:	90640000 	lbu	a0,0(v1)
  4015f8:	1440ffe9 	bnez	v0,4015a0 <dns_decode_name+0x24>
  4015fc:	24e70001 	addiu	a3,a3,1
  401600:	8ca20000 	lw	v0,0(a1)
  401604:	01072021 	addu	a0,t0,a3
  401608:	90430000 	lbu	v1,0(v0)
  40160c:	24420001 	addiu	v0,v0,1
  401610:	a083ffff 	sb	v1,-1(a0)
  401614:	03e00008 	jr	ra
  401618:	aca20000 	sw	v0,0(a1)

0040161c <dns_decode_rr>:
  40161c:	3c1c0001 	lui	gp,0x1
  401620:	279cd444 	addiu	gp,gp,-11196
  401624:	0399e021 	addu	gp,gp,t9
  401628:	27bdffc0 	addiu	sp,sp,-64
  40162c:	afbc0010 	sw	gp,16(sp)
  401630:	afb20030 	sw	s2,48(sp)
  401634:	afb1002c 	sw	s1,44(sp)
  401638:	afb00028 	sw	s0,40(sp)
  40163c:	afbf0038 	sw	ra,56(sp)
  401640:	afbc0034 	sw	gp,52(sp)
  401644:	8ca30000 	lw	v1,0(a1)
  401648:	afa7004c 	sw	a3,76(sp)
  40164c:	80620000 	lb	v0,0(v1)
  401650:	00a08021 	move	s0,a1
  401654:	304200c0 	andi	v0,v0,0xc0
  401658:	24680001 	addiu	t0,v1,1
  40165c:	24690002 	addiu	t1,v1,2
  401660:	00c09021 	move	s2,a2
  401664:	10400007 	beqz	v0,401684 <dns_decode_rr+0x68>
  401668:	00808821 	move	s1,a0
  40166c:	aca80000 	sw	t0,0(a1)
  401670:	80620001 	lb	v0,1(v1)
  401674:	27a5004c 	addiu	a1,sp,76
  401678:	00e21021 	addu	v0,a3,v0
  40167c:	ae090000 	sw	t1,0(s0)
  401680:	afa2004c 	sw	v0,76(sp)
  401684:	8f99022c 	lw	t9,556(gp)
  401688:	00000000 	nop
  40168c:	0320f809 	jalr	t9
  401690:	00000000 	nop
  401694:	8fbc0010 	lw	gp,16(sp)
  401698:	8e050000 	lw	a1,0(s0)
  40169c:	27a40018 	addiu	a0,sp,24
  4016a0:	24060002 	li	a2,2
  4016a4:	8f99033c 	lw	t9,828(gp)
  4016a8:	00000000 	nop
  4016ac:	0320f809 	jalr	t9
  4016b0:	00000000 	nop
  4016b4:	8fbc0010 	lw	gp,16(sp)
  4016b8:	8e030000 	lw	v1,0(s0)
  4016bc:	97a20018 	lhu	v0,24(sp)
  4016c0:	24630002 	addiu	v1,v1,2
  4016c4:	00602821 	move	a1,v1
  4016c8:	27a4001a 	addiu	a0,sp,26
  4016cc:	ae030000 	sw	v1,0(s0)
  4016d0:	24060002 	li	a2,2
  4016d4:	a6220100 	sh	v0,256(s1)
  4016d8:	8f99033c 	lw	t9,828(gp)
  4016dc:	00000000 	nop
  4016e0:	0320f809 	jalr	t9
  4016e4:	00000000 	nop
  4016e8:	8fbc0010 	lw	gp,16(sp)
  4016ec:	8e020000 	lw	v0,0(s0)
  4016f0:	97a3001a 	lhu	v1,26(sp)
  4016f4:	24420002 	addiu	v0,v0,2
  4016f8:	00402821 	move	a1,v0
  4016fc:	ae020000 	sw	v0,0(s0)
  401700:	24020001 	li	v0,1
  401704:	27a40020 	addiu	a0,sp,32
  401708:	24060004 	li	a2,4
  40170c:	12420024 	beq	s2,v0,4017a0 <dns_decode_rr+0x184>
  401710:	a6230102 	sh	v1,258(s1)
  401714:	8f99033c 	lw	t9,828(gp)
  401718:	00000000 	nop
  40171c:	0320f809 	jalr	t9
  401720:	00000000 	nop
  401724:	8fbc0010 	lw	gp,16(sp)
  401728:	8e050000 	lw	a1,0(s0)
  40172c:	8fa20020 	lw	v0,32(sp)
  401730:	24a50004 	addiu	a1,a1,4
  401734:	ae050000 	sw	a1,0(s0)
  401738:	27a4001c 	addiu	a0,sp,28
  40173c:	24060002 	li	a2,2
  401740:	ae220104 	sw	v0,260(s1)
  401744:	8f99033c 	lw	t9,828(gp)
  401748:	00000000 	nop
  40174c:	0320f809 	jalr	t9
  401750:	00000000 	nop
  401754:	8fbc0010 	lw	gp,16(sp)
  401758:	8e020000 	lw	v0,0(s0)
  40175c:	97a3001c 	lhu	v1,28(sp)
  401760:	24420002 	addiu	v0,v0,2
  401764:	00603021 	move	a2,v1
  401768:	00402821 	move	a1,v0
  40176c:	a6230108 	sh	v1,264(s1)
  401770:	ae020000 	sw	v0,0(s0)
  401774:	2624010a 	addiu	a0,s1,266
  401778:	8f9902fc 	lw	t9,764(gp)
  40177c:	00000000 	nop
  401780:	0320f809 	jalr	t9
  401784:	00000000 	nop
  401788:	8fbc0010 	lw	gp,16(sp)
  40178c:	8e020000 	lw	v0,0(s0)
  401790:	96230108 	lhu	v1,264(s1)
  401794:	00000000 	nop
  401798:	00431021 	addu	v0,v0,v1
  40179c:	ae020000 	sw	v0,0(s0)
  4017a0:	96230100 	lhu	v1,256(s1)
  4017a4:	2402000c 	li	v0,12
  4017a8:	14620006 	bne	v1,v0,4017c4 <dns_decode_rr+0x1a8>
  4017ac:	02202021 	move	a0,s1
  4017b0:	8f990098 	lw	t9,152(gp)
  4017b4:	00000000 	nop
  4017b8:	0320f809 	jalr	t9
  4017bc:	00000000 	nop
  4017c0:	8fbc0010 	lw	gp,16(sp)
  4017c4:	8fbf0038 	lw	ra,56(sp)
  4017c8:	8fb20030 	lw	s2,48(sp)
  4017cc:	8fb1002c 	lw	s1,44(sp)
  4017d0:	8fb00028 	lw	s0,40(sp)
  4017d4:	03e00008 	jr	ra
  4017d8:	27bd0040 	addiu	sp,sp,64

004017dc <dns_decode_message>:
  4017dc:	3c1c0001 	lui	gp,0x1
  4017e0:	279cd284 	addiu	gp,gp,-11644
  4017e4:	0399e021 	addu	gp,gp,t9
  4017e8:	27bdffb8 	addiu	sp,sp,-72
  4017ec:	afbc0010 	sw	gp,16(sp)
  4017f0:	afbf0040 	sw	ra,64(sp)
  4017f4:	afb30034 	sw	s3,52(sp)
  4017f8:	afb20030 	sw	s2,48(sp)
  4017fc:	afbc003c 	sw	gp,60(sp)
  401800:	afb40038 	sw	s4,56(sp)
  401804:	afb1002c 	sw	s1,44(sp)
  401808:	afb00028 	sw	s0,40(sp)
  40180c:	8cb40000 	lw	s4,0(a1)
  401810:	00a09021 	move	s2,a1
  401814:	00809821 	move	s3,a0
  401818:	02802821 	move	a1,s4
  40181c:	27a40018 	addiu	a0,sp,24
  401820:	24060002 	li	a2,2
  401824:	8f99033c 	lw	t9,828(gp)
  401828:	00000000 	nop
  40182c:	0320f809 	jalr	t9
  401830:	00000000 	nop
  401834:	8fbc0010 	lw	gp,16(sp)
  401838:	8e430000 	lw	v1,0(s2)
  40183c:	97a20018 	lhu	v0,24(sp)
  401840:	24630002 	addiu	v1,v1,2
  401844:	00602821 	move	a1,v1
  401848:	ae430000 	sw	v1,0(s2)
  40184c:	27a4001a 	addiu	a0,sp,26
  401850:	24060002 	li	a2,2
  401854:	a6620000 	sh	v0,0(s3)
  401858:	8f99033c 	lw	t9,828(gp)
  40185c:	00000000 	nop
  401860:	0320f809 	jalr	t9
  401864:	00000000 	nop
  401868:	8fbc0010 	lw	gp,16(sp)
  40186c:	97a2001a 	lhu	v0,26(sp)
  401870:	27a4001c 	addiu	a0,sp,28
  401874:	a6620002 	sh	v0,2(s3)
  401878:	8e420000 	lw	v0,0(s2)
  40187c:	24060002 	li	a2,2
  401880:	24420002 	addiu	v0,v0,2
  401884:	00402821 	move	a1,v0
  401888:	ae420000 	sw	v0,0(s2)
  40188c:	8f99033c 	lw	t9,828(gp)
  401890:	00000000 	nop
  401894:	0320f809 	jalr	t9
  401898:	00000000 	nop
  40189c:	8fbc0010 	lw	gp,16(sp)
  4018a0:	8e430000 	lw	v1,0(s2)
  4018a4:	97a2001c 	lhu	v0,28(sp)
  4018a8:	24630002 	addiu	v1,v1,2
  4018ac:	00602821 	move	a1,v1
  4018b0:	27a4001e 	addiu	a0,sp,30
  4018b4:	ae430000 	sw	v1,0(s2)
  4018b8:	24060002 	li	a2,2
  4018bc:	a6620004 	sh	v0,4(s3)
  4018c0:	8f99033c 	lw	t9,828(gp)
  4018c4:	00000000 	nop
  4018c8:	0320f809 	jalr	t9
  4018cc:	00000000 	nop
  4018d0:	8fbc0010 	lw	gp,16(sp)
  4018d4:	8e430000 	lw	v1,0(s2)
  4018d8:	97a2001e 	lhu	v0,30(sp)
  4018dc:	24630002 	addiu	v1,v1,2
  4018e0:	00602821 	move	a1,v1
  4018e4:	ae430000 	sw	v1,0(s2)
  4018e8:	27a40020 	addiu	a0,sp,32
  4018ec:	24060002 	li	a2,2
  4018f0:	a6620006 	sh	v0,6(s3)
  4018f4:	8f99033c 	lw	t9,828(gp)
  4018f8:	00000000 	nop
  4018fc:	0320f809 	jalr	t9
  401900:	00000000 	nop
  401904:	8fbc0010 	lw	gp,16(sp)
  401908:	8e450000 	lw	a1,0(s2)
  40190c:	97a20020 	lhu	v0,32(sp)
  401910:	24a50002 	addiu	a1,a1,2
  401914:	27a40022 	addiu	a0,sp,34
  401918:	a6620008 	sh	v0,8(s3)
  40191c:	ae450000 	sw	a1,0(s2)
  401920:	24060002 	li	a2,2
  401924:	8f99033c 	lw	t9,828(gp)
  401928:	00000000 	nop
  40192c:	0320f809 	jalr	t9
  401930:	00000000 	nop
  401934:	8fbc0010 	lw	gp,16(sp)
  401938:	8e430000 	lw	v1,0(s2)
  40193c:	96640006 	lhu	a0,6(s3)
  401940:	97a20022 	lhu	v0,34(sp)
  401944:	24630002 	addiu	v1,v1,2
  401948:	2c840002 	sltiu	a0,a0,2
  40194c:	a662000a 	sh	v0,10(s3)
  401950:	14800009 	bnez	a0,401978 <dns_decode_message+0x19c>
  401954:	ae430000 	sw	v1,0(s2)
  401958:	8f84000c 	lw	a0,12(gp)
  40195c:	00000000 	nop
  401960:	2484f110 	addiu	a0,a0,-3824
  401964:	8f9902dc 	lw	t9,732(gp)
  401968:	00000000 	nop
  40196c:	0320f809 	jalr	t9
  401970:	00000000 	nop
  401974:	8fbc0010 	lw	gp,16(sp)
  401978:	96620004 	lhu	v0,4(s3)
  40197c:	00000000 	nop
  401980:	10400013 	beqz	v0,4019d0 <dns_decode_message+0x1f4>
  401984:	00008821 	move	s1,zero
  401988:	2670000c 	addiu	s0,s3,12
  40198c:	02002021 	move	a0,s0
  401990:	02402821 	move	a1,s2
  401994:	24060001 	li	a2,1
  401998:	02803821 	move	a3,s4
  40199c:	8f990360 	lw	t9,864(gp)
  4019a0:	00000000 	nop
  4019a4:	0320f809 	jalr	t9
  4019a8:	00000000 	nop
  4019ac:	8fbc0010 	lw	gp,16(sp)
  4019b0:	96620004 	lhu	v0,4(s3)
  4019b4:	26310001 	addiu	s1,s1,1
  4019b8:	0222102a 	slt	v0,s1,v0
  4019bc:	2a230005 	slti	v1,s1,5
  4019c0:	10400003 	beqz	v0,4019d0 <dns_decode_message+0x1f4>
  4019c4:	2610020c 	addiu	s0,s0,524
  4019c8:	1460fff1 	bnez	v1,401990 <dns_decode_message+0x1b4>
  4019cc:	02002021 	move	a0,s0
  4019d0:	96620006 	lhu	v0,6(s3)
  4019d4:	00000000 	nop
  4019d8:	10400013 	beqz	v0,401a28 <dns_decode_message+0x24c>
  4019dc:	00008821 	move	s1,zero
  4019e0:	26700a48 	addiu	s0,s3,2632
  4019e4:	02002021 	move	a0,s0
  4019e8:	02402821 	move	a1,s2
  4019ec:	00003021 	move	a2,zero
  4019f0:	02803821 	move	a3,s4
  4019f4:	8f990360 	lw	t9,864(gp)
  4019f8:	00000000 	nop
  4019fc:	0320f809 	jalr	t9
  401a00:	00000000 	nop
  401a04:	8fbc0010 	lw	gp,16(sp)
  401a08:	96620006 	lhu	v0,6(s3)
  401a0c:	26310001 	addiu	s1,s1,1
  401a10:	0222102a 	slt	v0,s1,v0
  401a14:	2a230005 	slti	v1,s1,5
  401a18:	10400003 	beqz	v0,401a28 <dns_decode_message+0x24c>
  401a1c:	2610020c 	addiu	s0,s0,524
  401a20:	1460fff1 	bnez	v1,4019e8 <dns_decode_message+0x20c>
  401a24:	02002021 	move	a0,s0
  401a28:	8fbf0040 	lw	ra,64(sp)
  401a2c:	8fb40038 	lw	s4,56(sp)
  401a30:	8fb30034 	lw	s3,52(sp)
  401a34:	8fb20030 	lw	s2,48(sp)
  401a38:	8fb1002c 	lw	s1,44(sp)
  401a3c:	8fb00028 	lw	s0,40(sp)
  401a40:	00001021 	move	v0,zero
  401a44:	03e00008 	jr	ra
  401a48:	27bd0048 	addiu	sp,sp,72

00401a4c <dns_decode_request>:
  401a4c:	3c1c0001 	lui	gp,0x1
  401a50:	279cd014 	addiu	gp,gp,-12268
  401a54:	0399e021 	addu	gp,gp,t9
  401a58:	27bdffd0 	addiu	sp,sp,-48
  401a5c:	afbc0010 	sw	gp,16(sp)
  401a60:	248215ac 	addiu	v0,a0,5548
  401a64:	afb10024 	sw	s1,36(sp)
  401a68:	00808821 	move	s1,a0
  401a6c:	262517b0 	addiu	a1,s1,6064
  401a70:	24840120 	addiu	a0,a0,288
  401a74:	ae2217b0 	sw	v0,6064(s1)
  401a78:	afbf002c 	sw	ra,44(sp)
  401a7c:	afbc0028 	sw	gp,40(sp)
  401a80:	afb00020 	sw	s0,32(sp)
  401a84:	8f9901e4 	lw	t9,484(gp)
  401a88:	00000000 	nop
  401a8c:	0320f809 	jalr	t9
  401a90:	00000000 	nop
  401a94:	8fbc0010 	lw	gp,16(sp)
  401a98:	9623022c 	lhu	v1,556(s1)
  401a9c:	2402000c 	li	v0,12
  401aa0:	14620010 	bne	v1,v0,401ae4 <dns_decode_request+0x98>
  401aa4:	24020001 	li	v0,1
  401aa8:	26240100 	addiu	a0,s1,256
  401aac:	2625012c 	addiu	a1,s1,300
  401ab0:	10000013 	b	401b00 <dns_decode_request+0xb4>
  401ab4:	24060014 	li	a2,20
  401ab8:	27a5001c 	addiu	a1,sp,28
  401abc:	26020c72 	addiu	v0,s0,3186
  401ac0:	afa2001c 	sw	v0,28(sp)
  401ac4:	8f99022c 	lw	t9,556(gp)
  401ac8:	00000000 	nop
  401acc:	0320f809 	jalr	t9
  401ad0:	00000000 	nop
  401ad4:	8fbc0010 	lw	gp,16(sp)
  401ad8:	26240100 	addiu	a0,s1,256
  401adc:	1000002e 	b	401b98 <dns_decode_request+0x14c>
  401ae0:	26050b68 	addiu	a1,s0,2920
  401ae4:	10620003 	beq	v1,v0,401af4 <dns_decode_request+0xa8>
  401ae8:	2402001c 	li	v0,28
  401aec:	14620009 	bne	v1,v0,401b14 <dns_decode_request+0xc8>
  401af0:	00000000 	nop
  401af4:	2625012c 	addiu	a1,s1,300
  401af8:	02202021 	move	a0,s1
  401afc:	24060100 	li	a2,256
  401b00:	8f9901c0 	lw	t9,448(gp)
  401b04:	00000000 	nop
  401b08:	0320f809 	jalr	t9
  401b0c:	00000000 	nop
  401b10:	8fbc0010 	lw	gp,16(sp)
  401b14:	96280126 	lhu	t0,294(s1)
  401b18:	00000000 	nop
  401b1c:	1100002c 	beqz	t0,401bd0 <dns_decode_request+0x184>
  401b20:	00002821 	move	a1,zero
  401b24:	02208021 	move	s0,s1
  401b28:	9624022c 	lhu	a0,556(s1)
  401b2c:	96030c68 	lhu	v1,3176(s0)
  401b30:	24a50001 	addiu	a1,a1,1
  401b34:	3102ffff 	andi	v0,t0,0xffff
  401b38:	28a70005 	slti	a3,a1,5
  401b3c:	14830020 	bne	a0,v1,401bc0 <dns_decode_request+0x174>
  401b40:	00a2302a 	slt	a2,a1,v0
  401b44:	24020001 	li	v0,1
  401b48:	10820003 	beq	a0,v0,401b58 <dns_decode_request+0x10c>
  401b4c:	2402001c 	li	v0,28
  401b50:	14820019 	bne	a0,v0,401bb8 <dns_decode_request+0x16c>
  401b54:	2402000c 	li	v0,12
  401b58:	26050c72 	addiu	a1,s0,3186
  401b5c:	27a40018 	addiu	a0,sp,24
  401b60:	24060004 	li	a2,4
  401b64:	8f99033c 	lw	t9,828(gp)
  401b68:	00000000 	nop
  401b6c:	0320f809 	jalr	t9
  401b70:	00000000 	nop
  401b74:	8fbc0010 	lw	gp,16(sp)
  401b78:	8fa40018 	lw	a0,24(sp)
  401b7c:	8f990154 	lw	t9,340(gp)
  401b80:	00000000 	nop
  401b84:	0320f809 	jalr	t9
  401b88:	00000000 	nop
  401b8c:	8fbc0010 	lw	gp,16(sp)
  401b90:	00402821 	move	a1,v0
  401b94:	26240100 	addiu	a0,s1,256
  401b98:	24060014 	li	a2,20
  401b9c:	8f9901c0 	lw	t9,448(gp)
  401ba0:	00000000 	nop
  401ba4:	0320f809 	jalr	t9
  401ba8:	00000000 	nop
  401bac:	8fbc0010 	lw	gp,16(sp)
  401bb0:	10000007 	b	401bd0 <dns_decode_request+0x184>
  401bb4:	00000000 	nop
  401bb8:	1082ffbf 	beq	a0,v0,401ab8 <dns_decode_request+0x6c>
  401bbc:	02202021 	move	a0,s1
  401bc0:	10c00003 	beqz	a2,401bd0 <dns_decode_request+0x184>
  401bc4:	2610020c 	addiu	s0,s0,524
  401bc8:	14e0ffd7 	bnez	a3,401b28 <dns_decode_request+0xdc>
  401bcc:	00000000 	nop
  401bd0:	8fbf002c 	lw	ra,44(sp)
  401bd4:	8fb10024 	lw	s1,36(sp)
  401bd8:	8fb00020 	lw	s0,32(sp)
  401bdc:	03e00008 	jr	ra
  401be0:	27bd0030 	addiu	sp,sp,48
	...

00401bf0 <dns_list_add>:
  401bf0:	3c1c0001 	lui	gp,0x1
  401bf4:	279cce70 	addiu	gp,gp,-12688
  401bf8:	0399e021 	addu	gp,gp,t9
  401bfc:	27bdffd0 	addiu	sp,sp,-48
  401c00:	afbc0010 	sw	gp,16(sp)
  401c04:	afb20020 	sw	s2,32(sp)
  401c08:	00809021 	move	s2,a0
  401c0c:	3404ed30 	li	a0,0xed30
  401c10:	afb1001c 	sw	s1,28(sp)
  401c14:	afb00018 	sw	s0,24(sp)
  401c18:	afbf0028 	sw	ra,40(sp)
  401c1c:	afbc0024 	sw	gp,36(sp)
  401c20:	00a08821 	move	s1,a1
  401c24:	8f9902d4 	lw	t9,724(gp)
  401c28:	00000000 	nop
  401c2c:	0320f809 	jalr	t9
  401c30:	00000000 	nop
  401c34:	8fbc0010 	lw	gp,16(sp)
  401c38:	00408021 	move	s0,v0
  401c3c:	1200001e 	beqz	s0,401cb8 <dns_list_add+0xc8>
  401c40:	02401021 	move	v0,s2
  401c44:	02002821 	move	a1,s0
  401c48:	8f84000c 	lw	a0,12(gp)
  401c4c:	00000000 	nop
  401c50:	2484f120 	addiu	a0,a0,-3808
  401c54:	8f9902a0 	lw	t9,672(gp)
  401c58:	00000000 	nop
  401c5c:	0320f809 	jalr	t9
  401c60:	00000000 	nop
  401c64:	8fbc0010 	lw	gp,16(sp)
  401c68:	02202821 	move	a1,s1
  401c6c:	02001021 	move	v0,s0
  401c70:	262317b0 	addiu	v1,s1,6064
  401c74:	8ca40000 	lw	a0,0(a1)
  401c78:	8ca60004 	lw	a2,4(a1)
  401c7c:	8ca70008 	lw	a3,8(a1)
  401c80:	8ca8000c 	lw	t0,12(a1)
  401c84:	ac440000 	sw	a0,0(v0)
  401c88:	ac460004 	sw	a2,4(v0)
  401c8c:	ac470008 	sw	a3,8(v0)
  401c90:	ac48000c 	sw	t0,12(v0)
  401c94:	24a50010 	addiu	a1,a1,16
  401c98:	14a3fff6 	bne	a1,v1,401c74 <dns_list_add+0x84>
  401c9c:	24420010 	addiu	v0,v0,16
  401ca0:	8ca30000 	lw	v1,0(a1)
  401ca4:	8ca40004 	lw	a0,4(a1)
  401ca8:	ac430000 	sw	v1,0(v0)
  401cac:	ac440004 	sw	a0,4(v0)
  401cb0:	ae1217b4 	sw	s2,6068(s0)
  401cb4:	02001021 	move	v0,s0
  401cb8:	8fbf0028 	lw	ra,40(sp)
  401cbc:	8fb20020 	lw	s2,32(sp)
  401cc0:	8fb1001c 	lw	s1,28(sp)
  401cc4:	8fb00018 	lw	s0,24(sp)
  401cc8:	03e00008 	jr	ra
  401ccc:	27bd0030 	addiu	sp,sp,48

00401cd0 <dns_list_find_by_id>:
  401cd0:	3c1c0001 	lui	gp,0x1
  401cd4:	279ccd90 	addiu	gp,gp,-12912
  401cd8:	0399e021 	addu	gp,gp,t9
  401cdc:	27bdffd8 	addiu	sp,sp,-40
  401ce0:	afbc0010 	sw	gp,16(sp)
  401ce4:	afb00018 	sw	s0,24(sp)
  401ce8:	00808021 	move	s0,a0
  401cec:	afb1001c 	sw	s1,28(sp)
  401cf0:	afbf0024 	sw	ra,36(sp)
  401cf4:	afbc0020 	sw	gp,32(sp)
  401cf8:	00a08821 	move	s1,a1
  401cfc:	8f9901ec 	lw	t9,492(gp)
  401d00:	00000000 	nop
  401d04:	0320f809 	jalr	t9
  401d08:	00000000 	nop
  401d0c:	8fbc0010 	lw	gp,16(sp)
  401d10:	12000015 	beqz	s0,401d68 <dns_list_find_by_id+0x98>
  401d14:	00000000 	nop
  401d18:	96060120 	lhu	a2,288(s0)
  401d1c:	96270120 	lhu	a3,288(s1)
  401d20:	8f84000c 	lw	a0,12(gp)
  401d24:	00000000 	nop
  401d28:	2484f12c 	addiu	a0,a0,-3796
  401d2c:	2605012c 	addiu	a1,s0,300
  401d30:	8f9902a0 	lw	t9,672(gp)
  401d34:	00000000 	nop
  401d38:	0320f809 	jalr	t9
  401d3c:	00000000 	nop
  401d40:	8fbc0010 	lw	gp,16(sp)
  401d44:	96030120 	lhu	v1,288(s0)
  401d48:	96220120 	lhu	v0,288(s1)
  401d4c:	00000000 	nop
  401d50:	10620006 	beq	v1,v0,401d6c <dns_list_find_by_id+0x9c>
  401d54:	02002021 	move	a0,s0
  401d58:	8e1017b4 	lw	s0,6068(s0)
  401d5c:	00000000 	nop
  401d60:	1600ffed 	bnez	s0,401d18 <dns_list_find_by_id+0x48>
  401d64:	00000000 	nop
  401d68:	00002021 	move	a0,zero
  401d6c:	8fbf0024 	lw	ra,36(sp)
  401d70:	8fb1001c 	lw	s1,28(sp)
  401d74:	8fb00018 	lw	s0,24(sp)
  401d78:	00801021 	move	v0,a0
  401d7c:	03e00008 	jr	ra
  401d80:	27bd0028 	addiu	sp,sp,40

00401d84 <dns_list_remove>:
  401d84:	3c1c0001 	lui	gp,0x1
  401d88:	279cccdc 	addiu	gp,gp,-13092
  401d8c:	0399e021 	addu	gp,gp,t9
  401d90:	27bdffd8 	addiu	sp,sp,-40
  401d94:	afbc0010 	sw	gp,16(sp)
  401d98:	00803021 	move	a2,a0
  401d9c:	afbf0020 	sw	ra,32(sp)
  401da0:	afbc001c 	sw	gp,28(sp)
  401da4:	afb00018 	sw	s0,24(sp)
  401da8:	00a02021 	move	a0,a1
  401dac:	10a00014 	beqz	a1,401e00 <dns_list_remove+0x7c>
  401db0:	00c01021 	move	v0,a2
  401db4:	10c00007 	beqz	a2,401dd4 <dns_list_remove+0x50>
  401db8:	00000000 	nop
  401dbc:	8c4317b4 	lw	v1,6068(v0)
  401dc0:	00000000 	nop
  401dc4:	10640003 	beq	v1,a0,401dd4 <dns_list_remove+0x50>
  401dc8:	00000000 	nop
  401dcc:	1460fffb 	bnez	v1,401dbc <dns_list_remove+0x38>
  401dd0:	00601021 	move	v0,v1
  401dd4:	8c8317b4 	lw	v1,6068(a0)
  401dd8:	10400003 	beqz	v0,401de8 <dns_list_remove+0x64>
  401ddc:	00608021 	move	s0,v1
  401de0:	ac4317b4 	sw	v1,6068(v0)
  401de4:	00c08021 	move	s0,a2
  401de8:	8f990020 	lw	t9,32(gp)
  401dec:	00000000 	nop
  401df0:	0320f809 	jalr	t9
  401df4:	00000000 	nop
  401df8:	8fbc0010 	lw	gp,16(sp)
  401dfc:	02001021 	move	v0,s0
  401e00:	8fbf0020 	lw	ra,32(sp)
  401e04:	8fb00018 	lw	s0,24(sp)
  401e08:	03e00008 	jr	ra
  401e0c:	27bd0028 	addiu	sp,sp,40

00401e10 <dns_list_print>:
  401e10:	3c1c0001 	lui	gp,0x1
  401e14:	279ccc50 	addiu	gp,gp,-13232
  401e18:	0399e021 	addu	gp,gp,t9
  401e1c:	27bdffd8 	addiu	sp,sp,-40
  401e20:	afbc0010 	sw	gp,16(sp)
  401e24:	afb00018 	sw	s0,24(sp)
  401e28:	00808021 	move	s0,a0
  401e2c:	8f84000c 	lw	a0,12(gp)
  401e30:	00000000 	nop
  401e34:	2484f150 	addiu	a0,a0,-3760
  401e38:	afbf0020 	sw	ra,32(sp)
  401e3c:	afbc001c 	sw	gp,28(sp)
  401e40:	8f9902a0 	lw	t9,672(gp)
  401e44:	00000000 	nop
  401e48:	0320f809 	jalr	t9
  401e4c:	00000000 	nop
  401e50:	8fbc0010 	lw	gp,16(sp)
  401e54:	12000010 	beqz	s0,401e98 <dns_list_print+0x88>
  401e58:	00000000 	nop
  401e5c:	96050120 	lhu	a1,288(s0)
  401e60:	26070100 	addiu	a3,s0,256
  401e64:	02003021 	move	a2,s0
  401e68:	8f84000c 	lw	a0,12(gp)
  401e6c:	00000000 	nop
  401e70:	2484f160 	addiu	a0,a0,-3744
  401e74:	8f9902a0 	lw	t9,672(gp)
  401e78:	00000000 	nop
  401e7c:	0320f809 	jalr	t9
  401e80:	00000000 	nop
  401e84:	8fbc0010 	lw	gp,16(sp)
  401e88:	8e1017b4 	lw	s0,6068(s0)
  401e8c:	00000000 	nop
  401e90:	1600fff2 	bnez	s0,401e5c <dns_list_print+0x4c>
  401e94:	00000000 	nop
  401e98:	8fbf0020 	lw	ra,32(sp)
  401e9c:	8fb00018 	lw	s0,24(sp)
  401ea0:	03e00008 	jr	ra
  401ea4:	27bd0028 	addiu	sp,sp,40
	...

00401eb0 <cache_lookup_name>:
  401eb0:	3c1c0001 	lui	gp,0x1
  401eb4:	279ccbb0 	addiu	gp,gp,-13392
  401eb8:	0399e021 	addu	gp,gp,t9
  401ebc:	27bdffd0 	addiu	sp,sp,-48
  401ec0:	afbc0010 	sw	gp,16(sp)
  401ec4:	afb00018 	sw	s0,24(sp)
  401ec8:	00808021 	move	s0,a0
  401ecc:	afb1001c 	sw	s1,28(sp)
  401ed0:	8f84000c 	lw	a0,12(gp)
  401ed4:	00000000 	nop
  401ed8:	2484f190 	addiu	a0,a0,-3696
  401edc:	00a08821 	move	s1,a1
  401ee0:	02002821 	move	a1,s0
  401ee4:	afbf0028 	sw	ra,40(sp)
  401ee8:	afb20020 	sw	s2,32(sp)
  401eec:	afbc0024 	sw	gp,36(sp)
  401ef0:	8f9902a0 	lw	t9,672(gp)
  401ef4:	00000000 	nop
  401ef8:	0320f809 	jalr	t9
  401efc:	00000000 	nop
  401f00:	8fbc0010 	lw	gp,16(sp)
  401f04:	00000000 	nop
  401f08:	8f840034 	lw	a0,52(gp)
  401f0c:	00000000 	nop
  401f10:	2484070c 	addiu	a0,a0,1804
  401f14:	8f85000c 	lw	a1,12(gp)
  401f18:	00000000 	nop
  401f1c:	24a5f1a8 	addiu	a1,a1,-3672
  401f20:	8f990178 	lw	t9,376(gp)
  401f24:	00000000 	nop
  401f28:	0320f809 	jalr	t9
  401f2c:	00000000 	nop
  401f30:	8fbc0010 	lw	gp,16(sp)
  401f34:	00409021 	move	s2,v0
  401f38:	02002821 	move	a1,s0
  401f3c:	02203021 	move	a2,s1
  401f40:	10400011 	beqz	v0,401f88 <cache_lookup_name+0xd8>
  401f44:	00402021 	move	a0,v0
  401f48:	8f990008 	lw	t9,8(gp)
  401f4c:	00000000 	nop
  401f50:	27391fa4 	addiu	t9,t9,8100
  401f54:	00000000 	nop
  401f58:	0320f809 	jalr	t9
  401f5c:	00000000 	nop
  401f60:	8fbc0010 	lw	gp,16(sp)
  401f64:	00408021 	move	s0,v0
  401f68:	02402021 	move	a0,s2
  401f6c:	8f99015c 	lw	t9,348(gp)
  401f70:	00000000 	nop
  401f74:	0320f809 	jalr	t9
  401f78:	00000000 	nop
  401f7c:	8fbc0010 	lw	gp,16(sp)
  401f80:	1e000002 	bgtz	s0,401f8c <cache_lookup_name+0xdc>
  401f84:	24020001 	li	v0,1
  401f88:	00001021 	move	v0,zero
  401f8c:	8fbf0028 	lw	ra,40(sp)
  401f90:	8fb20020 	lw	s2,32(sp)
  401f94:	8fb1001c 	lw	s1,28(sp)
  401f98:	8fb00018 	lw	s0,24(sp)
  401f9c:	03e00008 	jr	ra
  401fa0:	27bd0030 	addiu	sp,sp,48
  401fa4:	3c1c0001 	lui	gp,0x1
  401fa8:	279ccabc 	addiu	gp,gp,-13636
  401fac:	0399e021 	addu	gp,gp,t9
  401fb0:	27bdfed0 	addiu	sp,sp,-304
  401fb4:	afbc0010 	sw	gp,16(sp)
  401fb8:	a0c00000 	sb	zero,0(a2)
  401fbc:	afb20120 	sw	s2,288(sp)
  401fc0:	afb1011c 	sw	s1,284(sp)
  401fc4:	afb00118 	sw	s0,280(sp)
  401fc8:	afbf0128 	sw	ra,296(sp)
  401fcc:	afbc0124 	sw	gp,292(sp)
  401fd0:	00a09021 	move	s2,a1
  401fd4:	00c08021 	move	s0,a2
  401fd8:	00808821 	move	s1,a0
  401fdc:	8f9900d0 	lw	t9,208(gp)
  401fe0:	00000000 	nop
  401fe4:	0320f809 	jalr	t9
  401fe8:	00000000 	nop
  401fec:	8fbc0010 	lw	gp,16(sp)
  401ff0:	10000039 	b	4020d8 <cache_lookup_name+0x228>
  401ff4:	27a40018 	addiu	a0,sp,24
  401ff8:	8f9901a4 	lw	t9,420(gp)
  401ffc:	00000000 	nop
  402000:	0320f809 	jalr	t9
  402004:	00000000 	nop
  402008:	8fbc0010 	lw	gp,16(sp)
  40200c:	00402021 	move	a0,v0
  402010:	02402821 	move	a1,s2
  402014:	8f9901b4 	lw	t9,436(gp)
  402018:	00000000 	nop
  40201c:	0320f809 	jalr	t9
  402020:	00000000 	nop
  402024:	8fbc0010 	lw	gp,16(sp)
  402028:	1440002b 	bnez	v0,4020d8 <cache_lookup_name+0x228>
  40202c:	27a40018 	addiu	a0,sp,24
  402030:	00002021 	move	a0,zero
  402034:	8f85000c 	lw	a1,12(gp)
  402038:	00000000 	nop
  40203c:	24a5f1ac 	addiu	a1,a1,-3668
  402040:	8f9901a4 	lw	t9,420(gp)
  402044:	00000000 	nop
  402048:	0320f809 	jalr	t9
  40204c:	00000000 	nop
  402050:	8fbc0010 	lw	gp,16(sp)
  402054:	80450000 	lb	a1,0(v0)
  402058:	8f830324 	lw	v1,804(gp)
  40205c:	00000000 	nop
  402060:	8c630000 	lw	v1,0(v1)
  402064:	00402021 	move	a0,v0
  402068:	00051040 	sll	v0,a1,0x1
  40206c:	00431021 	addu	v0,v0,v1
  402070:	94420000 	lhu	v0,0(v0)
  402074:	00000000 	nop
  402078:	30420800 	andi	v0,v0,0x800
  40207c:	14400003 	bnez	v0,40208c <cache_lookup_name+0x1dc>
  402080:	2402002e 	li	v0,46
  402084:	14a20012 	bne	a1,v0,4020d0 <cache_lookup_name+0x220>
  402088:	24020001 	li	v0,1
  40208c:	90820000 	lbu	v0,0(a0)
  402090:	24840001 	addiu	a0,a0,1
  402094:	a2020000 	sb	v0,0(s0)
  402098:	80850000 	lb	a1,0(a0)
  40209c:	8f830324 	lw	v1,804(gp)
  4020a0:	00000000 	nop
  4020a4:	8c630000 	lw	v1,0(v1)
  4020a8:	00051040 	sll	v0,a1,0x1
  4020ac:	00431021 	addu	v0,v0,v1
  4020b0:	94420000 	lhu	v0,0(v0)
  4020b4:	00000000 	nop
  4020b8:	30420800 	andi	v0,v0,0x800
  4020bc:	1440fff3 	bnez	v0,40208c <cache_lookup_name+0x1dc>
  4020c0:	26100001 	addiu	s0,s0,1
  4020c4:	2402002e 	li	v0,46
  4020c8:	10a2fff0 	beq	a1,v0,40208c <cache_lookup_name+0x1dc>
  4020cc:	24020001 	li	v0,1
  4020d0:	1000000f 	b	402110 <cache_lookup_name+0x260>
  4020d4:	a2000000 	sb	zero,0(s0)
  4020d8:	24050100 	li	a1,256
  4020dc:	02203021 	move	a2,s1
  4020e0:	8f99030c 	lw	t9,780(gp)
  4020e4:	00000000 	nop
  4020e8:	0320f809 	jalr	t9
  4020ec:	00000000 	nop
  4020f0:	8fbc0010 	lw	gp,16(sp)
  4020f4:	00000000 	nop
  4020f8:	8f85000c 	lw	a1,12(gp)
  4020fc:	00000000 	nop
  402100:	24a5f1ac 	addiu	a1,a1,-3668
  402104:	1440ffbc 	bnez	v0,401ff8 <cache_lookup_name+0x148>
  402108:	27a40018 	addiu	a0,sp,24
  40210c:	00001021 	move	v0,zero
  402110:	8fbf0128 	lw	ra,296(sp)
  402114:	8fb20120 	lw	s2,288(sp)
  402118:	8fb1011c 	lw	s1,284(sp)
  40211c:	8fb00118 	lw	s0,280(sp)
  402120:	03e00008 	jr	ra
  402124:	27bd0130 	addiu	sp,sp,304

00402128 <cache_lookup_ip>:
  402128:	3c1c0001 	lui	gp,0x1
  40212c:	279cc938 	addiu	gp,gp,-14024
  402130:	0399e021 	addu	gp,gp,t9
  402134:	27bdfed0 	addiu	sp,sp,-304
  402138:	afbc0010 	sw	gp,16(sp)
  40213c:	afb30124 	sw	s3,292(sp)
  402140:	afb00118 	sw	s0,280(sp)
  402144:	afbf012c 	sw	ra,300(sp)
  402148:	afbc0128 	sw	gp,296(sp)
  40214c:	afb20120 	sw	s2,288(sp)
  402150:	afb1011c 	sw	s1,284(sp)
  402154:	80820000 	lb	v0,0(a0)
  402158:	00809821 	move	s3,a0
  40215c:	00a08021 	move	s0,a1
  402160:	10400070 	beqz	v0,402324 <cache_lookup_ip+0x1fc>
  402164:	00001821 	move	v1,zero
  402168:	a0a00000 	sb	zero,0(a1)
  40216c:	8f840034 	lw	a0,52(gp)
  402170:	00000000 	nop
  402174:	2484070c 	addiu	a0,a0,1804
  402178:	8f85000c 	lw	a1,12(gp)
  40217c:	00000000 	nop
  402180:	24a5f1a8 	addiu	a1,a1,-3672
  402184:	8f990178 	lw	t9,376(gp)
  402188:	00000000 	nop
  40218c:	0320f809 	jalr	t9
  402190:	00000000 	nop
  402194:	8fbc0010 	lw	gp,16(sp)
  402198:	00409021 	move	s2,v0
  40219c:	00001821 	move	v1,zero
  4021a0:	1440004b 	bnez	v0,4022d0 <cache_lookup_ip+0x1a8>
  4021a4:	02008821 	move	s1,s0
  4021a8:	1000005e 	b	402324 <cache_lookup_ip+0x1fc>
  4021ac:	00000000 	nop
  4021b0:	8f9901a4 	lw	t9,420(gp)
  4021b4:	00000000 	nop
  4021b8:	0320f809 	jalr	t9
  4021bc:	00000000 	nop
  4021c0:	8fbc0010 	lw	gp,16(sp)
  4021c4:	00000000 	nop
  4021c8:	8f85000c 	lw	a1,12(gp)
  4021cc:	00000000 	nop
  4021d0:	24a5f1ac 	addiu	a1,a1,-3668
  4021d4:	00002021 	move	a0,zero
  4021d8:	8f9901a4 	lw	t9,420(gp)
  4021dc:	00000000 	nop
  4021e0:	0320f809 	jalr	t9
  4021e4:	00000000 	nop
  4021e8:	8fbc0010 	lw	gp,16(sp)
  4021ec:	02602021 	move	a0,s3
  4021f0:	00408021 	move	s0,v0
  4021f4:	8f99007c 	lw	t9,124(gp)
  4021f8:	00000000 	nop
  4021fc:	0320f809 	jalr	t9
  402200:	00000000 	nop
  402204:	8fbc0010 	lw	gp,16(sp)
  402208:	00403021 	move	a2,v0
  40220c:	02002021 	move	a0,s0
  402210:	02602821 	move	a1,s3
  402214:	8f990280 	lw	t9,640(gp)
  402218:	00000000 	nop
  40221c:	0320f809 	jalr	t9
  402220:	00000000 	nop
  402224:	8fbc0010 	lw	gp,16(sp)
  402228:	1440002a 	bnez	v0,4022d4 <cache_lookup_ip+0x1ac>
  40222c:	27a40018 	addiu	a0,sp,24
  402230:	83a40018 	lb	a0,24(sp)
  402234:	8f830324 	lw	v1,804(gp)
  402238:	00000000 	nop
  40223c:	8c630000 	lw	v1,0(v1)
  402240:	00041040 	sll	v0,a0,0x1
  402244:	00431021 	addu	v0,v0,v1
  402248:	94420000 	lhu	v0,0(v0)
  40224c:	00000000 	nop
  402250:	30420800 	andi	v0,v0,0x800
  402254:	14400003 	bnez	v0,402264 <cache_lookup_ip+0x13c>
  402258:	2402002e 	li	v0,46
  40225c:	14820013 	bne	a0,v0,4022ac <cache_lookup_ip+0x184>
  402260:	00000000 	nop
  402264:	27a40018 	addiu	a0,sp,24
  402268:	90820000 	lbu	v0,0(a0)
  40226c:	24840001 	addiu	a0,a0,1
  402270:	a2220000 	sb	v0,0(s1)
  402274:	80850000 	lb	a1,0(a0)
  402278:	8f830324 	lw	v1,804(gp)
  40227c:	00000000 	nop
  402280:	8c630000 	lw	v1,0(v1)
  402284:	00051040 	sll	v0,a1,0x1
  402288:	00431021 	addu	v0,v0,v1
  40228c:	94420000 	lhu	v0,0(v0)
  402290:	00000000 	nop
  402294:	30420800 	andi	v0,v0,0x800
  402298:	1440fff3 	bnez	v0,402268 <cache_lookup_ip+0x140>
  40229c:	26310001 	addiu	s1,s1,1
  4022a0:	2402002e 	li	v0,46
  4022a4:	10a2fff0 	beq	a1,v0,402268 <cache_lookup_ip+0x140>
  4022a8:	00000000 	nop
  4022ac:	a2200000 	sb	zero,0(s1)
  4022b0:	02402021 	move	a0,s2
  4022b4:	8f99015c 	lw	t9,348(gp)
  4022b8:	00000000 	nop
  4022bc:	0320f809 	jalr	t9
  4022c0:	00000000 	nop
  4022c4:	8fbc0010 	lw	gp,16(sp)
  4022c8:	10000016 	b	402324 <cache_lookup_ip+0x1fc>
  4022cc:	24030001 	li	v1,1
  4022d0:	27a40018 	addiu	a0,sp,24
  4022d4:	24050100 	li	a1,256
  4022d8:	02403021 	move	a2,s2
  4022dc:	8f99030c 	lw	t9,780(gp)
  4022e0:	00000000 	nop
  4022e4:	0320f809 	jalr	t9
  4022e8:	00000000 	nop
  4022ec:	8fbc0010 	lw	gp,16(sp)
  4022f0:	00000000 	nop
  4022f4:	8f85000c 	lw	a1,12(gp)
  4022f8:	00000000 	nop
  4022fc:	24a5f1ac 	addiu	a1,a1,-3668
  402300:	1440ffab 	bnez	v0,4021b0 <cache_lookup_ip+0x88>
  402304:	27a40018 	addiu	a0,sp,24
  402308:	02402021 	move	a0,s2
  40230c:	8f99015c 	lw	t9,348(gp)
  402310:	00000000 	nop
  402314:	0320f809 	jalr	t9
  402318:	00000000 	nop
  40231c:	8fbc0010 	lw	gp,16(sp)
  402320:	00001821 	move	v1,zero
  402324:	8fbf012c 	lw	ra,300(sp)
  402328:	8fb30124 	lw	s3,292(sp)
  40232c:	8fb20120 	lw	s2,288(sp)
  402330:	8fb1011c 	lw	s1,284(sp)
  402334:	8fb00118 	lw	s0,280(sp)
  402338:	00601021 	move	v0,v1
  40233c:	03e00008 	jr	ra
  402340:	27bd0130 	addiu	sp,sp,304

00402344 <cache_name_append>:
  402344:	3c1c0001 	lui	gp,0x1
  402348:	279cc71c 	addiu	gp,gp,-14564
  40234c:	0399e021 	addu	gp,gp,t9
  402350:	27bdfec8 	addiu	sp,sp,-312
  402354:	afbc0018 	sw	gp,24(sp)
  402358:	afb20128 	sw	s2,296(sp)
  40235c:	afb10124 	sw	s1,292(sp)
  402360:	00a09021 	move	s2,a1
  402364:	00808821 	move	s1,a0
  402368:	8f85000c 	lw	a1,12(gp)
  40236c:	00000000 	nop
  402370:	24a5f1b0 	addiu	a1,a1,-3664
  402374:	8f840034 	lw	a0,52(gp)
  402378:	00000000 	nop
  40237c:	2484070c 	addiu	a0,a0,1804
  402380:	afb00120 	sw	s0,288(sp)
  402384:	afbf0130 	sw	ra,304(sp)
  402388:	afbc012c 	sw	gp,300(sp)
  40238c:	8f990178 	lw	t9,376(gp)
  402390:	00000000 	nop
  402394:	0320f809 	jalr	t9
  402398:	00000000 	nop
  40239c:	8fbc0018 	lw	gp,24(sp)
  4023a0:	00408021 	move	s0,v0
  4023a4:	8f84000c 	lw	a0,12(gp)
  4023a8:	00000000 	nop
  4023ac:	2484f1b4 	addiu	a0,a0,-3660
  4023b0:	8f850034 	lw	a1,52(gp)
  4023b4:	00000000 	nop
  4023b8:	24a5070c 	addiu	a1,a1,1804
  4023bc:	14400008 	bnez	v0,4023e0 <cache_name_append+0x9c>
  4023c0:	27a60020 	addiu	a2,sp,32
  4023c4:	8f9902a0 	lw	t9,672(gp)
  4023c8:	00000000 	nop
  4023cc:	0320f809 	jalr	t9
  4023d0:	00000000 	nop
  4023d4:	8fbc0018 	lw	gp,24(sp)
  4023d8:	1000002b 	b	402488 <cache_name_append+0x144>
  4023dc:	00000000 	nop
  4023e0:	00402021 	move	a0,v0
  4023e4:	02202821 	move	a1,s1
  4023e8:	8f990008 	lw	t9,8(gp)
  4023ec:	00000000 	nop
  4023f0:	27391fa4 	addiu	t9,t9,8100
  4023f4:	00000000 	nop
  4023f8:	0320f809 	jalr	t9
  4023fc:	00000000 	nop
  402400:	8fbc0018 	lw	gp,24(sp)
  402404:	00002821 	move	a1,zero
  402408:	24060002 	li	a2,2
  40240c:	14400019 	bnez	v0,402474 <cache_name_append+0x130>
  402410:	02002021 	move	a0,s0
  402414:	8f9901fc 	lw	t9,508(gp)
  402418:	00000000 	nop
  40241c:	0320f809 	jalr	t9
  402420:	00000000 	nop
  402424:	8fbc0018 	lw	gp,24(sp)
  402428:	00002021 	move	a0,zero
  40242c:	8f990148 	lw	t9,328(gp)
  402430:	00000000 	nop
  402434:	0320f809 	jalr	t9
  402438:	00000000 	nop
  40243c:	8fbc0018 	lw	gp,24(sp)
  402440:	02002021 	move	a0,s0
  402444:	02203021 	move	a2,s1
  402448:	02403821 	move	a3,s2
  40244c:	8f85000c 	lw	a1,12(gp)
  402450:	00000000 	nop
  402454:	24a5f1e0 	addiu	a1,a1,-3616
  402458:	afa20010 	sw	v0,16(sp)
  40245c:	8f990224 	lw	t9,548(gp)
  402460:	00000000 	nop
  402464:	0320f809 	jalr	t9
  402468:	00000000 	nop
  40246c:	8fbc0018 	lw	gp,24(sp)
  402470:	02002021 	move	a0,s0
  402474:	8f99015c 	lw	t9,348(gp)
  402478:	00000000 	nop
  40247c:	0320f809 	jalr	t9
  402480:	00000000 	nop
  402484:	8fbc0018 	lw	gp,24(sp)
  402488:	8fbf0130 	lw	ra,304(sp)
  40248c:	8fb20128 	lw	s2,296(sp)
  402490:	8fb10124 	lw	s1,292(sp)
  402494:	8fb00120 	lw	s0,288(sp)
  402498:	03e00008 	jr	ra
  40249c:	27bd0138 	addiu	sp,sp,312

004024a0 <cache_purge>:
  4024a0:	3c1c0001 	lui	gp,0x1
  4024a4:	279cc5c0 	addiu	gp,gp,-14912
  4024a8:	0399e021 	addu	gp,gp,t9
  4024ac:	27bdfab8 	addiu	sp,sp,-1352
  4024b0:	afbc0018 	sw	gp,24(sp)
  4024b4:	afb60538 	sw	s6,1336(sp)
  4024b8:	0080b021 	move	s6,a0
  4024bc:	8f84000c 	lw	a0,12(gp)
  4024c0:	00000000 	nop
  4024c4:	2484f1ec 	addiu	a0,a0,-3604
  4024c8:	afbf0540 	sw	ra,1344(sp)
  4024cc:	afb20528 	sw	s2,1320(sp)
  4024d0:	afbc053c 	sw	gp,1340(sp)
  4024d4:	afb50534 	sw	s5,1332(sp)
  4024d8:	afb40530 	sw	s4,1328(sp)
  4024dc:	afb3052c 	sw	s3,1324(sp)
  4024e0:	afb10524 	sw	s1,1316(sp)
  4024e4:	afb00520 	sw	s0,1312(sp)
  4024e8:	8f9902a0 	lw	t9,672(gp)
  4024ec:	00000000 	nop
  4024f0:	0320f809 	jalr	t9
  4024f4:	00000000 	nop
  4024f8:	8fbc0018 	lw	gp,24(sp)
  4024fc:	00000000 	nop
  402500:	8f840034 	lw	a0,52(gp)
  402504:	00000000 	nop
  402508:	2484070c 	addiu	a0,a0,1804
  40250c:	8f85000c 	lw	a1,12(gp)
  402510:	00000000 	nop
  402514:	24a5f1a8 	addiu	a1,a1,-3672
  402518:	8f990178 	lw	t9,376(gp)
  40251c:	00000000 	nop
  402520:	0320f809 	jalr	t9
  402524:	00000000 	nop
  402528:	8fbc0018 	lw	gp,24(sp)
  40252c:	1440000b 	bnez	v0,40255c <cache_purge+0xbc>
  402530:	00409021 	move	s2,v0
  402534:	8f84000c 	lw	a0,12(gp)
  402538:	00000000 	nop
  40253c:	2484f204 	addiu	a0,a0,-3580
  402540:	8f9900d8 	lw	t9,216(gp)
  402544:	00000000 	nop
  402548:	0320f809 	jalr	t9
  40254c:	00000000 	nop
  402550:	8fbc0018 	lw	gp,24(sp)
  402554:	10000023 	b	4025e4 <cache_purge+0x144>
  402558:	00000000 	nop
  40255c:	27b00120 	addiu	s0,sp,288
  402560:	02002021 	move	a0,s0
  402564:	8f85000c 	lw	a1,12(gp)
  402568:	00000000 	nop
  40256c:	24a5f224 	addiu	a1,a1,-3548
  402570:	8f860034 	lw	a2,52(gp)
  402574:	00000000 	nop
  402578:	24c6070c 	addiu	a2,a2,1804
  40257c:	8f99011c 	lw	t9,284(gp)
  402580:	00000000 	nop
  402584:	0320f809 	jalr	t9
  402588:	00000000 	nop
  40258c:	8fbc0018 	lw	gp,24(sp)
  402590:	02002821 	move	a1,s0
  402594:	8f840034 	lw	a0,52(gp)
  402598:	00000000 	nop
  40259c:	2484070c 	addiu	a0,a0,1804
  4025a0:	8f990250 	lw	t9,592(gp)
  4025a4:	00000000 	nop
  4025a8:	0320f809 	jalr	t9
  4025ac:	00000000 	nop
  4025b0:	8fbc0018 	lw	gp,24(sp)
  4025b4:	0441000b 	bgez	v0,4025e4 <cache_purge+0x144>
  4025b8:	00000000 	nop
  4025bc:	8f84000c 	lw	a0,12(gp)
  4025c0:	00000000 	nop
  4025c4:	2484f22c 	addiu	a0,a0,-3540
  4025c8:	8f9900d8 	lw	t9,216(gp)
  4025cc:	00000000 	nop
  4025d0:	0320f809 	jalr	t9
  4025d4:	00000000 	nop
  4025d8:	8fbc0018 	lw	gp,24(sp)
  4025dc:	1000007c 	b	4027d0 <cache_purge+0x330>
  4025e0:	02402021 	move	a0,s2
  4025e4:	8f840034 	lw	a0,52(gp)
  4025e8:	00000000 	nop
  4025ec:	2484070c 	addiu	a0,a0,1804
  4025f0:	8f85000c 	lw	a1,12(gp)
  4025f4:	00000000 	nop
  4025f8:	24a5f248 	addiu	a1,a1,-3512
  4025fc:	8f990178 	lw	t9,376(gp)
  402600:	00000000 	nop
  402604:	0320f809 	jalr	t9
  402608:	00000000 	nop
  40260c:	8fbc0018 	lw	gp,24(sp)
  402610:	14400013 	bnez	v0,402660 <cache_purge+0x1c0>
  402614:	00409821 	move	s3,v0
  402618:	12400007 	beqz	s2,402638 <cache_purge+0x198>
  40261c:	02402021 	move	a0,s2
  402620:	8f99015c 	lw	t9,348(gp)
  402624:	00000000 	nop
  402628:	0320f809 	jalr	t9
  40262c:	00000000 	nop
  402630:	8fbc0018 	lw	gp,24(sp)
  402634:	00000000 	nop
  402638:	8f84000c 	lw	a0,12(gp)
  40263c:	00000000 	nop
  402640:	2484f24c 	addiu	a0,a0,-3508
  402644:	8f9900d8 	lw	t9,216(gp)
  402648:	00000000 	nop
  40264c:	0320f809 	jalr	t9
  402650:	00000000 	nop
  402654:	8fbc0018 	lw	gp,24(sp)
  402658:	10000062 	b	4027e4 <cache_purge+0x344>
  40265c:	00000000 	nop
  402660:	00402021 	move	a0,v0
  402664:	8f990328 	lw	t9,808(gp)
  402668:	00000000 	nop
  40266c:	0320f809 	jalr	t9
  402670:	00000000 	nop
  402674:	8fbc0018 	lw	gp,24(sp)
  402678:	12400054 	beqz	s2,4027cc <cache_purge+0x32c>
  40267c:	27a40020 	addiu	a0,sp,32
  402680:	1000003a 	b	40276c <cache_purge+0x2cc>
  402684:	24050100 	li	a1,256
  402688:	8f9901a4 	lw	t9,420(gp)
  40268c:	00000000 	nop
  402690:	0320f809 	jalr	t9
  402694:	00000000 	nop
  402698:	8fbc0018 	lw	gp,24(sp)
  40269c:	00002021 	move	a0,zero
  4026a0:	8f85000c 	lw	a1,12(gp)
  4026a4:	00000000 	nop
  4026a8:	24a5f1ac 	addiu	a1,a1,-3668
  4026ac:	0040a821 	move	s5,v0
  4026b0:	8f9901a4 	lw	t9,420(gp)
  4026b4:	00000000 	nop
  4026b8:	0320f809 	jalr	t9
  4026bc:	00000000 	nop
  4026c0:	8fbc0018 	lw	gp,24(sp)
  4026c4:	00002021 	move	a0,zero
  4026c8:	8f85000c 	lw	a1,12(gp)
  4026cc:	00000000 	nop
  4026d0:	24a5f1ac 	addiu	a1,a1,-3668
  4026d4:	0040a021 	move	s4,v0
  4026d8:	8f9901a4 	lw	t9,420(gp)
  4026dc:	00000000 	nop
  4026e0:	0320f809 	jalr	t9
  4026e4:	00000000 	nop
  4026e8:	8fbc0018 	lw	gp,24(sp)
  4026ec:	00408821 	move	s1,v0
  4026f0:	1040001c 	beqz	v0,402764 <cache_purge+0x2c4>
  4026f4:	00002021 	move	a0,zero
  4026f8:	8f990148 	lw	t9,328(gp)
  4026fc:	00000000 	nop
  402700:	0320f809 	jalr	t9
  402704:	00000000 	nop
  402708:	8fbc0018 	lw	gp,24(sp)
  40270c:	02202021 	move	a0,s1
  402710:	00408021 	move	s0,v0
  402714:	8f990094 	lw	t9,148(gp)
  402718:	00000000 	nop
  40271c:	0320f809 	jalr	t9
  402720:	00000000 	nop
  402724:	8fbc0018 	lw	gp,24(sp)
  402728:	02028023 	subu	s0,s0,v0
  40272c:	0216802a 	slt	s0,s0,s6
  402730:	02a03021 	move	a2,s5
  402734:	02803821 	move	a3,s4
  402738:	8f85000c 	lw	a1,12(gp)
  40273c:	00000000 	nop
  402740:	24a5f26c 	addiu	a1,a1,-3476
  402744:	12000007 	beqz	s0,402764 <cache_purge+0x2c4>
  402748:	02602021 	move	a0,s3
  40274c:	afb10010 	sw	s1,16(sp)
  402750:	8f990224 	lw	t9,548(gp)
  402754:	00000000 	nop
  402758:	0320f809 	jalr	t9
  40275c:	00000000 	nop
  402760:	8fbc0018 	lw	gp,24(sp)
  402764:	27a40020 	addiu	a0,sp,32
  402768:	24050100 	li	a1,256
  40276c:	02403021 	move	a2,s2
  402770:	8f99030c 	lw	t9,780(gp)
  402774:	00000000 	nop
  402778:	0320f809 	jalr	t9
  40277c:	00000000 	nop
  402780:	8fbc0018 	lw	gp,24(sp)
  402784:	00000000 	nop
  402788:	8f85000c 	lw	a1,12(gp)
  40278c:	00000000 	nop
  402790:	24a5f1ac 	addiu	a1,a1,-3668
  402794:	1440ffbc 	bnez	v0,402688 <cache_purge+0x1e8>
  402798:	27a40020 	addiu	a0,sp,32
  40279c:	02402021 	move	a0,s2
  4027a0:	8f99015c 	lw	t9,348(gp)
  4027a4:	00000000 	nop
  4027a8:	0320f809 	jalr	t9
  4027ac:	00000000 	nop
  4027b0:	8fbc0018 	lw	gp,24(sp)
  4027b4:	27a40120 	addiu	a0,sp,288
  4027b8:	8f9901bc 	lw	t9,444(gp)
  4027bc:	00000000 	nop
  4027c0:	0320f809 	jalr	t9
  4027c4:	00000000 	nop
  4027c8:	8fbc0018 	lw	gp,24(sp)
  4027cc:	02602021 	move	a0,s3
  4027d0:	8f99015c 	lw	t9,348(gp)
  4027d4:	00000000 	nop
  4027d8:	0320f809 	jalr	t9
  4027dc:	00000000 	nop
  4027e0:	8fbc0018 	lw	gp,24(sp)
  4027e4:	8fbf0540 	lw	ra,1344(sp)
  4027e8:	8fb60538 	lw	s6,1336(sp)
  4027ec:	8fb50534 	lw	s5,1332(sp)
  4027f0:	8fb40530 	lw	s4,1328(sp)
  4027f4:	8fb3052c 	lw	s3,1324(sp)
  4027f8:	8fb20528 	lw	s2,1320(sp)
  4027fc:	8fb10524 	lw	s1,1316(sp)
  402800:	8fb00520 	lw	s0,1312(sp)
  402804:	03e00008 	jr	ra
  402808:	27bd0548 	addiu	sp,sp,1352

0040280c <cache_add_hosts_entries>:
  40280c:	3c1c0001 	lui	gp,0x1
  402810:	279cc254 	addiu	gp,gp,-15788
  402814:	0399e021 	addu	gp,gp,t9
  402818:	27bdfec8 	addiu	sp,sp,-312
  40281c:	afbc0018 	sw	gp,24(sp)
  402820:	afb20128 	sw	s2,296(sp)
  402824:	00809021 	move	s2,a0
  402828:	8f84000c 	lw	a0,12(gp)
  40282c:	00000000 	nop
  402830:	2484f278 	addiu	a0,a0,-3464
  402834:	afbf0130 	sw	ra,304(sp)
  402838:	afb10124 	sw	s1,292(sp)
  40283c:	afbc012c 	sw	gp,300(sp)
  402840:	afb00120 	sw	s0,288(sp)
  402844:	8f9902a0 	lw	t9,672(gp)
  402848:	00000000 	nop
  40284c:	0320f809 	jalr	t9
  402850:	00000000 	nop
  402854:	8fbc0018 	lw	gp,24(sp)
  402858:	00000000 	nop
  40285c:	8f840034 	lw	a0,52(gp)
  402860:	00000000 	nop
  402864:	2484080c 	addiu	a0,a0,2060
  402868:	8f85000c 	lw	a1,12(gp)
  40286c:	00000000 	nop
  402870:	24a5f1a8 	addiu	a1,a1,-3672
  402874:	8f990178 	lw	t9,376(gp)
  402878:	00000000 	nop
  40287c:	0320f809 	jalr	t9
  402880:	00000000 	nop
  402884:	8fbc0018 	lw	gp,24(sp)
  402888:	1440003d 	bnez	v0,402980 <cache_add_hosts_entries+0x174>
  40288c:	00408821 	move	s1,v0
  402890:	8f84000c 	lw	a0,12(gp)
  402894:	00000000 	nop
  402898:	2484f294 	addiu	a0,a0,-3436
  40289c:	8f9900d8 	lw	t9,216(gp)
  4028a0:	00000000 	nop
  4028a4:	0320f809 	jalr	t9
  4028a8:	00000000 	nop
  4028ac:	8fbc0018 	lw	gp,24(sp)
  4028b0:	1000004c 	b	4029e4 <cache_add_hosts_entries+0x1d8>
  4028b4:	00000000 	nop
  4028b8:	8f99007c 	lw	t9,124(gp)
  4028bc:	00000000 	nop
  4028c0:	0320f809 	jalr	t9
  4028c4:	00000000 	nop
  4028c8:	8fbc0018 	lw	gp,24(sp)
  4028cc:	27a40020 	addiu	a0,sp,32
  4028d0:	00441021 	addu	v0,v0,a0
  4028d4:	8f85000c 	lw	a1,12(gp)
  4028d8:	00000000 	nop
  4028dc:	24a5f2b0 	addiu	a1,a1,-3408
  4028e0:	a040ffff 	sb	zero,-1(v0)
  4028e4:	8f9901a4 	lw	t9,420(gp)
  4028e8:	00000000 	nop
  4028ec:	0320f809 	jalr	t9
  4028f0:	00000000 	nop
  4028f4:	8fbc0018 	lw	gp,24(sp)
  4028f8:	10400021 	beqz	v0,402980 <cache_add_hosts_entries+0x174>
  4028fc:	00408021 	move	s0,v0
  402900:	80430000 	lb	v1,0(v0)
  402904:	24020023 	li	v0,35
  402908:	1062001d 	beq	v1,v0,402980 <cache_add_hosts_entries+0x174>
  40290c:	00002021 	move	a0,zero
  402910:	1000000c 	b	402944 <cache_add_hosts_entries+0x138>
  402914:	00000000 	nop
  402918:	80430000 	lb	v1,0(v0)
  40291c:	24020023 	li	v0,35
  402920:	10620017 	beq	v1,v0,402980 <cache_add_hosts_entries+0x174>
  402924:	00000000 	nop
  402928:	afa00010 	sw	zero,16(sp)
  40292c:	8f990224 	lw	t9,548(gp)
  402930:	00000000 	nop
  402934:	0320f809 	jalr	t9
  402938:	00000000 	nop
  40293c:	8fbc0018 	lw	gp,24(sp)
  402940:	00002021 	move	a0,zero
  402944:	8f85000c 	lw	a1,12(gp)
  402948:	00000000 	nop
  40294c:	24a5f2b0 	addiu	a1,a1,-3408
  402950:	8f9901a4 	lw	t9,420(gp)
  402954:	00000000 	nop
  402958:	0320f809 	jalr	t9
  40295c:	00000000 	nop
  402960:	8fbc0018 	lw	gp,24(sp)
  402964:	00403021 	move	a2,v0
  402968:	02402021 	move	a0,s2
  40296c:	8f85000c 	lw	a1,12(gp)
  402970:	00000000 	nop
  402974:	24a5f1e0 	addiu	a1,a1,-3616
  402978:	1440ffe7 	bnez	v0,402918 <cache_add_hosts_entries+0x10c>
  40297c:	02003821 	move	a3,s0
  402980:	27a40020 	addiu	a0,sp,32
  402984:	24050100 	li	a1,256
  402988:	02203021 	move	a2,s1
  40298c:	8f99030c 	lw	t9,780(gp)
  402990:	00000000 	nop
  402994:	0320f809 	jalr	t9
  402998:	00000000 	nop
  40299c:	8fbc0018 	lw	gp,24(sp)
  4029a0:	1440ffc5 	bnez	v0,4028b8 <cache_add_hosts_entries+0xac>
  4029a4:	27a40020 	addiu	a0,sp,32
  4029a8:	02202021 	move	a0,s1
  4029ac:	8f99015c 	lw	t9,348(gp)
  4029b0:	00000000 	nop
  4029b4:	0320f809 	jalr	t9
  4029b8:	00000000 	nop
  4029bc:	8fbc0018 	lw	gp,24(sp)
  4029c0:	00000000 	nop
  4029c4:	8f84000c 	lw	a0,12(gp)
  4029c8:	00000000 	nop
  4029cc:	2484f2b4 	addiu	a0,a0,-3404
  4029d0:	8f9902a0 	lw	t9,672(gp)
  4029d4:	00000000 	nop
  4029d8:	0320f809 	jalr	t9
  4029dc:	00000000 	nop
  4029e0:	8fbc0018 	lw	gp,24(sp)
  4029e4:	8fbf0130 	lw	ra,304(sp)
  4029e8:	8fb20128 	lw	s2,296(sp)
  4029ec:	8fb10124 	lw	s1,292(sp)
  4029f0:	8fb00120 	lw	s0,288(sp)
  4029f4:	03e00008 	jr	ra
  4029f8:	27bd0138 	addiu	sp,sp,312
  4029fc:	00000000 	nop

00402a00 <conf_load>:
  402a00:	3c1c0001 	lui	gp,0x1
  402a04:	279cc060 	addiu	gp,gp,-16288
  402a08:	0399e021 	addu	gp,gp,t9
  402a0c:	27bdfed8 	addiu	sp,sp,-296
  402a10:	afbc0010 	sw	gp,16(sp)
  402a14:	8f82034c 	lw	v0,844(gp)
  402a18:	afb00118 	sw	s0,280(sp)
  402a1c:	00808021 	move	s0,a0
  402a20:	afbf0124 	sw	ra,292(sp)
  402a24:	afb1011c 	sw	s1,284(sp)
  402a28:	8f8101e8 	lw	at,488(gp)
  402a2c:	00000000 	nop
  402a30:	ac220000 	sw	v0,0(at)
  402a34:	afbc0120 	sw	gp,288(sp)
  402a38:	8f8101e8 	lw	at,488(gp)
  402a3c:	00000000 	nop
  402a40:	ac200004 	sw	zero,4(at)
  402a44:	8f9901b8 	lw	t9,440(gp)
  402a48:	00000000 	nop
  402a4c:	0320f809 	jalr	t9
  402a50:	00000000 	nop
  402a54:	8fbc0010 	lw	gp,16(sp)
  402a58:	02002021 	move	a0,s0
  402a5c:	8f85000c 	lw	a1,12(gp)
  402a60:	00000000 	nop
  402a64:	24a5f5c8 	addiu	a1,a1,-2616
  402a68:	8f990178 	lw	t9,376(gp)
  402a6c:	00000000 	nop
  402a70:	0320f809 	jalr	t9
  402a74:	00000000 	nop
  402a78:	8fbc0010 	lw	gp,16(sp)
  402a7c:	14400018 	bnez	v0,402ae0 <conf_load+0xe0>
  402a80:	00408821 	move	s1,v0
  402a84:	8f840034 	lw	a0,52(gp)
  402a88:	00000000 	nop
  402a8c:	2484050c 	addiu	a0,a0,1292
  402a90:	8f85000c 	lw	a1,12(gp)
  402a94:	00000000 	nop
  402a98:	24a5f5c8 	addiu	a1,a1,-2616
  402a9c:	8f990178 	lw	t9,376(gp)
  402aa0:	00000000 	nop
  402aa4:	0320f809 	jalr	t9
  402aa8:	00000000 	nop
  402aac:	8fbc0010 	lw	gp,16(sp)
  402ab0:	1440003b 	bnez	v0,402ba0 <conf_load+0x1a0>
  402ab4:	00408821 	move	s1,v0
  402ab8:	8f84000c 	lw	a0,12(gp)
  402abc:	00000000 	nop
  402ac0:	2484f5cc 	addiu	a0,a0,-2612
  402ac4:	8f9902f0 	lw	t9,752(gp)
  402ac8:	00000000 	nop
  402acc:	0320f809 	jalr	t9
  402ad0:	00000000 	nop
  402ad4:	8fbc0010 	lw	gp,16(sp)
  402ad8:	10000041 	b	402be0 <conf_load+0x1e0>
  402adc:	00000000 	nop
  402ae0:	02002821 	move	a1,s0
  402ae4:	8f840034 	lw	a0,52(gp)
  402ae8:	00000000 	nop
  402aec:	2484050c 	addiu	a0,a0,1292
  402af0:	8f990380 	lw	t9,896(gp)
  402af4:	00000000 	nop
  402af8:	0320f809 	jalr	t9
  402afc:	00000000 	nop
  402b00:	8fbc0010 	lw	gp,16(sp)
  402b04:	10000027 	b	402ba4 <conf_load+0x1a4>
  402b08:	27a40018 	addiu	a0,sp,24
  402b0c:	83a30018 	lb	v1,24(sp)
  402b10:	24020023 	li	v0,35
  402b14:	10620022 	beq	v1,v0,402ba0 <conf_load+0x1a0>
  402b18:	00000000 	nop
  402b1c:	8f99007c 	lw	t9,124(gp)
  402b20:	00000000 	nop
  402b24:	0320f809 	jalr	t9
  402b28:	00000000 	nop
  402b2c:	8fbc0010 	lw	gp,16(sp)
  402b30:	27a40018 	addiu	a0,sp,24
  402b34:	00441021 	addu	v0,v0,a0
  402b38:	8f85000c 	lw	a1,12(gp)
  402b3c:	00000000 	nop
  402b40:	24a5f5dc 	addiu	a1,a1,-2596
  402b44:	a040ffff 	sb	zero,-1(v0)
  402b48:	8f9901a4 	lw	t9,420(gp)
  402b4c:	00000000 	nop
  402b50:	0320f809 	jalr	t9
  402b54:	00000000 	nop
  402b58:	8fbc0010 	lw	gp,16(sp)
  402b5c:	00002021 	move	a0,zero
  402b60:	8f85000c 	lw	a1,12(gp)
  402b64:	00000000 	nop
  402b68:	24a5f5dc 	addiu	a1,a1,-2596
  402b6c:	00408021 	move	s0,v0
  402b70:	8f9901a4 	lw	t9,420(gp)
  402b74:	00000000 	nop
  402b78:	0320f809 	jalr	t9
  402b7c:	00000000 	nop
  402b80:	8fbc0010 	lw	gp,16(sp)
  402b84:	00402821 	move	a1,v0
  402b88:	02002021 	move	a0,s0
  402b8c:	8f9900a4 	lw	t9,164(gp)
  402b90:	00000000 	nop
  402b94:	0320f809 	jalr	t9
  402b98:	00000000 	nop
  402b9c:	8fbc0010 	lw	gp,16(sp)
  402ba0:	27a40018 	addiu	a0,sp,24
  402ba4:	02203021 	move	a2,s1
  402ba8:	24050100 	li	a1,256
  402bac:	8f99030c 	lw	t9,780(gp)
  402bb0:	00000000 	nop
  402bb4:	0320f809 	jalr	t9
  402bb8:	00000000 	nop
  402bbc:	8fbc0010 	lw	gp,16(sp)
  402bc0:	1440ffd2 	bnez	v0,402b0c <conf_load+0x10c>
  402bc4:	27a40018 	addiu	a0,sp,24
  402bc8:	02202021 	move	a0,s1
  402bcc:	8f99015c 	lw	t9,348(gp)
  402bd0:	00000000 	nop
  402bd4:	0320f809 	jalr	t9
  402bd8:	00000000 	nop
  402bdc:	8fbc0010 	lw	gp,16(sp)
  402be0:	8fbf0124 	lw	ra,292(sp)
  402be4:	8fb1011c 	lw	s1,284(sp)
  402be8:	8fb00118 	lw	s0,280(sp)
  402bec:	00001021 	move	v0,zero
  402bf0:	03e00008 	jr	ra
  402bf4:	27bd0128 	addiu	sp,sp,296

00402bf8 <conf_cmdparse>:
  402bf8:	3c1c0001 	lui	gp,0x1
  402bfc:	279cbe68 	addiu	gp,gp,-16792
  402c00:	0399e021 	addu	gp,gp,t9
  402c04:	27bdffc8 	addiu	sp,sp,-56
  402c08:	afbc0010 	sw	gp,16(sp)
  402c0c:	afb40028 	sw	s4,40(sp)
  402c10:	afb30024 	sw	s3,36(sp)
  402c14:	afb20020 	sw	s2,32(sp)
  402c18:	afb1001c 	sw	s1,28(sp)
  402c1c:	afbf0030 	sw	ra,48(sp)
  402c20:	afbc002c 	sw	gp,44(sp)
  402c24:	afb00018 	sw	s0,24(sp)
  402c28:	00809821 	move	s3,a0
  402c2c:	00a0a021 	move	s4,a1
  402c30:	00009021 	move	s2,zero
  402c34:	10800040 	beqz	a0,402d38 <conf_cmdparse+0x140>
  402c38:	24110001 	li	s1,1
  402c3c:	10a0003e 	beqz	a1,402d38 <conf_cmdparse+0x140>
  402c40:	00000000 	nop
  402c44:	8f8501e8 	lw	a1,488(gp)
  402c48:	00000000 	nop
  402c4c:	8ca50000 	lw	a1,0(a1)
  402c50:	00000000 	nop
  402c54:	8ca20000 	lw	v0,0(a1)
  402c58:	00000000 	nop
  402c5c:	1040002a 	beqz	v0,402d08 <conf_cmdparse+0x110>
  402c60:	00a08021 	move	s0,a1
  402c64:	8e050000 	lw	a1,0(s0)
  402c68:	02602021 	move	a0,s3
  402c6c:	24060132 	li	a2,306
  402c70:	8f990280 	lw	t9,640(gp)
  402c74:	00000000 	nop
  402c78:	0320f809 	jalr	t9
  402c7c:	00000000 	nop
  402c80:	8fbc0010 	lw	gp,16(sp)
  402c84:	02518804 	sllv	s1,s1,s2
  402c88:	1440001a 	bnez	v0,402cf4 <conf_cmdparse+0xfc>
  402c8c:	26520001 	addiu	s2,s2,1
  402c90:	8f8201e8 	lw	v0,488(gp)
  402c94:	00000000 	nop
  402c98:	8c420004 	lw	v0,4(v0)
  402c9c:	00000000 	nop
  402ca0:	00511024 	and	v0,v0,s1
  402ca4:	14400014 	bnez	v0,402cf8 <conf_cmdparse+0x100>
  402ca8:	2610001c 	addiu	s0,s0,28
  402cac:	2610ffe4 	addiu	s0,s0,-28
  402cb0:	8e020014 	lw	v0,20(s0)
  402cb4:	8e050008 	lw	a1,8(s0)
  402cb8:	02802021 	move	a0,s4
  402cbc:	0040c821 	move	t9,v0
  402cc0:	0320f809 	jalr	t9
  402cc4:	00000000 	nop
  402cc8:	8fbc0010 	lw	gp,16(sp)
  402ccc:	00000000 	nop
  402cd0:	8f8201e8 	lw	v0,488(gp)
  402cd4:	00000000 	nop
  402cd8:	8c420004 	lw	v0,4(v0)
  402cdc:	00000000 	nop
  402ce0:	00511025 	or	v0,v0,s1
  402ce4:	8f8101e8 	lw	at,488(gp)
  402ce8:	00000000 	nop
  402cec:	10000012 	b	402d38 <conf_cmdparse+0x140>
  402cf0:	ac220004 	sw	v0,4(at)
  402cf4:	2610001c 	addiu	s0,s0,28
  402cf8:	8e020000 	lw	v0,0(s0)
  402cfc:	00000000 	nop
  402d00:	1440ffd8 	bnez	v0,402c64 <conf_cmdparse+0x6c>
  402d04:	00000000 	nop
  402d08:	8f840110 	lw	a0,272(gp)
  402d0c:	00000000 	nop
  402d10:	8c840000 	lw	a0,0(a0)
  402d14:	02603021 	move	a2,s3
  402d18:	8f85000c 	lw	a1,12(gp)
  402d1c:	00000000 	nop
  402d20:	24a5f5e0 	addiu	a1,a1,-2592
  402d24:	8f990224 	lw	t9,548(gp)
  402d28:	00000000 	nop
  402d2c:	0320f809 	jalr	t9
  402d30:	00000000 	nop
  402d34:	8fbc0010 	lw	gp,16(sp)
  402d38:	8fbf0030 	lw	ra,48(sp)
  402d3c:	8fb40028 	lw	s4,40(sp)
  402d40:	8fb30024 	lw	s3,36(sp)
  402d44:	8fb20020 	lw	s2,32(sp)
  402d48:	8fb1001c 	lw	s1,28(sp)
  402d4c:	8fb00018 	lw	s0,24(sp)
  402d50:	03e00008 	jr	ra
  402d54:	27bd0038 	addiu	sp,sp,56
  402d58:	3c1c0001 	lui	gp,0x1
  402d5c:	279cbd08 	addiu	gp,gp,-17144
  402d60:	0399e021 	addu	gp,gp,t9
  402d64:	27bdffd8 	addiu	sp,sp,-40
  402d68:	afbc0010 	sw	gp,16(sp)
  402d6c:	afb1001c 	sw	s1,28(sp)
  402d70:	afb00018 	sw	s0,24(sp)
  402d74:	afbf0024 	sw	ra,36(sp)
  402d78:	afbc0020 	sw	gp,32(sp)
  402d7c:	00a08821 	move	s1,a1
  402d80:	24060002 	li	a2,2
  402d84:	8f85000c 	lw	a1,12(gp)
  402d88:	00000000 	nop
  402d8c:	24a5f5fc 	addiu	a1,a1,-2564
  402d90:	00808021 	move	s0,a0
  402d94:	8f9901a0 	lw	t9,416(gp)
  402d98:	00000000 	nop
  402d9c:	0320f809 	jalr	t9
  402da0:	00000000 	nop
  402da4:	8fbc0010 	lw	gp,16(sp)
  402da8:	00000000 	nop
  402dac:	8f85000c 	lw	a1,12(gp)
  402db0:	00000000 	nop
  402db4:	24a5f600 	addiu	a1,a1,-2560
  402db8:	10400013 	beqz	v0,402e08 <conf_cmdparse+0x210>
  402dbc:	02002021 	move	a0,s0
  402dc0:	8f9901b4 	lw	t9,436(gp)
  402dc4:	00000000 	nop
  402dc8:	0320f809 	jalr	t9
  402dcc:	00000000 	nop
  402dd0:	8fbc0010 	lw	gp,16(sp)
  402dd4:	00000000 	nop
  402dd8:	8f85000c 	lw	a1,12(gp)
  402ddc:	00000000 	nop
  402de0:	24a5f604 	addiu	a1,a1,-2556
  402de4:	10400008 	beqz	v0,402e08 <conf_cmdparse+0x210>
  402de8:	02002021 	move	a0,s0
  402dec:	8f9901b4 	lw	t9,436(gp)
  402df0:	00000000 	nop
  402df4:	0320f809 	jalr	t9
  402df8:	00000000 	nop
  402dfc:	8fbc0010 	lw	gp,16(sp)
  402e00:	14400004 	bnez	v0,402e14 <conf_cmdparse+0x21c>
  402e04:	00000000 	nop
  402e08:	24020001 	li	v0,1
  402e0c:	10000002 	b	402e18 <conf_cmdparse+0x220>
  402e10:	ae220000 	sw	v0,0(s1)
  402e14:	ae200000 	sw	zero,0(s1)
  402e18:	8fbf0024 	lw	ra,36(sp)
  402e1c:	8fb1001c 	lw	s1,28(sp)
  402e20:	8fb00018 	lw	s0,24(sp)
  402e24:	03e00008 	jr	ra
  402e28:	27bd0028 	addiu	sp,sp,40
  402e2c:	3c1c0001 	lui	gp,0x1
  402e30:	279cbc34 	addiu	gp,gp,-17356
  402e34:	0399e021 	addu	gp,gp,t9
  402e38:	27bdffd8 	addiu	sp,sp,-40
  402e3c:	afbc0010 	sw	gp,16(sp)
  402e40:	afbf0020 	sw	ra,32(sp)
  402e44:	afb00018 	sw	s0,24(sp)
  402e48:	afbc001c 	sw	gp,28(sp)
  402e4c:	00a08021 	move	s0,a1
  402e50:	8f990094 	lw	t9,148(gp)
  402e54:	00000000 	nop
  402e58:	0320f809 	jalr	t9
  402e5c:	00000000 	nop
  402e60:	8fbc0010 	lw	gp,16(sp)
  402e64:	ae020000 	sw	v0,0(s0)
  402e68:	8fbf0020 	lw	ra,32(sp)
  402e6c:	8fb00018 	lw	s0,24(sp)
  402e70:	03e00008 	jr	ra
  402e74:	27bd0028 	addiu	sp,sp,40
  402e78:	3c1c0001 	lui	gp,0x1
  402e7c:	279cbbe8 	addiu	gp,gp,-17432
  402e80:	0399e021 	addu	gp,gp,t9
  402e84:	27bdffe0 	addiu	sp,sp,-32
  402e88:	afbc0010 	sw	gp,16(sp)
  402e8c:	00801021 	move	v0,a0
  402e90:	24060100 	li	a2,256
  402e94:	00a02021 	move	a0,a1
  402e98:	00402821 	move	a1,v0
  402e9c:	afbf001c 	sw	ra,28(sp)
  402ea0:	afbc0018 	sw	gp,24(sp)
  402ea4:	8f9901c0 	lw	t9,448(gp)
  402ea8:	00000000 	nop
  402eac:	0320f809 	jalr	t9
  402eb0:	00000000 	nop
  402eb4:	8fbc0010 	lw	gp,16(sp)
  402eb8:	8fbf001c 	lw	ra,28(sp)
  402ebc:	00000000 	nop
  402ec0:	03e00008 	jr	ra
  402ec4:	27bd0020 	addiu	sp,sp,32
  402ec8:	3c1c0001 	lui	gp,0x1
  402ecc:	279cbb98 	addiu	gp,gp,-17512
  402ed0:	0399e021 	addu	gp,gp,t9
  402ed4:	8c820000 	lw	v0,0(a0)
  402ed8:	03e00008 	jr	ra
  402edc:	aca20000 	sw	v0,0(a1)
  402ee0:	3c1c0001 	lui	gp,0x1
  402ee4:	279cbb80 	addiu	gp,gp,-17536
  402ee8:	0399e021 	addu	gp,gp,t9
  402eec:	27bdffe0 	addiu	sp,sp,-32
  402ef0:	afbc0010 	sw	gp,16(sp)
  402ef4:	afbf001c 	sw	ra,28(sp)
  402ef8:	afbc0018 	sw	gp,24(sp)
  402efc:	8ca20000 	lw	v0,0(a1)
  402f00:	00801821 	move	v1,a0
  402f04:	00802821 	move	a1,a0
  402f08:	8f84000c 	lw	a0,12(gp)
  402f0c:	00000000 	nop
  402f10:	2484f600 	addiu	a0,a0,-2560
  402f14:	14400005 	bnez	v0,402f2c <conf_cmdparse+0x334>
  402f18:	00000000 	nop
  402f1c:	00602821 	move	a1,v1
  402f20:	8f84000c 	lw	a0,12(gp)
  402f24:	00000000 	nop
  402f28:	2484f608 	addiu	a0,a0,-2552
  402f2c:	8f990060 	lw	t9,96(gp)
  402f30:	00000000 	nop
  402f34:	0320f809 	jalr	t9
  402f38:	00000000 	nop
  402f3c:	8fbc0010 	lw	gp,16(sp)
  402f40:	8fbf001c 	lw	ra,28(sp)
  402f44:	00000000 	nop
  402f48:	03e00008 	jr	ra
  402f4c:	27bd0020 	addiu	sp,sp,32
  402f50:	3c1c0001 	lui	gp,0x1
  402f54:	279cbb10 	addiu	gp,gp,-17648
  402f58:	0399e021 	addu	gp,gp,t9
  402f5c:	27bdffe0 	addiu	sp,sp,-32
  402f60:	afbc0010 	sw	gp,16(sp)
  402f64:	afbf001c 	sw	ra,28(sp)
  402f68:	afbc0018 	sw	gp,24(sp)
  402f6c:	8ca60000 	lw	a2,0(a1)
  402f70:	8f85000c 	lw	a1,12(gp)
  402f74:	00000000 	nop
  402f78:	24a5f60c 	addiu	a1,a1,-2548
  402f7c:	8f990224 	lw	t9,548(gp)
  402f80:	00000000 	nop
  402f84:	0320f809 	jalr	t9
  402f88:	00000000 	nop
  402f8c:	8fbc0010 	lw	gp,16(sp)
  402f90:	8fbf001c 	lw	ra,28(sp)
  402f94:	00000000 	nop
  402f98:	03e00008 	jr	ra
  402f9c:	27bd0020 	addiu	sp,sp,32
  402fa0:	3c1c0001 	lui	gp,0x1
  402fa4:	279cbac0 	addiu	gp,gp,-17728
  402fa8:	0399e021 	addu	gp,gp,t9
  402fac:	27bdffe0 	addiu	sp,sp,-32
  402fb0:	afbc0010 	sw	gp,16(sp)
  402fb4:	00801021 	move	v0,a0
  402fb8:	00a02021 	move	a0,a1
  402fbc:	00402821 	move	a1,v0
  402fc0:	afbf001c 	sw	ra,28(sp)
  402fc4:	afbc0018 	sw	gp,24(sp)
  402fc8:	8f990060 	lw	t9,96(gp)
  402fcc:	00000000 	nop
  402fd0:	0320f809 	jalr	t9
  402fd4:	00000000 	nop
  402fd8:	8fbc0010 	lw	gp,16(sp)
  402fdc:	8fbf001c 	lw	ra,28(sp)
  402fe0:	00000000 	nop
  402fe4:	03e00008 	jr	ra
  402fe8:	27bd0020 	addiu	sp,sp,32

00402fec <conf_print>:
  402fec:	3c1c0001 	lui	gp,0x1
  402ff0:	279cba74 	addiu	gp,gp,-17804
  402ff4:	0399e021 	addu	gp,gp,t9
  402ff8:	27bdffd8 	addiu	sp,sp,-40
  402ffc:	afbc0010 	sw	gp,16(sp)
  403000:	8f82034c 	lw	v0,844(gp)
  403004:	00000000 	nop
  403008:	8c420000 	lw	v0,0(v0)
  40300c:	afb00018 	sw	s0,24(sp)
  403010:	afbf0024 	sw	ra,36(sp)
  403014:	afbc0020 	sw	gp,32(sp)
  403018:	afb1001c 	sw	s1,28(sp)
  40301c:	8f900368 	lw	s0,872(gp)
  403020:	00000000 	nop
  403024:	8e100000 	lw	s0,0(s0)
  403028:	10400057 	beqz	v0,403188 <conf_print+0x19c>
  40302c:	00000000 	nop
  403030:	8f91034c 	lw	s1,844(gp)
  403034:	00000000 	nop
  403038:	8e260000 	lw	a2,0(s1)
  40303c:	8f85000c 	lw	a1,12(gp)
  403040:	00000000 	nop
  403044:	24a5f610 	addiu	a1,a1,-2544
  403048:	02002021 	move	a0,s0
  40304c:	8f990224 	lw	t9,548(gp)
  403050:	00000000 	nop
  403054:	0320f809 	jalr	t9
  403058:	00000000 	nop
  40305c:	8fbc0010 	lw	gp,16(sp)
  403060:	8e250004 	lw	a1,4(s1)
  403064:	02002021 	move	a0,s0
  403068:	8f990224 	lw	t9,548(gp)
  40306c:	00000000 	nop
  403070:	0320f809 	jalr	t9
  403074:	00000000 	nop
  403078:	8fbc0010 	lw	gp,16(sp)
  40307c:	00000000 	nop
  403080:	8f84000c 	lw	a0,12(gp)
  403084:	00000000 	nop
  403088:	2484f620 	addiu	a0,a0,-2528
  40308c:	02002821 	move	a1,s0
  403090:	8f990060 	lw	t9,96(gp)
  403094:	00000000 	nop
  403098:	0320f809 	jalr	t9
  40309c:	00000000 	nop
  4030a0:	8fbc0010 	lw	gp,16(sp)
  4030a4:	00000000 	nop
  4030a8:	8f84000c 	lw	a0,12(gp)
  4030ac:	00000000 	nop
  4030b0:	2484f624 	addiu	a0,a0,-2524
  4030b4:	02002821 	move	a1,s0
  4030b8:	8f990060 	lw	t9,96(gp)
  4030bc:	00000000 	nop
  4030c0:	0320f809 	jalr	t9
  4030c4:	00000000 	nop
  4030c8:	8fbc0010 	lw	gp,16(sp)
  4030cc:	8e25000c 	lw	a1,12(s1)
  4030d0:	8e220018 	lw	v0,24(s1)
  4030d4:	02002021 	move	a0,s0
  4030d8:	0040c821 	move	t9,v0
  4030dc:	0320f809 	jalr	t9
  4030e0:	00000000 	nop
  4030e4:	8fbc0010 	lw	gp,16(sp)
  4030e8:	02002821 	move	a1,s0
  4030ec:	8f84000c 	lw	a0,12(gp)
  4030f0:	00000000 	nop
  4030f4:	2484f634 	addiu	a0,a0,-2508
  4030f8:	8f990060 	lw	t9,96(gp)
  4030fc:	00000000 	nop
  403100:	0320f809 	jalr	t9
  403104:	00000000 	nop
  403108:	8fbc0010 	lw	gp,16(sp)
  40310c:	8e260000 	lw	a2,0(s1)
  403110:	02002021 	move	a0,s0
  403114:	8f85000c 	lw	a1,12(gp)
  403118:	00000000 	nop
  40311c:	24a5f638 	addiu	a1,a1,-2504
  403120:	8f990224 	lw	t9,548(gp)
  403124:	00000000 	nop
  403128:	0320f809 	jalr	t9
  40312c:	00000000 	nop
  403130:	8fbc0010 	lw	gp,16(sp)
  403134:	8e250008 	lw	a1,8(s1)
  403138:	8e220018 	lw	v0,24(s1)
  40313c:	02002021 	move	a0,s0
  403140:	0040c821 	move	t9,v0
  403144:	0320f809 	jalr	t9
  403148:	00000000 	nop
  40314c:	8fbc0010 	lw	gp,16(sp)
  403150:	2631001c 	addiu	s1,s1,28
  403154:	8f84000c 	lw	a0,12(gp)
  403158:	00000000 	nop
  40315c:	2484f640 	addiu	a0,a0,-2496
  403160:	02002821 	move	a1,s0
  403164:	8f990060 	lw	t9,96(gp)
  403168:	00000000 	nop
  40316c:	0320f809 	jalr	t9
  403170:	00000000 	nop
  403174:	8fbc0010 	lw	gp,16(sp)
  403178:	8e220000 	lw	v0,0(s1)
  40317c:	00000000 	nop
  403180:	1440ffad 	bnez	v0,403038 <conf_print+0x4c>
  403184:	00000000 	nop
  403188:	8fbf0024 	lw	ra,36(sp)
  40318c:	8fb1001c 	lw	s1,28(sp)
  403190:	8fb00018 	lw	s0,24(sp)
  403194:	03e00008 	jr	ra
  403198:	27bd0028 	addiu	sp,sp,40

0040319c <conf_defaults>:
  40319c:	3c1c0001 	lui	gp,0x1
  4031a0:	279cb8c4 	addiu	gp,gp,-18236
  4031a4:	0399e021 	addu	gp,gp,t9
  4031a8:	27bdffd8 	addiu	sp,sp,-40
  4031ac:	afbc0010 	sw	gp,16(sp)
  4031b0:	8f82034c 	lw	v0,844(gp)
  4031b4:	00000000 	nop
  4031b8:	8c420000 	lw	v0,0(v0)
  4031bc:	afbf0020 	sw	ra,32(sp)
  4031c0:	afbc001c 	sw	gp,28(sp)
  4031c4:	1040000f 	beqz	v0,403204 <conf_defaults+0x68>
  4031c8:	afb00018 	sw	s0,24(sp)
  4031cc:	8f90034c 	lw	s0,844(gp)
  4031d0:	00000000 	nop
  4031d4:	8e020010 	lw	v0,16(s0)
  4031d8:	8e04000c 	lw	a0,12(s0)
  4031dc:	8e050008 	lw	a1,8(s0)
  4031e0:	2610001c 	addiu	s0,s0,28
  4031e4:	0040c821 	move	t9,v0
  4031e8:	0320f809 	jalr	t9
  4031ec:	00000000 	nop
  4031f0:	8fbc0010 	lw	gp,16(sp)
  4031f4:	8e020000 	lw	v0,0(s0)
  4031f8:	00000000 	nop
  4031fc:	1440fff5 	bnez	v0,4031d4 <conf_defaults+0x38>
  403200:	00000000 	nop
  403204:	8fbf0020 	lw	ra,32(sp)
  403208:	8fb00018 	lw	s0,24(sp)
  40320c:	8f830034 	lw	v1,52(gp)
  403210:	00000000 	nop
  403214:	24630500 	addiu	v1,v1,1280
  403218:	24020001 	li	v0,1
  40321c:	8f810034 	lw	at,52(gp)
  403220:	00000000 	nop
  403224:	ac220500 	sw	v0,1280(at)
  403228:	a060060c 	sb	zero,1548(v1)
  40322c:	a060050c 	sb	zero,1292(v1)
  403230:	03e00008 	jr	ra
  403234:	27bd0028 	addiu	sp,sp,40
	...

00403240 <dns_construct_name>:
  403240:	3c1c0001 	lui	gp,0x1
  403244:	279cb820 	addiu	gp,gp,-18400
  403248:	0399e021 	addu	gp,gp,t9
  40324c:	80820000 	lb	v0,0(a0)
  403250:	00004021 	move	t0,zero
  403254:	10400029 	beqz	v0,4032fc <dns_construct_name+0xbc>
  403258:	00005021 	move	t2,zero
  40325c:	008a3021 	addu	a2,a0,t2
  403260:	80c30000 	lb	v1,0(a2)
  403264:	00000000 	nop
  403268:	1060000c 	beqz	v1,40329c <dns_construct_name+0x5c>
  40326c:	00004821 	move	t1,zero
  403270:	2402002e 	li	v0,46
  403274:	10620009 	beq	v1,v0,40329c <dns_construct_name+0x5c>
  403278:	00c01821 	move	v1,a2
  40327c:	24630001 	addiu	v1,v1,1
  403280:	80660000 	lb	a2,0(v1)
  403284:	00000000 	nop
  403288:	10c00004 	beqz	a2,40329c <dns_construct_name+0x5c>
  40328c:	25290001 	addiu	t1,t1,1
  403290:	2402002e 	li	v0,46
  403294:	14c2fffa 	bne	a2,v0,403280 <dns_construct_name+0x40>
  403298:	24630001 	addiu	v1,v1,1
  40329c:	00a81021 	addu	v0,a1,t0
  4032a0:	a0490000 	sb	t1,0(v0)
  4032a4:	1920000a 	blez	t1,4032d0 <dns_construct_name+0x90>
  4032a8:	25080001 	addiu	t0,t0,1
  4032ac:	01443821 	addu	a3,t2,a0
  4032b0:	01203021 	move	a2,t1
  4032b4:	90e30000 	lbu	v1,0(a3)
  4032b8:	00a81021 	addu	v0,a1,t0
  4032bc:	24c6ffff 	addiu	a2,a2,-1
  4032c0:	a0430000 	sb	v1,0(v0)
  4032c4:	25080001 	addiu	t0,t0,1
  4032c8:	14c0fffa 	bnez	a2,4032b4 <dns_construct_name+0x74>
  4032cc:	24e70001 	addiu	a3,a3,1
  4032d0:	01491021 	addu	v0,t2,t1
  4032d4:	244a0001 	addiu	t2,v0,1
  4032d8:	008a1821 	addu	v1,a0,t2
  4032dc:	8062ffff 	lb	v0,-1(v1)
  4032e0:	00000000 	nop
  4032e4:	10400006 	beqz	v0,403300 <dns_construct_name+0xc0>
  4032e8:	00a81021 	addu	v0,a1,t0
  4032ec:	80620000 	lb	v0,0(v1)
  4032f0:	00000000 	nop
  4032f4:	1440ffd9 	bnez	v0,40325c <dns_construct_name+0x1c>
  4032f8:	00000000 	nop
  4032fc:	00a81021 	addu	v0,a1,t0
  403300:	25080001 	addiu	t0,t0,1
  403304:	a0400000 	sb	zero,0(v0)
  403308:	03e00008 	jr	ra
  40330c:	01001021 	move	v0,t0

00403310 <dns_construct_header>:
  403310:	3c1c0001 	lui	gp,0x1
  403314:	279cb750 	addiu	gp,gp,-18608
  403318:	0399e021 	addu	gp,gp,t9
  40331c:	9482012a 	lhu	v0,298(a0)
  403320:	94830120 	lhu	v1,288(a0)
  403324:	94850122 	lhu	a1,290(a0)
  403328:	94860124 	lhu	a2,292(a0)
  40332c:	94870126 	lhu	a3,294(a0)
  403330:	94880128 	lhu	t0,296(a0)
  403334:	a48215b6 	sh	v0,5558(a0)
  403338:	00001021 	move	v0,zero
  40333c:	a48315ac 	sh	v1,5548(a0)
  403340:	a48515ae 	sh	a1,5550(a0)
  403344:	a48615b0 	sh	a2,5552(a0)
  403348:	a48715b2 	sh	a3,5554(a0)
  40334c:	03e00008 	jr	ra
  403350:	a48815b4 	sh	t0,5556(a0)

00403354 <dns_construct_reply>:
  403354:	3c1c0001 	lui	gp,0x1
  403358:	279cb70c 	addiu	gp,gp,-18676
  40335c:	0399e021 	addu	gp,gp,t9
  403360:	27bdffd0 	addiu	sp,sp,-48
  403364:	afbc0010 	sw	gp,16(sp)
  403368:	afb10024 	sw	s1,36(sp)
  40336c:	afb00020 	sw	s0,32(sp)
  403370:	afbf002c 	sw	ra,44(sp)
  403374:	afbc0028 	sw	gp,40(sp)
  403378:	8c8217ac 	lw	v0,6060(a0)
  40337c:	8c830120 	lw	v1,288(a0)
  403380:	00821021 	addu	v0,a0,v0
  403384:	244215ac 	addiu	v0,v0,5548
  403388:	ac8217b0 	sw	v0,6064(a0)
  40338c:	34638000 	ori	v1,v1,0x8000
  403390:	24020001 	li	v0,1
  403394:	00808021 	move	s0,a0
  403398:	a4820126 	sh	v0,294(a0)
  40339c:	ac830120 	sw	v1,288(a0)
  4033a0:	8f99036c 	lw	t9,876(gp)
  4033a4:	00000000 	nop
  4033a8:	0320f809 	jalr	t9
  4033ac:	00000000 	nop
  4033b0:	8fbc0010 	lw	gp,16(sp)
  4033b4:	9608022c 	lhu	t0,556(s0)
  4033b8:	24110001 	li	s1,1
  4033bc:	26040100 	addiu	a0,s0,256
  4033c0:	15110024 	bne	t0,s1,403454 <dns_construct_reply+0x100>
  4033c4:	27a50018 	addiu	a1,sp,24
  4033c8:	8f990184 	lw	t9,388(gp)
  4033cc:	00000000 	nop
  4033d0:	0320f809 	jalr	t9
  4033d4:	00000000 	nop
  4033d8:	8fbc0010 	lw	gp,16(sp)
  4033dc:	8e0217ac 	lw	v0,6060(s0)
  4033e0:	8e0317b0 	lw	v1,6064(s0)
  4033e4:	24420006 	addiu	v0,v0,6
  4033e8:	ae0217ac 	sw	v0,6060(s0)
  4033ec:	24022710 	li	v0,10000
  4033f0:	ac620006 	sw	v0,6(v1)
  4033f4:	8e0217ac 	lw	v0,6060(s0)
  4033f8:	2464000c 	addiu	a0,v1,12
  4033fc:	24420006 	addiu	v0,v0,6
  403400:	ae0217ac 	sw	v0,6060(s0)
  403404:	2402c00c 	li	v0,-16372
  403408:	a4620000 	sh	v0,0(v1)
  40340c:	24020004 	li	v0,4
  403410:	a462000a 	sh	v0,10(v1)
  403414:	ae0417b0 	sw	a0,6064(s0)
  403418:	a4710004 	sh	s1,4(v1)
  40341c:	a4710002 	sh	s1,2(v1)
  403420:	83a20018 	lb	v0,24(sp)
  403424:	83a40019 	lb	a0,25(sp)
  403428:	83a5001a 	lb	a1,26(sp)
  40342c:	83a6001b 	lb	a2,27(sp)
  403430:	a062000c 	sb	v0,12(v1)
  403434:	a064000d 	sb	a0,13(v1)
  403438:	a065000e 	sb	a1,14(v1)
  40343c:	a066000f 	sb	a2,15(v1)
  403440:	8e0217ac 	lw	v0,6060(s0)
  403444:	00000000 	nop
  403448:	24420004 	addiu	v0,v0,4
  40344c:	10000021 	b	4034d4 <dns_construct_reply+0x180>
  403450:	ae0217ac 	sw	v0,6060(s0)
  403454:	2402000c 	li	v0,12
  403458:	1502001e 	bne	t0,v0,4034d4 <dns_construct_reply+0x180>
  40345c:	02002021 	move	a0,s0
  403460:	8e0217ac 	lw	v0,6060(s0)
  403464:	8e0617b0 	lw	a2,6064(s0)
  403468:	24420006 	addiu	v0,v0,6
  40346c:	ae0217ac 	sw	v0,6060(s0)
  403470:	24022710 	li	v0,10000
  403474:	acc20006 	sw	v0,6(a2)
  403478:	8e0317ac 	lw	v1,6060(s0)
  40347c:	24c7000a 	addiu	a3,a2,10
  403480:	24630004 	addiu	v1,v1,4
  403484:	2402c00c 	li	v0,-16372
  403488:	24c5000c 	addiu	a1,a2,12
  40348c:	ae0317ac 	sw	v1,6060(s0)
  403490:	a4c20000 	sh	v0,0(a2)
  403494:	a4c80002 	sh	t0,2(a2)
  403498:	a4d10004 	sh	s1,4(a2)
  40349c:	ae0717b0 	sw	a3,6064(s0)
  4034a0:	8f990204 	lw	t9,516(gp)
  4034a4:	00000000 	nop
  4034a8:	0320f809 	jalr	t9
  4034ac:	00000000 	nop
  4034b0:	8fbc0010 	lw	gp,16(sp)
  4034b4:	8e0317ac 	lw	v1,6060(s0)
  4034b8:	8e0517b0 	lw	a1,6064(s0)
  4034bc:	24630002 	addiu	v1,v1,2
  4034c0:	00621821 	addu	v1,v1,v0
  4034c4:	24a40002 	addiu	a0,a1,2
  4034c8:	ae0317ac 	sw	v1,6060(s0)
  4034cc:	ae0417b0 	sw	a0,6064(s0)
  4034d0:	a4a20000 	sh	v0,0(a1)
  4034d4:	8fbf002c 	lw	ra,44(sp)
  4034d8:	8fb10024 	lw	s1,36(sp)
  4034dc:	8fb00020 	lw	s0,32(sp)
  4034e0:	03e00008 	jr	ra
  4034e4:	27bd0030 	addiu	sp,sp,48

004034e8 <dns_construct_error_reply>:
  4034e8:	3c1c0001 	lui	gp,0x1
  4034ec:	279cb578 	addiu	gp,gp,-19080
  4034f0:	0399e021 	addu	gp,gp,t9
  4034f4:	27bdffe0 	addiu	sp,sp,-32
  4034f8:	afbc0010 	sw	gp,16(sp)
  4034fc:	afbf001c 	sw	ra,28(sp)
  403500:	afbc0018 	sw	gp,24(sp)
  403504:	8c820120 	lw	v0,288(a0)
  403508:	2403fff0 	li	v1,-16
  40350c:	34428000 	ori	v0,v0,0x8000
  403510:	00431024 	and	v0,v0,v1
  403514:	34420002 	ori	v0,v0,0x2
  403518:	248315ac 	addiu	v1,a0,5548
  40351c:	ac820120 	sw	v0,288(a0)
  403520:	ac8317b0 	sw	v1,6064(a0)
  403524:	8f99036c 	lw	t9,876(gp)
  403528:	00000000 	nop
  40352c:	0320f809 	jalr	t9
  403530:	00000000 	nop
  403534:	8fbc0010 	lw	gp,16(sp)
  403538:	8fbf001c 	lw	ra,28(sp)
  40353c:	00000000 	nop
  403540:	03e00008 	jr	ra
  403544:	27bd0020 	addiu	sp,sp,32
	...

00403550 <dns_read_packet>:
  403550:	3c1c0001 	lui	gp,0x1
  403554:	279cb510 	addiu	gp,gp,-19184
  403558:	0399e021 	addu	gp,gp,t9
  40355c:	27bdffb8 	addiu	sp,sp,-72
  403560:	afbc0018 	sw	gp,24(sp)
  403564:	24020010 	li	v0,16
  403568:	afa20030 	sw	v0,48(sp)
  40356c:	27a20020 	addiu	v0,sp,32
  403570:	afb00038 	sw	s0,56(sp)
  403574:	afa20010 	sw	v0,16(sp)
  403578:	00a08021 	move	s0,a1
  40357c:	27a20030 	addiu	v0,sp,48
  403580:	24a515ac 	addiu	a1,a1,5548
  403584:	24060200 	li	a2,512
  403588:	00003821 	move	a3,zero
  40358c:	afbf0040 	sw	ra,64(sp)
  403590:	afbc003c 	sw	gp,60(sp)
  403594:	afa20014 	sw	v0,20(sp)
  403598:	8f9902c4 	lw	t9,708(gp)
  40359c:	00000000 	nop
  4035a0:	0320f809 	jalr	t9
  4035a4:	00000000 	nop
  4035a8:	8fbc0018 	lw	gp,24(sp)
  4035ac:	2c45000c 	sltiu	a1,v0,12
  4035b0:	8f84000c 	lw	a0,12(gp)
  4035b4:	00000000 	nop
  4035b8:	2484f650 	addiu	a0,a0,-2480
  4035bc:	04410008 	bgez	v0,4035e0 <dns_read_packet+0x90>
  4035c0:	ae0217ac 	sw	v0,6060(s0)
  4035c4:	8f9900d8 	lw	t9,216(gp)
  4035c8:	00000000 	nop
  4035cc:	0320f809 	jalr	t9
  4035d0:	00000000 	nop
  4035d4:	8fbc0018 	lw	gp,24(sp)
  4035d8:	1000001e 	b	403654 <dns_read_packet+0x104>
  4035dc:	2402ffff 	li	v0,-1
  4035e0:	8fa30024 	lw	v1,36(sp)
  4035e4:	97a20022 	lhu	v0,34(sp)
  4035e8:	02002021 	move	a0,s0
  4035ec:	ae0215a8 	sw	v0,5544(s0)
  4035f0:	10a00012 	beqz	a1,40363c <dns_read_packet+0xec>
  4035f4:	ae0315a4 	sw	v1,5540(s0)
  4035f8:	00602021 	move	a0,v1
  4035fc:	8f990154 	lw	t9,340(gp)
  403600:	00000000 	nop
  403604:	0320f809 	jalr	t9
  403608:	00000000 	nop
  40360c:	8fbc0018 	lw	gp,24(sp)
  403610:	00402821 	move	a1,v0
  403614:	8f84000c 	lw	a0,12(gp)
  403618:	00000000 	nop
  40361c:	2484f66c 	addiu	a0,a0,-2452
  403620:	8f9902a0 	lw	t9,672(gp)
  403624:	00000000 	nop
  403628:	0320f809 	jalr	t9
  40362c:	00000000 	nop
  403630:	8fbc0018 	lw	gp,24(sp)
  403634:	10000007 	b	403654 <dns_read_packet+0x104>
  403638:	2402ffff 	li	v0,-1
  40363c:	8f9901d0 	lw	t9,464(gp)
  403640:	00000000 	nop
  403644:	0320f809 	jalr	t9
  403648:	00000000 	nop
  40364c:	8fbc0018 	lw	gp,24(sp)
  403650:	00001021 	move	v0,zero
  403654:	8fbf0040 	lw	ra,64(sp)
  403658:	8fb00038 	lw	s0,56(sp)
  40365c:	03e00008 	jr	ra
  403660:	27bd0048 	addiu	sp,sp,72

00403664 <dns_write_packet>:
  403664:	3c1c0001 	lui	gp,0x1
  403668:	279cb3fc 	addiu	gp,gp,-19460
  40366c:	0399e021 	addu	gp,gp,t9
  403670:	27bdffb0 	addiu	sp,sp,-80
  403674:	afbc0018 	sw	gp,24(sp)
  403678:	afb40040 	sw	s4,64(sp)
  40367c:	27b40020 	addiu	s4,sp,32
  403680:	afb3003c 	sw	s3,60(sp)
  403684:	afb20038 	sw	s2,56(sp)
  403688:	afb10034 	sw	s1,52(sp)
  40368c:	afb00030 	sw	s0,48(sp)
  403690:	00808821 	move	s1,a0
  403694:	00e08021 	move	s0,a3
  403698:	00a09021 	move	s2,a1
  40369c:	00c09821 	move	s3,a2
  4036a0:	02802021 	move	a0,s4
  4036a4:	00002821 	move	a1,zero
  4036a8:	24060010 	li	a2,16
  4036ac:	afbf0048 	sw	ra,72(sp)
  4036b0:	afbc0044 	sw	gp,68(sp)
  4036b4:	8f990164 	lw	t9,356(gp)
  4036b8:	00000000 	nop
  4036bc:	0320f809 	jalr	t9
  4036c0:	00000000 	nop
  4036c4:	8fbc0018 	lw	gp,24(sp)
  4036c8:	8e0617ac 	lw	a2,6060(s0)
  4036cc:	24020002 	li	v0,2
  4036d0:	261015ac 	addiu	s0,s0,5548
  4036d4:	02202021 	move	a0,s1
  4036d8:	02002821 	move	a1,s0
  4036dc:	a7a20020 	sh	v0,32(sp)
  4036e0:	00003821 	move	a3,zero
  4036e4:	24020010 	li	v0,16
  4036e8:	afb20024 	sw	s2,36(sp)
  4036ec:	a7b30022 	sh	s3,34(sp)
  4036f0:	afb40010 	sw	s4,16(sp)
  4036f4:	afa20014 	sw	v0,20(sp)
  4036f8:	8f9901b0 	lw	t9,432(gp)
  4036fc:	00000000 	nop
  403700:	0320f809 	jalr	t9
  403704:	00000000 	nop
  403708:	8fbc0018 	lw	gp,24(sp)
  40370c:	00000000 	nop
  403710:	8f84000c 	lw	a0,12(gp)
  403714:	00000000 	nop
  403718:	2484f6a8 	addiu	a0,a0,-2392
  40371c:	04410006 	bgez	v0,403738 <dns_write_packet+0xd4>
  403720:	00408021 	move	s0,v0
  403724:	8f9900d8 	lw	t9,216(gp)
  403728:	00000000 	nop
  40372c:	0320f809 	jalr	t9
  403730:	00000000 	nop
  403734:	8fbc0018 	lw	gp,24(sp)
  403738:	02001021 	move	v0,s0
  40373c:	8fbf0048 	lw	ra,72(sp)
  403740:	8fb40040 	lw	s4,64(sp)
  403744:	8fb3003c 	lw	s3,60(sp)
  403748:	8fb20038 	lw	s2,56(sp)
  40374c:	8fb10034 	lw	s1,52(sp)
  403750:	8fb00030 	lw	s0,48(sp)
  403754:	03e00008 	jr	ra
  403758:	27bd0050 	addiu	sp,sp,80
  40375c:	00000000 	nop

00403760 <__uClibc_empty_func>:
  403760:	3c1c0001 	lui	gp,0x1
  403764:	279cb300 	addiu	gp,gp,-19712
  403768:	0399e021 	addu	gp,gp,t9
  40376c:	03e00008 	jr	ra
  403770:	00000000 	nop

00403774 <__uClibc_init>:
  403774:	3c1c0001 	lui	gp,0x1
  403778:	279cb2ec 	addiu	gp,gp,-19732
  40377c:	0399e021 	addu	gp,gp,t9
  403780:	27bdffe0 	addiu	sp,sp,-32
  403784:	afbc0010 	sw	gp,16(sp)
  403788:	8f82000c 	lw	v0,12(gp)
  40378c:	00000000 	nop
  403790:	24421e18 	addiu	v0,v0,7704
  403794:	8c420000 	lw	v0,0(v0)
  403798:	afbf001c 	sw	ra,28(sp)
  40379c:	14400017 	bnez	v0,4037fc <__uClibc_init+0x88>
  4037a0:	afbc0018 	sw	gp,24(sp)
  4037a4:	24020001 	li	v0,1
  4037a8:	8f81000c 	lw	at,12(gp)
  4037ac:	00000000 	nop
  4037b0:	24211e18 	addiu	at,at,7704
  4037b4:	ac220000 	sw	v0,0(at)
  4037b8:	8f8201f0 	lw	v0,496(gp)
  4037bc:	00000000 	nop
  4037c0:	10400006 	beqz	v0,4037dc <__uClibc_init+0x68>
  4037c4:	00000000 	nop
  4037c8:	0040c821 	move	t9,v0
  4037cc:	0320f809 	jalr	t9
  4037d0:	00000000 	nop
  4037d4:	8fbc0010 	lw	gp,16(sp)
  4037d8:	00000000 	nop
  4037dc:	8f8200b0 	lw	v0,176(gp)
  4037e0:	00000000 	nop
  4037e4:	10400005 	beqz	v0,4037fc <__uClibc_init+0x88>
  4037e8:	00000000 	nop
  4037ec:	0040c821 	move	t9,v0
  4037f0:	0320f809 	jalr	t9
  4037f4:	00000000 	nop
  4037f8:	8fbc0010 	lw	gp,16(sp)
  4037fc:	8fbf001c 	lw	ra,28(sp)
  403800:	00000000 	nop
  403804:	03e00008 	jr	ra
  403808:	27bd0020 	addiu	sp,sp,32

0040380c <__uClibc_start_main>:
  40380c:	3c1c0001 	lui	gp,0x1
  403810:	279cb254 	addiu	gp,gp,-19884
  403814:	0399e021 	addu	gp,gp,t9
  403818:	27bdffd0 	addiu	sp,sp,-48
  40381c:	afbc0010 	sw	gp,16(sp)
  403820:	8f820288 	lw	v0,648(gp)
  403824:	00000000 	nop
  403828:	8c420000 	lw	v0,0(v0)
  40382c:	afb20020 	sw	s2,32(sp)
  403830:	afb1001c 	sw	s1,28(sp)
  403834:	afb00018 	sw	s0,24(sp)
  403838:	afbf0028 	sw	ra,40(sp)
  40383c:	afbc0024 	sw	gp,36(sp)
  403840:	00809021 	move	s2,a0
  403844:	00a08021 	move	s0,a1
  403848:	14400004 	bnez	v0,40385c <__uClibc_start_main+0x50>
  40384c:	00c08821 	move	s1,a2
  403850:	8f810288 	lw	at,648(gp)
  403854:	00000000 	nop
  403858:	ac260000 	sw	a2,0(at)
  40385c:	8f990190 	lw	t9,400(gp)
  403860:	00000000 	nop
  403864:	0320f809 	jalr	t9
  403868:	00000000 	nop
  40386c:	8fbc0010 	lw	gp,16(sp)
  403870:	8e020000 	lw	v0,0(s0)
  403874:	8f8101e0 	lw	at,480(gp)
  403878:	00000000 	nop
  40387c:	ac220000 	sw	v0,0(at)
  403880:	8f8200bc 	lw	v0,188(gp)
  403884:	00000000 	nop
  403888:	10400006 	beqz	v0,4038a4 <__uClibc_start_main+0x98>
  40388c:	00000000 	nop
  403890:	0040c821 	move	t9,v0
  403894:	0320f809 	jalr	t9
  403898:	00000000 	nop
  40389c:	8fbc0010 	lw	gp,16(sp)
  4038a0:	ac400000 	sw	zero,0(v0)
  4038a4:	8f82012c 	lw	v0,300(gp)
  4038a8:	00000000 	nop
  4038ac:	10400007 	beqz	v0,4038cc <__uClibc_start_main+0xc0>
  4038b0:	02402021 	move	a0,s2
  4038b4:	0040c821 	move	t9,v0
  4038b8:	0320f809 	jalr	t9
  4038bc:	00000000 	nop
  4038c0:	8fbc0010 	lw	gp,16(sp)
  4038c4:	ac400000 	sw	zero,0(v0)
  4038c8:	02402021 	move	a0,s2
  4038cc:	02002821 	move	a1,s0
  4038d0:	02203021 	move	a2,s1
  4038d4:	8f990160 	lw	t9,352(gp)
  4038d8:	00000000 	nop
  4038dc:	0320f809 	jalr	t9
  4038e0:	00000000 	nop
  4038e4:	8fbc0010 	lw	gp,16(sp)
  4038e8:	00402021 	move	a0,v0
  4038ec:	8f9900b4 	lw	t9,180(gp)
  4038f0:	00000000 	nop
  4038f4:	0320f809 	jalr	t9
  4038f8:	00000000 	nop
  4038fc:	8fbc0010 	lw	gp,16(sp)
  403900:	00000000 	nop

00403904 <__uClibc_main>:
  403904:	3c1c0001 	lui	gp,0x1
  403908:	279cb15c 	addiu	gp,gp,-20132
  40390c:	0399e021 	addu	gp,gp,t9
  403910:	27bdffd8 	addiu	sp,sp,-40
  403914:	afbc0018 	sw	gp,24(sp)
  403918:	00003821 	move	a3,zero
  40391c:	afbf0024 	sw	ra,36(sp)
  403920:	afbc0020 	sw	gp,32(sp)
  403924:	afa00010 	sw	zero,16(sp)
  403928:	8f990078 	lw	t9,120(gp)
  40392c:	00000000 	nop
  403930:	0320f809 	jalr	t9
  403934:	00000000 	nop
  403938:	8fbc0018 	lw	gp,24(sp)
  40393c:	00000000 	nop

00403940 <__errno_location>:
  403940:	3c1c0001 	lui	gp,0x1
  403944:	279cb120 	addiu	gp,gp,-20192
  403948:	0399e021 	addu	gp,gp,t9
  40394c:	8f820318 	lw	v0,792(gp)
  403950:	03e00008 	jr	ra
  403954:	00000000 	nop
	...

00403960 <__h_errno_location>:
  403960:	3c1c0001 	lui	gp,0x1
  403964:	279cb100 	addiu	gp,gp,-20224
  403968:	0399e021 	addu	gp,gp,t9
  40396c:	8f820238 	lw	v0,568(gp)
  403970:	03e00008 	jr	ra
  403974:	00000000 	nop
	...
  403980:	3c1c0001 	lui	gp,0x1
  403984:	279cb0e0 	addiu	gp,gp,-20256
  403988:	0399e021 	addu	gp,gp,t9
  40398c:	27bdffd8 	addiu	sp,sp,-40
  403990:	afbc0010 	sw	gp,16(sp)
  403994:	afb1001c 	sw	s1,28(sp)
  403998:	00808821 	move	s1,a0
  40399c:	8f84000c 	lw	a0,12(gp)
  4039a0:	00000000 	nop
  4039a4:	24841a90 	addiu	a0,a0,6800
  4039a8:	afb00018 	sw	s0,24(sp)
  4039ac:	afbf0024 	sw	ra,36(sp)
  4039b0:	afbc0020 	sw	gp,32(sp)
  4039b4:	8f990344 	lw	t9,836(gp)
  4039b8:	00000000 	nop
  4039bc:	0320f809 	jalr	t9
  4039c0:	00000000 	nop
  4039c4:	8fbc0010 	lw	gp,16(sp)
  4039c8:	00000000 	nop
  4039cc:	8f82000c 	lw	v0,12(gp)
  4039d0:	00000000 	nop
  4039d4:	24421aa8 	addiu	v0,v0,6824
  4039d8:	8c420000 	lw	v0,0(v0)
  4039dc:	2410ffff 	li	s0,-1
  4039e0:	10500007 	beq	v0,s0,403a00 <__h_errno_location+0xa0>
  4039e4:	00402021 	move	a0,v0
  4039e8:	8f990038 	lw	t9,56(gp)
  4039ec:	00000000 	nop
  4039f0:	0320f809 	jalr	t9
  4039f4:	00000000 	nop
  4039f8:	8fbc0010 	lw	gp,16(sp)
  4039fc:	00000000 	nop
  403a00:	8f84000c 	lw	a0,12(gp)
  403a04:	00000000 	nop
  403a08:	24841a90 	addiu	a0,a0,6800
  403a0c:	8f81000c 	lw	at,12(gp)
  403a10:	00000000 	nop
  403a14:	24211aa8 	addiu	at,at,6824
  403a18:	ac300000 	sw	s0,0(at)
  403a1c:	8f81000c 	lw	at,12(gp)
  403a20:	00000000 	nop
  403a24:	24211e24 	addiu	at,at,7716
  403a28:	12200016 	beqz	s1,403a84 <__h_errno_location+0x124>
  403a2c:	ac200000 	sw	zero,0(at)
  403a30:	8f82000c 	lw	v0,12(gp)
  403a34:	00000000 	nop
  403a38:	2442f9d0 	addiu	v0,v0,-1584
  403a3c:	8f81000c 	lw	at,12(gp)
  403a40:	00000000 	nop
  403a44:	24211aac 	addiu	at,at,6828
  403a48:	ac220000 	sw	v0,0(at)
  403a4c:	24020008 	li	v0,8
  403a50:	8f81000c 	lw	at,12(gp)
  403a54:	00000000 	nop
  403a58:	24211ab0 	addiu	at,at,6832
  403a5c:	ac220000 	sw	v0,0(at)
  403a60:	240200ff 	li	v0,255
  403a64:	8f81000c 	lw	at,12(gp)
  403a68:	00000000 	nop
  403a6c:	24211ab4 	addiu	at,at,6836
  403a70:	ac220000 	sw	v0,0(at)
  403a74:	8f81000c 	lw	at,12(gp)
  403a78:	00000000 	nop
  403a7c:	24211e20 	addiu	at,at,7712
  403a80:	ac200000 	sw	zero,0(at)
  403a84:	8f990234 	lw	t9,564(gp)
  403a88:	00000000 	nop
  403a8c:	0320f809 	jalr	t9
  403a90:	00000000 	nop
  403a94:	8fbc0010 	lw	gp,16(sp)
  403a98:	8fbf0024 	lw	ra,36(sp)
  403a9c:	8fb1001c 	lw	s1,28(sp)
  403aa0:	8fb00018 	lw	s0,24(sp)
  403aa4:	03e00008 	jr	ra
  403aa8:	27bd0028 	addiu	sp,sp,40
  403aac:	3c1c0001 	lui	gp,0x1
  403ab0:	279cafb4 	addiu	gp,gp,-20556
  403ab4:	0399e021 	addu	gp,gp,t9
  403ab8:	27bdffe0 	addiu	sp,sp,-32
  403abc:	afbc0010 	sw	gp,16(sp)
  403ac0:	00002021 	move	a0,zero
  403ac4:	afbf001c 	sw	ra,28(sp)
  403ac8:	afbc0018 	sw	gp,24(sp)
  403acc:	8f990008 	lw	t9,8(gp)
  403ad0:	00000000 	nop
  403ad4:	27393980 	addiu	t9,t9,14720
  403ad8:	00000000 	nop
  403adc:	0320f809 	jalr	t9
  403ae0:	00000000 	nop
  403ae4:	8fbc0010 	lw	gp,16(sp)
  403ae8:	8fbf001c 	lw	ra,28(sp)
  403aec:	00000000 	nop
  403af0:	03e00008 	jr	ra
  403af4:	27bd0020 	addiu	sp,sp,32

00403af8 <syslog>:
  403af8:	3c1c0001 	lui	gp,0x1
  403afc:	279caf68 	addiu	gp,gp,-20632
  403b00:	0399e021 	addu	gp,gp,t9
  403b04:	27bdffe0 	addiu	sp,sp,-32
  403b08:	afbc0010 	sw	gp,16(sp)
  403b0c:	afa60028 	sw	a2,40(sp)
  403b10:	27a60028 	addiu	a2,sp,40
  403b14:	afbf001c 	sw	ra,28(sp)
  403b18:	afa7002c 	sw	a3,44(sp)
  403b1c:	afbc0018 	sw	gp,24(sp)
  403b20:	8f990090 	lw	t9,144(gp)
  403b24:	00000000 	nop
  403b28:	0320f809 	jalr	t9
  403b2c:	00000000 	nop
  403b30:	8fbc0010 	lw	gp,16(sp)
  403b34:	8fbf001c 	lw	ra,28(sp)
  403b38:	00000000 	nop
  403b3c:	03e00008 	jr	ra
  403b40:	27bd0020 	addiu	sp,sp,32

00403b44 <vsyslog>:
  403b44:	3c1c0001 	lui	gp,0x1
  403b48:	279caf1c 	addiu	gp,gp,-20708
  403b4c:	0399e021 	addu	gp,gp,t9
  403b50:	27bdfaa0 	addiu	sp,sp,-1376
  403b54:	afbc0010 	sw	gp,16(sp)
  403b58:	afb00530 	sw	s0,1328(sp)
  403b5c:	27b00418 	addiu	s0,sp,1048
  403b60:	afbe0554 	sw	s8,1364(sp)
  403b64:	afb7054c 	sw	s7,1356(sp)
  403b68:	afb10534 	sw	s1,1332(sp)
  403b6c:	00a0b821 	move	s7,a1
  403b70:	00808821 	move	s1,a0
  403b74:	00002821 	move	a1,zero
  403b78:	02002021 	move	a0,s0
  403b7c:	00c0f021 	move	s8,a2
  403b80:	24060088 	li	a2,136
  403b84:	afbf0558 	sw	ra,1368(sp)
  403b88:	afb60548 	sw	s6,1352(sp)
  403b8c:	afb40540 	sw	s4,1344(sp)
  403b90:	afbc0550 	sw	gp,1360(sp)
  403b94:	afb50544 	sw	s5,1348(sp)
  403b98:	afb3053c 	sw	s3,1340(sp)
  403b9c:	afb20538 	sw	s2,1336(sp)
  403ba0:	8f990164 	lw	t9,356(gp)
  403ba4:	00000000 	nop
  403ba8:	0320f809 	jalr	t9
  403bac:	00000000 	nop
  403bb0:	8fbc0010 	lw	gp,16(sp)
  403bb4:	27a204a0 	addiu	v0,sp,1184
  403bb8:	27a40420 	addiu	a0,sp,1056
  403bbc:	afa2052c 	sw	v0,1324(sp)
  403bc0:	8f820008 	lw	v0,8(gp)
  403bc4:	00000000 	nop
  403bc8:	24423aac 	addiu	v0,v0,15020
  403bcc:	00000000 	nop
  403bd0:	afa2041c 	sw	v0,1052(sp)
  403bd4:	8f990348 	lw	t9,840(gp)
  403bd8:	00000000 	nop
  403bdc:	0320f809 	jalr	t9
  403be0:	00000000 	nop
  403be4:	8fbc0010 	lw	gp,16(sp)
  403be8:	8fa6052c 	lw	a2,1324(sp)
  403bec:	02002821 	move	a1,s0
  403bf0:	2404000d 	li	a0,13
  403bf4:	8f990194 	lw	t9,404(gp)
  403bf8:	00000000 	nop
  403bfc:	0320f809 	jalr	t9
  403c00:	00000000 	nop
  403c04:	8fbc0010 	lw	gp,16(sp)
  403c08:	0040b021 	move	s6,v0
  403c0c:	8f9900bc 	lw	t9,188(gp)
  403c10:	00000000 	nop
  403c14:	0320f809 	jalr	t9
  403c18:	00000000 	nop
  403c1c:	8fbc0010 	lw	gp,16(sp)
  403c20:	00000000 	nop
  403c24:	8f84000c 	lw	a0,12(gp)
  403c28:	00000000 	nop
  403c2c:	24841a90 	addiu	a0,a0,6800
  403c30:	8c540000 	lw	s4,0(v0)
  403c34:	8f990344 	lw	t9,836(gp)
  403c38:	00000000 	nop
  403c3c:	0320f809 	jalr	t9
  403c40:	00000000 	nop
  403c44:	8fbc0010 	lw	gp,16(sp)
  403c48:	00000000 	nop
  403c4c:	8f82000c 	lw	v0,12(gp)
  403c50:	00000000 	nop
  403c54:	24421ab4 	addiu	v0,v0,6836
  403c58:	8c420000 	lw	v0,0(v0)
  403c5c:	32230007 	andi	v1,s1,0x7
  403c60:	00621007 	srav	v0,v0,v1
  403c64:	30420001 	andi	v0,v0,0x1
  403c68:	10400123 	beqz	v0,4040f8 <vsyslog+0x5b4>
  403c6c:	2402fc00 	li	v0,-1024
  403c70:	02221024 	and	v0,s1,v0
  403c74:	14400120 	bnez	v0,4040f8 <vsyslog+0x5b4>
  403c78:	00000000 	nop
  403c7c:	8f82000c 	lw	v0,12(gp)
  403c80:	00000000 	nop
  403c84:	24421aa8 	addiu	v0,v0,6824
  403c88:	8c420000 	lw	v0,0(v0)
  403c8c:	00000000 	nop
  403c90:	04400008 	bltz	v0,403cb4 <vsyslog+0x170>
  403c94:	00000000 	nop
  403c98:	8f82000c 	lw	v0,12(gp)
  403c9c:	00000000 	nop
  403ca0:	24421e24 	addiu	v0,v0,7716
  403ca4:	8c420000 	lw	v0,0(v0)
  403ca8:	00000000 	nop
  403cac:	14400011 	bnez	v0,403cf4 <vsyslog+0x1b0>
  403cb0:	322203f8 	andi	v0,s1,0x3f8
  403cb4:	8f85000c 	lw	a1,12(gp)
  403cb8:	00000000 	nop
  403cbc:	24a51e20 	addiu	a1,a1,7712
  403cc0:	8ca50000 	lw	a1,0(a1)
  403cc4:	8f84000c 	lw	a0,12(gp)
  403cc8:	00000000 	nop
  403ccc:	24841aac 	addiu	a0,a0,6828
  403cd0:	8c840000 	lw	a0,0(a0)
  403cd4:	34a50008 	ori	a1,a1,0x8
  403cd8:	00003021 	move	a2,zero
  403cdc:	8f9901cc 	lw	t9,460(gp)
  403ce0:	00000000 	nop
  403ce4:	0320f809 	jalr	t9
  403ce8:	00000000 	nop
  403cec:	8fbc0010 	lw	gp,16(sp)
  403cf0:	322203f8 	andi	v0,s1,0x3f8
  403cf4:	14400007 	bnez	v0,403d14 <vsyslog+0x1d0>
  403cf8:	27a40528 	addiu	a0,sp,1320
  403cfc:	8f82000c 	lw	v0,12(gp)
  403d00:	00000000 	nop
  403d04:	24421ab0 	addiu	v0,v0,6832
  403d08:	8c420000 	lw	v0,0(v0)
  403d0c:	00000000 	nop
  403d10:	02228825 	or	s1,s1,v0
  403d14:	8f990148 	lw	t9,328(gp)
  403d18:	00000000 	nop
  403d1c:	0320f809 	jalr	t9
  403d20:	00000000 	nop
  403d24:	8fbc0010 	lw	gp,16(sp)
  403d28:	27a40528 	addiu	a0,sp,1320
  403d2c:	8f990218 	lw	t9,536(gp)
  403d30:	00000000 	nop
  403d34:	0320f809 	jalr	t9
  403d38:	00000000 	nop
  403d3c:	8fbc0010 	lw	gp,16(sp)
  403d40:	24420004 	addiu	v0,v0,4
  403d44:	02203021 	move	a2,s1
  403d48:	00403821 	move	a3,v0
  403d4c:	27a40018 	addiu	a0,sp,24
  403d50:	8f85000c 	lw	a1,12(gp)
  403d54:	00000000 	nop
  403d58:	24a5f9e4 	addiu	a1,a1,-1564
  403d5c:	8f99011c 	lw	t9,284(gp)
  403d60:	00000000 	nop
  403d64:	0320f809 	jalr	t9
  403d68:	00000000 	nop
  403d6c:	8fbc0010 	lw	gp,16(sp)
  403d70:	27b50018 	addiu	s5,sp,24
  403d74:	8f91000c 	lw	s1,12(gp)
  403d78:	00000000 	nop
  403d7c:	26311aac 	addiu	s1,s1,6828
  403d80:	8e310000 	lw	s1,0(s1)
  403d84:	02a28021 	addu	s0,s5,v0
  403d88:	1220001e 	beqz	s1,403e04 <vsyslog+0x2c0>
  403d8c:	02009821 	move	s3,s0
  403d90:	02202021 	move	a0,s1
  403d94:	8f99007c 	lw	t9,124(gp)
  403d98:	00000000 	nop
  403d9c:	0320f809 	jalr	t9
  403da0:	00000000 	nop
  403da4:	8fbc0010 	lw	gp,16(sp)
  403da8:	2c4203c0 	sltiu	v0,v0,960
  403dac:	1040000c 	beqz	v0,403de0 <vsyslog+0x29c>
  403db0:	02002021 	move	a0,s0
  403db4:	02203021 	move	a2,s1
  403db8:	8f85000c 	lw	a1,12(gp)
  403dbc:	00000000 	nop
  403dc0:	24a5f9f0 	addiu	a1,a1,-1552
  403dc4:	8f99011c 	lw	t9,284(gp)
  403dc8:	00000000 	nop
  403dcc:	0320f809 	jalr	t9
  403dd0:	00000000 	nop
  403dd4:	8fbc0010 	lw	gp,16(sp)
  403dd8:	1000000a 	b	403e04 <vsyslog+0x2c0>
  403ddc:	02028021 	addu	s0,s0,v0
  403de0:	8f85000c 	lw	a1,12(gp)
  403de4:	00000000 	nop
  403de8:	24a5f9f4 	addiu	a1,a1,-1548
  403dec:	8f99011c 	lw	t9,284(gp)
  403df0:	00000000 	nop
  403df4:	0320f809 	jalr	t9
  403df8:	00000000 	nop
  403dfc:	8fbc0010 	lw	gp,16(sp)
  403e00:	02028021 	addu	s0,s0,v0
  403e04:	8f82000c 	lw	v0,12(gp)
  403e08:	00000000 	nop
  403e0c:	24421e20 	addiu	v0,v0,7712
  403e10:	8c420000 	lw	v0,0(v0)
  403e14:	00000000 	nop
  403e18:	30420001 	andi	v0,v0,0x1
  403e1c:	10400011 	beqz	v0,403e64 <vsyslog+0x320>
  403e20:	00000000 	nop
  403e24:	8f990310 	lw	t9,784(gp)
  403e28:	00000000 	nop
  403e2c:	0320f809 	jalr	t9
  403e30:	00000000 	nop
  403e34:	8fbc0010 	lw	gp,16(sp)
  403e38:	00403021 	move	a2,v0
  403e3c:	02002021 	move	a0,s0
  403e40:	8f85000c 	lw	a1,12(gp)
  403e44:	00000000 	nop
  403e48:	24a5fa10 	addiu	a1,a1,-1520
  403e4c:	8f99011c 	lw	t9,284(gp)
  403e50:	00000000 	nop
  403e54:	0320f809 	jalr	t9
  403e58:	00000000 	nop
  403e5c:	8fbc0010 	lw	gp,16(sp)
  403e60:	02028021 	addu	s0,s0,v0
  403e64:	8f82000c 	lw	v0,12(gp)
  403e68:	00000000 	nop
  403e6c:	24421aac 	addiu	v0,v0,6828
  403e70:	8c420000 	lw	v0,0(v0)
  403e74:	00000000 	nop
  403e78:	10400006 	beqz	v0,403e94 <vsyslog+0x350>
  403e7c:	2402003a 	li	v0,58
  403e80:	a2020000 	sb	v0,0(s0)
  403e84:	26100001 	addiu	s0,s0,1
  403e88:	24020020 	li	v0,32
  403e8c:	a2020000 	sb	v0,0(s0)
  403e90:	26100001 	addiu	s0,s0,1
  403e94:	8f9900bc 	lw	t9,188(gp)
  403e98:	00000000 	nop
  403e9c:	0320f809 	jalr	t9
  403ea0:	00000000 	nop
  403ea4:	8fbc0010 	lw	gp,16(sp)
  403ea8:	27b20417 	addiu	s2,sp,1047
  403eac:	02502823 	subu	a1,s2,s0
  403eb0:	02002021 	move	a0,s0
  403eb4:	ac540000 	sw	s4,0(v0)
  403eb8:	02e03021 	move	a2,s7
  403ebc:	03c03821 	move	a3,s8
  403ec0:	8f9902c8 	lw	t9,712(gp)
  403ec4:	00000000 	nop
  403ec8:	0320f809 	jalr	t9
  403ecc:	00000000 	nop
  403ed0:	8fbc0010 	lw	gp,16(sp)
  403ed4:	02008821 	move	s1,s0
  403ed8:	02028021 	addu	s0,s0,v0
  403edc:	0212102b 	sltu	v0,s0,s2
  403ee0:	10400003 	beqz	v0,403ef0 <vsyslog+0x3ac>
  403ee4:	0211102b 	sltu	v0,s0,s1
  403ee8:	10400015 	beqz	v0,403f40 <vsyslog+0x3fc>
  403eec:	00000000 	nop
  403ef0:	02513023 	subu	a2,s2,s1
  403ef4:	24c6fff4 	addiu	a2,a2,-12
  403ef8:	2624000c 	addiu	a0,s1,12
  403efc:	02202821 	move	a1,s1
  403f00:	8f99033c 	lw	t9,828(gp)
  403f04:	00000000 	nop
  403f08:	0320f809 	jalr	t9
  403f0c:	00000000 	nop
  403f10:	8fbc0010 	lw	gp,16(sp)
  403f14:	02202021 	move	a0,s1
  403f18:	8f85000c 	lw	a1,12(gp)
  403f1c:	00000000 	nop
  403f20:	24a5f9d8 	addiu	a1,a1,-1576
  403f24:	2406000c 	li	a2,12
  403f28:	8f9902fc 	lw	t9,764(gp)
  403f2c:	00000000 	nop
  403f30:	0320f809 	jalr	t9
  403f34:	00000000 	nop
  403f38:	8fbc0010 	lw	gp,16(sp)
  403f3c:	27b00416 	addiu	s0,sp,1046
  403f40:	8f82000c 	lw	v0,12(gp)
  403f44:	00000000 	nop
  403f48:	24421e20 	addiu	v0,v0,7712
  403f4c:	8c420000 	lw	v0,0(v0)
  403f50:	00000000 	nop
  403f54:	30420020 	andi	v0,v0,0x20
  403f58:	1040000c 	beqz	v0,403f8c <vsyslog+0x448>
  403f5c:	02009021 	move	s2,s0
  403f60:	02133023 	subu	a2,s0,s3
  403f64:	2402000a 	li	v0,10
  403f68:	24c60001 	addiu	a2,a2,1
  403f6c:	a2020000 	sb	v0,0(s0)
  403f70:	02602821 	move	a1,s3
  403f74:	24040002 	li	a0,2
  403f78:	8f990228 	lw	t9,552(gp)
  403f7c:	00000000 	nop
  403f80:	0320f809 	jalr	t9
  403f84:	00000000 	nop
  403f88:	8fbc0010 	lw	gp,16(sp)
  403f8c:	02a08021 	move	s0,s5
  403f90:	a2400000 	sb	zero,0(s2)
  403f94:	02503023 	subu	a2,s2,s0
  403f98:	8f84000c 	lw	a0,12(gp)
  403f9c:	00000000 	nop
  403fa0:	24841aa8 	addiu	a0,a0,6824
  403fa4:	8c840000 	lw	a0,0(a0)
  403fa8:	24c60001 	addiu	a2,a2,1
  403fac:	02002821 	move	a1,s0
  403fb0:	8f990228 	lw	t9,552(gp)
  403fb4:	00000000 	nop
  403fb8:	0320f809 	jalr	t9
  403fbc:	00000000 	nop
  403fc0:	8fbc0010 	lw	gp,16(sp)
  403fc4:	04410017 	bgez	v0,404024 <vsyslog+0x4e0>
  403fc8:	00408821 	move	s1,v0
  403fcc:	8f9900bc 	lw	t9,188(gp)
  403fd0:	00000000 	nop
  403fd4:	0320f809 	jalr	t9
  403fd8:	00000000 	nop
  403fdc:	8fbc0010 	lw	gp,16(sp)
  403fe0:	8c430000 	lw	v1,0(v0)
  403fe4:	2402000b 	li	v0,11
  403fe8:	10620003 	beq	v1,v0,403ff8 <vsyslog+0x4b4>
  403fec:	24020004 	li	v0,4
  403ff0:	14620003 	bne	v1,v0,404000 <vsyslog+0x4bc>
  403ff4:	00002021 	move	a0,zero
  403ff8:	1000000a 	b	404024 <vsyslog+0x4e0>
  403ffc:	00008821 	move	s1,zero
  404000:	8f990008 	lw	t9,8(gp)
  404004:	00000000 	nop
  404008:	27393980 	addiu	t9,t9,14720
  40400c:	00000000 	nop
  404010:	0320f809 	jalr	t9
  404014:	00000000 	nop
  404018:	8fbc0010 	lw	gp,16(sp)
  40401c:	10000005 	b	404034 <vsyslog+0x4f0>
  404020:	00000000 	nop
  404024:	02118021 	addu	s0,s0,s1
  404028:	0250102b 	sltu	v0,s2,s0
  40402c:	1040ffda 	beqz	v0,403f98 <vsyslog+0x454>
  404030:	02503023 	subu	a2,s2,s0
  404034:	06210030 	bgez	s1,4040f8 <vsyslog+0x5b4>
  404038:	00000000 	nop
  40403c:	8f82000c 	lw	v0,12(gp)
  404040:	00000000 	nop
  404044:	24421e20 	addiu	v0,v0,7712
  404048:	8c420000 	lw	v0,0(v0)
  40404c:	00000000 	nop
  404050:	30420002 	andi	v0,v0,0x2
  404054:	10400028 	beqz	v0,4040f8 <vsyslog+0x5b4>
  404058:	24050001 	li	a1,1
  40405c:	8f84000c 	lw	a0,12(gp)
  404060:	00000000 	nop
  404064:	2484fa18 	addiu	a0,a0,-1512
  404068:	00003021 	move	a2,zero
  40406c:	8f990070 	lw	t9,112(gp)
  404070:	00000000 	nop
  404074:	0320f809 	jalr	t9
  404078:	00000000 	nop
  40407c:	8fbc0010 	lw	gp,16(sp)
  404080:	0440001d 	bltz	v0,4040f8 <vsyslog+0x5b4>
  404084:	00408821 	move	s1,v0
  404088:	27a40018 	addiu	a0,sp,24
  40408c:	2405003e 	li	a1,62
  404090:	8f990180 	lw	t9,384(gp)
  404094:	00000000 	nop
  404098:	0320f809 	jalr	t9
  40409c:	00000000 	nop
  4040a0:	8fbc0010 	lw	gp,16(sp)
  4040a4:	24500001 	addiu	s0,v0,1
  4040a8:	2402000d 	li	v0,13
  4040ac:	a2420000 	sb	v0,0(s2)
  4040b0:	02503023 	subu	a2,s2,s0
  4040b4:	2402000a 	li	v0,10
  4040b8:	02202021 	move	a0,s1
  4040bc:	24c60002 	addiu	a2,a2,2
  4040c0:	a2420001 	sb	v0,1(s2)
  4040c4:	02002821 	move	a1,s0
  4040c8:	8f990228 	lw	t9,552(gp)
  4040cc:	00000000 	nop
  4040d0:	0320f809 	jalr	t9
  4040d4:	00000000 	nop
  4040d8:	8fbc0010 	lw	gp,16(sp)
  4040dc:	02202021 	move	a0,s1
  4040e0:	8f990038 	lw	t9,56(gp)
  4040e4:	00000000 	nop
  4040e8:	0320f809 	jalr	t9
  4040ec:	00000000 	nop
  4040f0:	8fbc0010 	lw	gp,16(sp)
  4040f4:	00000000 	nop
  4040f8:	8f84000c 	lw	a0,12(gp)
  4040fc:	00000000 	nop
  404100:	24841a90 	addiu	a0,a0,6800
  404104:	8f990234 	lw	t9,564(gp)
  404108:	00000000 	nop
  40410c:	0320f809 	jalr	t9
  404110:	00000000 	nop
  404114:	8fbc0010 	lw	gp,16(sp)
  404118:	16c00008 	bnez	s6,40413c <vsyslog+0x5f8>
  40411c:	2404000d 	li	a0,13
  404120:	8fa5052c 	lw	a1,1324(sp)
  404124:	00003021 	move	a2,zero
  404128:	8f990194 	lw	t9,404(gp)
  40412c:	00000000 	nop
  404130:	0320f809 	jalr	t9
  404134:	00000000 	nop
  404138:	8fbc0010 	lw	gp,16(sp)
  40413c:	8fbf0558 	lw	ra,1368(sp)
  404140:	8fbe0554 	lw	s8,1364(sp)
  404144:	8fb7054c 	lw	s7,1356(sp)
  404148:	8fb60548 	lw	s6,1352(sp)
  40414c:	8fb50544 	lw	s5,1348(sp)
  404150:	8fb40540 	lw	s4,1344(sp)
  404154:	8fb3053c 	lw	s3,1340(sp)
  404158:	8fb20538 	lw	s2,1336(sp)
  40415c:	8fb10534 	lw	s1,1332(sp)
  404160:	8fb00530 	lw	s0,1328(sp)
  404164:	03e00008 	jr	ra
  404168:	27bd0560 	addiu	sp,sp,1376

0040416c <openlog>:
  40416c:	3c1c0001 	lui	gp,0x1
  404170:	279ca8f4 	addiu	gp,gp,-22284
  404174:	0399e021 	addu	gp,gp,t9
  404178:	27bdffc8 	addiu	sp,sp,-56
  40417c:	afbc0010 	sw	gp,16(sp)
  404180:	afb10024 	sw	s1,36(sp)
  404184:	00808821 	move	s1,a0
  404188:	8f84000c 	lw	a0,12(gp)
  40418c:	00000000 	nop
  404190:	24841a90 	addiu	a0,a0,6800
  404194:	afb3002c 	sw	s3,44(sp)
  404198:	afb20028 	sw	s2,40(sp)
  40419c:	afb00020 	sw	s0,32(sp)
  4041a0:	afbf0034 	sw	ra,52(sp)
  4041a4:	afbc0030 	sw	gp,48(sp)
  4041a8:	00a09021 	move	s2,a1
  4041ac:	00c08021 	move	s0,a2
  4041b0:	8f990344 	lw	t9,836(gp)
  4041b4:	00000000 	nop
  4041b8:	0320f809 	jalr	t9
  4041bc:	00000000 	nop
  4041c0:	8fbc0010 	lw	gp,16(sp)
  4041c4:	12200005 	beqz	s1,4041dc <openlog+0x70>
  4041c8:	24130001 	li	s3,1
  4041cc:	8f81000c 	lw	at,12(gp)
  4041d0:	00000000 	nop
  4041d4:	24211aac 	addiu	at,at,6828
  4041d8:	ac310000 	sw	s1,0(at)
  4041dc:	8f81000c 	lw	at,12(gp)
  4041e0:	00000000 	nop
  4041e4:	24211e20 	addiu	at,at,7712
  4041e8:	ac320000 	sw	s2,0(at)
  4041ec:	12000008 	beqz	s0,404210 <openlog+0xa4>
  4041f0:	2402fc07 	li	v0,-1017
  4041f4:	02021024 	and	v0,s0,v0
  4041f8:	14400005 	bnez	v0,404210 <openlog+0xa4>
  4041fc:	00000000 	nop
  404200:	8f81000c 	lw	at,12(gp)
  404204:	00000000 	nop
  404208:	24211ab0 	addiu	at,at,6832
  40420c:	ac300000 	sw	s0,0(at)
  404210:	8f83000c 	lw	v1,12(gp)
  404214:	00000000 	nop
  404218:	24631aa8 	addiu	v1,v1,6824
  40421c:	8c630000 	lw	v1,0(v1)
  404220:	2402ffff 	li	v0,-1
  404224:	14620027 	bne	v1,v0,4042c4 <openlog+0x158>
  404228:	24020001 	li	v0,1
  40422c:	8f84000c 	lw	a0,12(gp)
  404230:	00000000 	nop
  404234:	24841e2a 	addiu	a0,a0,7722
  404238:	8f85000c 	lw	a1,12(gp)
  40423c:	00000000 	nop
  404240:	24a5fa28 	addiu	a1,a1,-1496
  404244:	2406000e 	li	a2,14
  404248:	8f81000c 	lw	at,12(gp)
  40424c:	00000000 	nop
  404250:	24211e28 	addiu	at,at,7720
  404254:	a4220000 	sh	v0,0(at)
  404258:	8f9901c0 	lw	t9,448(gp)
  40425c:	00000000 	nop
  404260:	0320f809 	jalr	t9
  404264:	00000000 	nop
  404268:	8fbc0010 	lw	gp,16(sp)
  40426c:	00000000 	nop
  404270:	8f82000c 	lw	v0,12(gp)
  404274:	00000000 	nop
  404278:	24421e20 	addiu	v0,v0,7712
  40427c:	8c420000 	lw	v0,0(v0)
  404280:	00000000 	nop
  404284:	30420008 	andi	v0,v0,0x8
  404288:	1040000e 	beqz	v0,4042c4 <openlog+0x158>
  40428c:	24040001 	li	a0,1
  404290:	02602821 	move	a1,s3
  404294:	00003021 	move	a2,zero
  404298:	8f9902bc 	lw	t9,700(gp)
  40429c:	00000000 	nop
  4042a0:	0320f809 	jalr	t9
  4042a4:	00000000 	nop
  4042a8:	8fbc0010 	lw	gp,16(sp)
  4042ac:	2403ffff 	li	v1,-1
  4042b0:	8f81000c 	lw	at,12(gp)
  4042b4:	00000000 	nop
  4042b8:	24211aa8 	addiu	at,at,6824
  4042bc:	1043004c 	beq	v0,v1,4043f0 <openlog+0x284>
  4042c0:	ac220000 	sw	v0,0(at)
  4042c4:	8f90000c 	lw	s0,12(gp)
  4042c8:	00000000 	nop
  4042cc:	26101aa8 	addiu	s0,s0,6824
  4042d0:	8e100000 	lw	s0,0(s0)
  4042d4:	2411ffff 	li	s1,-1
  4042d8:	12110045 	beq	s0,s1,4043f0 <openlog+0x284>
  4042dc:	00000000 	nop
  4042e0:	8f82000c 	lw	v0,12(gp)
  4042e4:	00000000 	nop
  4042e8:	24421e24 	addiu	v0,v0,7716
  4042ec:	8c420000 	lw	v0,0(v0)
  4042f0:	00000000 	nop
  4042f4:	1440003e 	bnez	v0,4043f0 <openlog+0x284>
  4042f8:	00000000 	nop
  4042fc:	8f84000c 	lw	a0,12(gp)
  404300:	00000000 	nop
  404304:	24841e2a 	addiu	a0,a0,7722
  404308:	8f99007c 	lw	t9,124(gp)
  40430c:	00000000 	nop
  404310:	0320f809 	jalr	t9
  404314:	00000000 	nop
  404318:	8fbc0010 	lw	gp,16(sp)
  40431c:	24420002 	addiu	v0,v0,2
  404320:	8f83000c 	lw	v1,12(gp)
  404324:	00000000 	nop
  404328:	24631e28 	addiu	v1,v1,7720
  40432c:	02002021 	move	a0,s0
  404330:	00602821 	move	a1,v1
  404334:	00403021 	move	a2,v0
  404338:	afa30018 	sw	v1,24(sp)
  40433c:	8f990354 	lw	t9,852(gp)
  404340:	00000000 	nop
  404344:	0320f809 	jalr	t9
  404348:	00000000 	nop
  40434c:	8fbc0010 	lw	gp,16(sp)
  404350:	10510007 	beq	v0,s1,404370 <openlog+0x204>
  404354:	00408021 	move	s0,v0
  404358:	24020001 	li	v0,1
  40435c:	8f81000c 	lw	at,12(gp)
  404360:	00000000 	nop
  404364:	24211e24 	addiu	at,at,7716
  404368:	10000021 	b	4043f0 <openlog+0x284>
  40436c:	ac220000 	sw	v0,0(at)
  404370:	24020001 	li	v0,1
  404374:	8f84000c 	lw	a0,12(gp)
  404378:	00000000 	nop
  40437c:	24841aa8 	addiu	a0,a0,6824
  404380:	8c840000 	lw	a0,0(a0)
  404384:	1662000e 	bne	s3,v0,4043c0 <openlog+0x254>
  404388:	00000000 	nop
  40438c:	1090ffb8 	beq	a0,s0,404270 <openlog+0x104>
  404390:	24130002 	li	s3,2
  404394:	8f990038 	lw	t9,56(gp)
  404398:	00000000 	nop
  40439c:	0320f809 	jalr	t9
  4043a0:	00000000 	nop
  4043a4:	8fbc0010 	lw	gp,16(sp)
  4043a8:	00000000 	nop
  4043ac:	8f81000c 	lw	at,12(gp)
  4043b0:	00000000 	nop
  4043b4:	24211aa8 	addiu	at,at,6824
  4043b8:	1000ffad 	b	404270 <openlog+0x104>
  4043bc:	ac300000 	sw	s0,0(at)
  4043c0:	1090000b 	beq	a0,s0,4043f0 <openlog+0x284>
  4043c4:	00000000 	nop
  4043c8:	8f990038 	lw	t9,56(gp)
  4043cc:	00000000 	nop
  4043d0:	0320f809 	jalr	t9
  4043d4:	00000000 	nop
  4043d8:	8fbc0010 	lw	gp,16(sp)
  4043dc:	00000000 	nop
  4043e0:	8f81000c 	lw	at,12(gp)
  4043e4:	00000000 	nop
  4043e8:	24211aa8 	addiu	at,at,6824
  4043ec:	ac300000 	sw	s0,0(at)
  4043f0:	8f84000c 	lw	a0,12(gp)
  4043f4:	00000000 	nop
  4043f8:	24841a90 	addiu	a0,a0,6800
  4043fc:	8f990234 	lw	t9,564(gp)
  404400:	00000000 	nop
  404404:	0320f809 	jalr	t9
  404408:	00000000 	nop
  40440c:	8fbc0010 	lw	gp,16(sp)
  404410:	8fbf0034 	lw	ra,52(sp)
  404414:	8fb3002c 	lw	s3,44(sp)
  404418:	8fb20028 	lw	s2,40(sp)
  40441c:	8fb10024 	lw	s1,36(sp)
  404420:	8fb00020 	lw	s0,32(sp)
  404424:	03e00008 	jr	ra
  404428:	27bd0038 	addiu	sp,sp,56

0040442c <closelog>:
  40442c:	3c1c0001 	lui	gp,0x1
  404430:	279ca634 	addiu	gp,gp,-22988
  404434:	0399e021 	addu	gp,gp,t9
  404438:	27bdffe0 	addiu	sp,sp,-32
  40443c:	afbc0010 	sw	gp,16(sp)
  404440:	24040001 	li	a0,1
  404444:	afbf001c 	sw	ra,28(sp)
  404448:	afbc0018 	sw	gp,24(sp)
  40444c:	8f990008 	lw	t9,8(gp)
  404450:	00000000 	nop
  404454:	27393980 	addiu	t9,t9,14720
  404458:	00000000 	nop
  40445c:	0320f809 	jalr	t9
  404460:	00000000 	nop
  404464:	8fbc0010 	lw	gp,16(sp)
  404468:	8fbf001c 	lw	ra,28(sp)
  40446c:	00000000 	nop
  404470:	03e00008 	jr	ra
  404474:	27bd0020 	addiu	sp,sp,32

00404478 <setlogmask>:
  404478:	3c1c0001 	lui	gp,0x1
  40447c:	279ca5e8 	addiu	gp,gp,-23064
  404480:	0399e021 	addu	gp,gp,t9
  404484:	27bdffd8 	addiu	sp,sp,-40
  404488:	afbc0010 	sw	gp,16(sp)
  40448c:	afb1001c 	sw	s1,28(sp)
  404490:	00808821 	move	s1,a0
  404494:	8f84000c 	lw	a0,12(gp)
  404498:	00000000 	nop
  40449c:	24841a90 	addiu	a0,a0,6800
  4044a0:	afb00018 	sw	s0,24(sp)
  4044a4:	afbf0024 	sw	ra,36(sp)
  4044a8:	afbc0020 	sw	gp,32(sp)
  4044ac:	8f90000c 	lw	s0,12(gp)
  4044b0:	00000000 	nop
  4044b4:	26101ab4 	addiu	s0,s0,6836
  4044b8:	8e100000 	lw	s0,0(s0)
  4044bc:	8f990344 	lw	t9,836(gp)
  4044c0:	00000000 	nop
  4044c4:	0320f809 	jalr	t9
  4044c8:	00000000 	nop
  4044cc:	8fbc0010 	lw	gp,16(sp)
  4044d0:	00000000 	nop
  4044d4:	8f84000c 	lw	a0,12(gp)
  4044d8:	00000000 	nop
  4044dc:	24841a90 	addiu	a0,a0,6800
  4044e0:	12200005 	beqz	s1,4044f8 <setlogmask+0x80>
  4044e4:	00000000 	nop
  4044e8:	8f81000c 	lw	at,12(gp)
  4044ec:	00000000 	nop
  4044f0:	24211ab4 	addiu	at,at,6836
  4044f4:	ac310000 	sw	s1,0(at)
  4044f8:	8f990234 	lw	t9,564(gp)
  4044fc:	00000000 	nop
  404500:	0320f809 	jalr	t9
  404504:	00000000 	nop
  404508:	8fbc0010 	lw	gp,16(sp)
  40450c:	02001021 	move	v0,s0
  404510:	8fbf0024 	lw	ra,36(sp)
  404514:	8fb1001c 	lw	s1,28(sp)
  404518:	8fb00018 	lw	s0,24(sp)
  40451c:	03e00008 	jr	ra
  404520:	27bd0028 	addiu	sp,sp,40
	...

00404530 <ctime>:
  404530:	3c1c0001 	lui	gp,0x1
  404534:	279ca530 	addiu	gp,gp,-23248
  404538:	0399e021 	addu	gp,gp,t9
  40453c:	27bdffe0 	addiu	sp,sp,-32
  404540:	afbc0010 	sw	gp,16(sp)
  404544:	afbf001c 	sw	ra,28(sp)
  404548:	afbc0018 	sw	gp,24(sp)
  40454c:	8f990168 	lw	t9,360(gp)
  404550:	00000000 	nop
  404554:	0320f809 	jalr	t9
  404558:	00000000 	nop
  40455c:	8fbc0010 	lw	gp,16(sp)
  404560:	00402021 	move	a0,v0
  404564:	8f99037c 	lw	t9,892(gp)
  404568:	00000000 	nop
  40456c:	0320f809 	jalr	t9
  404570:	00000000 	nop
  404574:	8fbc0010 	lw	gp,16(sp)
  404578:	8fbf001c 	lw	ra,28(sp)
  40457c:	00000000 	nop
  404580:	03e00008 	jr	ra
  404584:	27bd0020 	addiu	sp,sp,32
	...

00404590 <localtime>:
  404590:	3c1c0001 	lui	gp,0x1
  404594:	279ca4d0 	addiu	gp,gp,-23344
  404598:	0399e021 	addu	gp,gp,t9
  40459c:	27bdffd8 	addiu	sp,sp,-40
  4045a0:	afbc0010 	sw	gp,16(sp)
  4045a4:	afb00018 	sw	s0,24(sp)
  4045a8:	8f9000f8 	lw	s0,248(gp)
  4045ac:	00000000 	nop
  4045b0:	02002821 	move	a1,s0
  4045b4:	afbf0020 	sw	ra,32(sp)
  4045b8:	afbc001c 	sw	gp,28(sp)
  4045bc:	8f9900f4 	lw	t9,244(gp)
  4045c0:	00000000 	nop
  4045c4:	0320f809 	jalr	t9
  4045c8:	00000000 	nop
  4045cc:	8fbc0010 	lw	gp,16(sp)
  4045d0:	02001021 	move	v0,s0
  4045d4:	8fbf0020 	lw	ra,32(sp)
  4045d8:	8fb00018 	lw	s0,24(sp)
  4045dc:	03e00008 	jr	ra
  4045e0:	27bd0028 	addiu	sp,sp,40
	...
  4045f0:	3c1c0001 	lui	gp,0x1
  4045f4:	279ca470 	addiu	gp,gp,-23440
  4045f8:	0399e021 	addu	gp,gp,t9
  4045fc:	8f820294 	lw	v0,660(gp)
  404600:	00000000 	nop
  404604:	80420028 	lb	v0,40(v0)
  404608:	00804021 	move	t0,a0
  40460c:	8f8a0294 	lw	t2,660(gp)
  404610:	104000bd 	beqz	v0,404908 <localtime+0x378>
  404614:	00007021 	move	t6,zero
  404618:	8c860014 	lw	a2,20(a0)
  40461c:	3c0951eb 	lui	t1,0x51eb
  404620:	3529851f 	ori	t1,t1,0x851f
  404624:	00c90018 	mult	a2,t1
  404628:	8d05001c 	lw	a1,28(t0)
  40462c:	00063fc3 	sra	a3,a2,0x1f
  404630:	00051040 	sll	v0,a1,0x1
  404634:	00451021 	addu	v0,v0,a1
  404638:	8d030008 	lw	v1,8(t0)
  40463c:	000210c0 	sll	v0,v0,0x3
  404640:	00621821 	addu	v1,v1,v0
  404644:	00032900 	sll	a1,v1,0x4
  404648:	00a32823 	subu	a1,a1,v1
  40464c:	8d030004 	lw	v1,4(t0)
  404650:	00052880 	sll	a1,a1,0x2
  404654:	00002010 	mfhi	a0
  404658:	000421c3 	sra	a0,a0,0x7
  40465c:	00872023 	subu	a0,a0,a3
  404660:	00041040 	sll	v0,a0,0x1
  404664:	00441021 	addu	v0,v0,a0
  404668:	000210c0 	sll	v0,v0,0x3
  40466c:	00441021 	addu	v0,v0,a0
  404670:	00651821 	addu	v1,v1,a1
  404674:	00021100 	sll	v0,v0,0x4
  404678:	00c23023 	subu	a2,a2,v0
  40467c:	00031100 	sll	v0,v1,0x4
  404680:	00431023 	subu	v0,v0,v1
  404684:	24c7076c 	addiu	a3,a2,1900
  404688:	8d030000 	lw	v1,0(t0)
  40468c:	00021080 	sll	v0,v0,0x2
  404690:	30e40003 	andi	a0,a3,0x3
  404694:	00625821 	addu	t3,v1,v0
  404698:	14800016 	bnez	a0,4046f4 <localtime+0x164>
  40469c:	00006021 	move	t4,zero
  4046a0:	00e90018 	mult	a3,t1
  4046a4:	00072fc3 	sra	a1,a3,0x1f
  4046a8:	00002010 	mfhi	a0
  4046ac:	00041943 	sra	v1,a0,0x5
  4046b0:	00651823 	subu	v1,v1,a1
  4046b4:	00031040 	sll	v0,v1,0x1
  4046b8:	00431021 	addu	v0,v0,v1
  4046bc:	000210c0 	sll	v0,v0,0x3
  4046c0:	00431021 	addu	v0,v0,v1
  4046c4:	00021080 	sll	v0,v0,0x2
  4046c8:	14e20009 	bne	a3,v0,4046f0 <localtime+0x160>
  4046cc:	000419c3 	sra	v1,a0,0x7
  4046d0:	00651823 	subu	v1,v1,a1
  4046d4:	00031040 	sll	v0,v1,0x1
  4046d8:	00431021 	addu	v0,v0,v1
  4046dc:	000210c0 	sll	v0,v0,0x3
  4046e0:	00431021 	addu	v0,v0,v1
  4046e4:	00021100 	sll	v0,v0,0x4
  4046e8:	14e20002 	bne	a3,v0,4046f4 <localtime+0x164>
  4046ec:	00000000 	nop
  4046f0:	240c0001 	li	t4,1
  4046f4:	24e7ffff 	addiu	a3,a3,-1
  4046f8:	04e10002 	bgez	a3,404704 <localtime+0x174>
  4046fc:	00e02021 	move	a0,a3
  404700:	24e40003 	addiu	a0,a3,3
  404704:	3c0351eb 	lui	v1,0x51eb
  404708:	3463851f 	ori	v1,v1,0x851f
  40470c:	00e30018 	mult	a3,v1
  404710:	000737c3 	sra	a2,a3,0x1f
  404714:	00042083 	sra	a0,a0,0x2
  404718:	00e42021 	addu	a0,a3,a0
  40471c:	3c059249 	lui	a1,0x9249
  404720:	34a52493 	ori	a1,a1,0x2493
  404724:	00003821 	move	a3,zero
  404728:	00001810 	mfhi	v1
  40472c:	00031143 	sra	v0,v1,0x5
  404730:	00461023 	subu	v0,v0,a2
  404734:	000319c3 	sra	v1,v1,0x7
  404738:	00822023 	subu	a0,a0,v0
  40473c:	00661823 	subu	v1,v1,a2
  404740:	00832021 	addu	a0,a0,v1
  404744:	24840001 	addiu	a0,a0,1
  404748:	00850018 	mult	a0,a1
  40474c:	000417c3 	sra	v0,a0,0x1f
  404750:	00002810 	mfhi	a1
  404754:	00a42821 	addu	a1,a1,a0
  404758:	00052883 	sra	a1,a1,0x2
  40475c:	00a24823 	subu	t1,a1,v0
  404760:	000910c0 	sll	v0,t1,0x3
  404764:	00491023 	subu	v0,v0,t1
  404768:	00824823 	subu	t1,a0,v0
  40476c:	8543000e 	lh	v1,14(t2)
  404770:	2402004a 	li	v0,74
  404774:	95450008 	lhu	a1,8(t2)
  404778:	85460008 	lh	a2,8(t2)
  40477c:	14620007 	bne	v1,v0,40479c <localtime+0x20c>
  404780:	2402004d 	li	v0,77
  404784:	11800003 	beqz	t4,404794 <localtime+0x204>
  404788:	28c2003c 	slti	v0,a2,60
  40478c:	10400044 	beqz	v0,4048a0 <localtime+0x310>
  404790:	00000000 	nop
  404794:	10000042 	b	4048a0 <localtime+0x310>
  404798:	24c6ffff 	addiu	a2,a2,-1
  40479c:	14620040 	bne	v1,v0,4048a0 <localtime+0x310>
  4047a0:	00000000 	nop
  4047a4:	8542000c 	lh	v0,12(t2)
  4047a8:	9548000c 	lhu	t0,12(t2)
  4047ac:	8f84000c 	lw	a0,12(gp)
  4047b0:	00000000 	nop
  4047b4:	2484fa40 	addiu	a0,a0,-1472
  4047b8:	00822021 	addu	a0,a0,v0
  4047bc:	9084ffff 	lbu	a0,-1(a0)
  4047c0:	00021940 	sll	v1,v0,0x5
  4047c4:	00621823 	subu	v1,v1,v0
  4047c8:	11800005 	beqz	t4,4047e0 <localtime+0x250>
  4047cc:	00643023 	subu	a2,v1,a0
  4047d0:	28c2003b 	slti	v0,a2,59
  4047d4:	14400003 	bnez	v0,4047e4 <localtime+0x254>
  4047d8:	00081400 	sll	v0,t0,0x10
  4047dc:	24c60001 	addiu	a2,a2,1
  4047e0:	00081400 	sll	v0,t0,0x10
  4047e4:	00022403 	sra	a0,v0,0x10
  4047e8:	8f83000c 	lw	v1,12(gp)
  4047ec:	00000000 	nop
  4047f0:	2463fa40 	addiu	v1,v1,-1472
  4047f4:	00641821 	addu	v1,v1,a0
  4047f8:	9063ffff 	lbu	v1,-1(v1)
  4047fc:	8f82000c 	lw	v0,12(gp)
  404800:	00000000 	nop
  404804:	2442fa40 	addiu	v0,v0,-1472
  404808:	00441021 	addu	v0,v0,a0
  40480c:	90420000 	lbu	v0,0(v0)
  404810:	00000000 	nop
  404814:	00621823 	subu	v1,v1,v0
  404818:	11800005 	beqz	t4,404830 <localtime+0x2a0>
  40481c:	2468001f 	addiu	t0,v1,31
  404820:	28820002 	slti	v0,a0,2
  404824:	14400002 	bnez	v0,404830 <localtime+0x2a0>
  404828:	00000000 	nop
  40482c:	24680020 	addiu	t0,v1,32
  404830:	3c039249 	lui	v1,0x9249
  404834:	01262021 	addu	a0,t1,a2
  404838:	34632493 	ori	v1,v1,0x2493
  40483c:	00830018 	mult	a0,v1
  404840:	000417c3 	sra	v0,a0,0x1f
  404844:	00052c00 	sll	a1,a1,0x10
  404848:	00052c03 	sra	a1,a1,0x10
  40484c:	00001810 	mfhi	v1
  404850:	00641821 	addu	v1,v1,a0
  404854:	00031883 	sra	v1,v1,0x2
  404858:	00621823 	subu	v1,v1,v0
  40485c:	000310c0 	sll	v0,v1,0x3
  404860:	00431023 	subu	v0,v0,v1
  404864:	00822023 	subu	a0,a0,v0
  404868:	00a42823 	subu	a1,a1,a0
  40486c:	04a00002 	bltz	a1,404878 <localtime+0x2e8>
  404870:	00000000 	nop
  404874:	24a5fff9 	addiu	a1,a1,-7
  404878:	8542000a 	lh	v0,10(t2)
  40487c:	00000000 	nop
  404880:	000218c0 	sll	v1,v0,0x3
  404884:	00621823 	subu	v1,v1,v0
  404888:	00a32821 	addu	a1,a1,v1
  40488c:	00a8102a 	slt	v0,a1,t0
  404890:	14400002 	bnez	v0,40489c <localtime+0x30c>
  404894:	00000000 	nop
  404898:	24a5fff9 	addiu	a1,a1,-7
  40489c:	00c53021 	addu	a2,a2,a1
  4048a0:	10e00009 	beqz	a3,4048c8 <localtime+0x338>
  4048a4:	00061040 	sll	v0,a2,0x1
  4048a8:	8d42ffe8 	lw	v0,-24(t2)
  4048ac:	8d430000 	lw	v1,0(t2)
  4048b0:	00cd202a 	slt	a0,a2,t5
  4048b4:	00431023 	subu	v0,v0,v1
  4048b8:	10800002 	beqz	a0,4048c4 <localtime+0x334>
  4048bc:	01625821 	addu	t3,t3,v0
  4048c0:	25ce0001 	addiu	t6,t6,1
  4048c4:	00061040 	sll	v0,a2,0x1
  4048c8:	00461021 	addu	v0,v0,a2
  4048cc:	00021900 	sll	v1,v0,0x4
  4048d0:	00621823 	subu	v1,v1,v0
  4048d4:	00031100 	sll	v0,v1,0x4
  4048d8:	00431023 	subu	v0,v0,v1
  4048dc:	8d430004 	lw	v1,4(t2)
  4048e0:	000211c0 	sll	v0,v0,0x7
  4048e4:	00431021 	addu	v0,v0,v1
  4048e8:	0162102a 	slt	v0,t3,v0
  4048ec:	14400002 	bnez	v0,4048f8 <localtime+0x368>
  4048f0:	00c06821 	move	t5,a2
  4048f4:	25ce0001 	addiu	t6,t6,1
  4048f8:	24e70001 	addiu	a3,a3,1
  4048fc:	28e20002 	slti	v0,a3,2
  404900:	1440ff9a 	bnez	v0,40476c <localtime+0x1dc>
  404904:	254a0018 	addiu	t2,t2,24
  404908:	03e00008 	jr	ra
  40490c:	31c20001 	andi	v0,t6,0x1

00404910 <localtime_r>:
  404910:	3c1c0001 	lui	gp,0x1
  404914:	279ca150 	addiu	gp,gp,-24240
  404918:	0399e021 	addu	gp,gp,t9
  40491c:	27bdffc8 	addiu	sp,sp,-56
  404920:	afbc0010 	sw	gp,16(sp)
  404924:	afb3002c 	sw	s3,44(sp)
  404928:	00809821 	move	s3,a0
  40492c:	8f840350 	lw	a0,848(gp)
  404930:	afbf0034 	sw	ra,52(sp)
  404934:	afb20028 	sw	s2,40(sp)
  404938:	afb10024 	sw	s1,36(sp)
  40493c:	afb00020 	sw	s0,32(sp)
  404940:	afbc0030 	sw	gp,48(sp)
  404944:	00a08021 	move	s0,a1
  404948:	00008821 	move	s1,zero
  40494c:	8f990344 	lw	t9,836(gp)
  404950:	00000000 	nop
  404954:	0320f809 	jalr	t9
  404958:	00000000 	nop
  40495c:	8fbc0010 	lw	gp,16(sp)
  404960:	00000000 	nop
  404964:	8f920294 	lw	s2,660(gp)
  404968:	8f99004c 	lw	t9,76(gp)
  40496c:	00000000 	nop
  404970:	0320f809 	jalr	t9
  404974:	00000000 	nop
  404978:	8fbc0010 	lw	gp,16(sp)
  40497c:	8e670000 	lw	a3,0(s3)
  404980:	3c027ff6 	lui	v0,0x7ff6
  404984:	8e450000 	lw	a1,0(s2)
  404988:	3442c57f 	ori	v0,v0,0xc57f
  40498c:	3c030009 	lui	v1,0x9
  404990:	34633a80 	ori	v1,v1,0x3a80
  404994:	0047102a 	slt	v0,v0,a3
  404998:	00651823 	subu	v1,v1,a1
  40499c:	27a40018 	addiu	a0,sp,24
  4049a0:	02003021 	move	a2,s0
  4049a4:	10400003 	beqz	v0,4049b4 <localtime_r+0xa4>
  4049a8:	2405fff9 	li	a1,-7
  4049ac:	00031823 	negu	v1,v1
  4049b0:	24050007 	li	a1,7
  4049b4:	00e31021 	addu	v0,a3,v1
  4049b8:	afa20018 	sw	v0,24(sp)
  4049bc:	8f990058 	lw	t9,88(gp)
  4049c0:	00000000 	nop
  4049c4:	0320f809 	jalr	t9
  4049c8:	00000000 	nop
  4049cc:	8fbc0010 	lw	gp,16(sp)
  4049d0:	ae110020 	sw	s1,32(s0)
  4049d4:	26310001 	addiu	s1,s1,1
  4049d8:	2a220002 	slti	v0,s1,2
  4049dc:	26520018 	addiu	s2,s2,24
  4049e0:	1040000a 	beqz	v0,404a0c <localtime_r+0xfc>
  4049e4:	02002021 	move	a0,s0
  4049e8:	8f990008 	lw	t9,8(gp)
  4049ec:	00000000 	nop
  4049f0:	273945f0 	addiu	t9,t9,17904
  4049f4:	00000000 	nop
  4049f8:	0320f809 	jalr	t9
  4049fc:	00000000 	nop
  404a00:	8fbc0010 	lw	gp,16(sp)
  404a04:	1440ffdd 	bnez	v0,40497c <localtime_r+0x6c>
  404a08:	ae020020 	sw	v0,32(s0)
  404a0c:	8f840350 	lw	a0,848(gp)
  404a10:	8f990234 	lw	t9,564(gp)
  404a14:	00000000 	nop
  404a18:	0320f809 	jalr	t9
  404a1c:	00000000 	nop
  404a20:	8fbc0010 	lw	gp,16(sp)
  404a24:	02001021 	move	v0,s0
  404a28:	8fbf0034 	lw	ra,52(sp)
  404a2c:	8fb3002c 	lw	s3,44(sp)
  404a30:	8fb20028 	lw	s2,40(sp)
  404a34:	8fb10024 	lw	s1,36(sp)
  404a38:	8fb00020 	lw	s0,32(sp)
  404a3c:	03e00008 	jr	ra
  404a40:	27bd0038 	addiu	sp,sp,56
	...
  404a50:	3c1c0001 	lui	gp,0x1
  404a54:	279ca010 	addiu	gp,gp,-24560
  404a58:	0399e021 	addu	gp,gp,t9
  404a5c:	00803021 	move	a2,a0
  404a60:	8f8a000c 	lw	t2,12(gp)
  404a64:	00000000 	nop
  404a68:	254afa56 	addiu	t2,t2,-1450
  404a6c:	00004821 	move	t1,zero
  404a70:	2407ffff 	li	a3,-1
  404a74:	90c20000 	lbu	v0,0(a2)
  404a78:	254a0001 	addiu	t2,t2,1
  404a7c:	2443ffd0 	addiu	v1,v0,-48
  404a80:	306300ff 	andi	v1,v1,0xff
  404a84:	00021600 	sll	v0,v0,0x18
  404a88:	2c63000a 	sltiu	v1,v1,10
  404a8c:	10600003 	beqz	v1,404a9c <localtime_r+0x18c>
  404a90:	00021603 	sra	v0,v0,0x18
  404a94:	2447ffd0 	addiu	a3,v0,-48
  404a98:	24c60001 	addiu	a2,a2,1
  404a9c:	90c20000 	lbu	v0,0(a2)
  404aa0:	00071880 	sll	v1,a3,0x2
  404aa4:	00022600 	sll	a0,v0,0x18
  404aa8:	2442ffd0 	addiu	v0,v0,-48
  404aac:	00671821 	addu	v1,v1,a3
  404ab0:	304200ff 	andi	v0,v0,0xff
  404ab4:	00031840 	sll	v1,v1,0x1
  404ab8:	00042603 	sra	a0,a0,0x18
  404abc:	2c42000a 	sltiu	v0,v0,10
  404ac0:	10400003 	beqz	v0,404ad0 <localtime_r+0x1c0>
  404ac4:	00641821 	addu	v1,v1,a0
  404ac8:	2467ffd0 	addiu	a3,v1,-48
  404acc:	24c60001 	addiu	a2,a2,1
  404ad0:	81430000 	lb	v1,0(t2)
  404ad4:	00002021 	move	a0,zero
  404ad8:	00e3102b 	sltu	v0,a3,v1
  404adc:	1040000d 	beqz	v0,404b14 <localtime_r+0x204>
  404ae0:	28680002 	slti	t0,v1,2
  404ae4:	00690018 	mult	v1,t1
  404ae8:	80c30000 	lb	v1,0(a2)
  404aec:	00001012 	mflo	v0
  404af0:	00474821 	addu	t1,v0,a3
  404af4:	2402003a 	li	v0,58
  404af8:	14620003 	bne	v1,v0,404b08 <localtime_r+0x1f8>
  404afc:	00003821 	move	a3,zero
  404b00:	24c60001 	addiu	a2,a2,1
  404b04:	2407ffff 	li	a3,-1
  404b08:	1100ffda 	beqz	t0,404a74 <localtime_r+0x164>
  404b0c:	00c02021 	move	a0,a2
  404b10:	aca90000 	sw	t1,0(a1)
  404b14:	03e00008 	jr	ra
  404b18:	00801021 	move	v0,a0
  404b1c:	3c1c0001 	lui	gp,0x1
  404b20:	279c9f44 	addiu	gp,gp,-24764
  404b24:	0399e021 	addu	gp,gp,t9
  404b28:	90830000 	lbu	v1,0(a0)
  404b2c:	24070003 	li	a3,3
  404b30:	2462ffd0 	addiu	v0,v1,-48
  404b34:	304200ff 	andi	v0,v0,0xff
  404b38:	2c42000a 	sltiu	v0,v0,10
  404b3c:	10400012 	beqz	v0,404b88 <localtime_r+0x278>
  404b40:	00003021 	move	a2,zero
  404b44:	00061080 	sll	v0,a2,0x2
  404b48:	00461021 	addu	v0,v0,a2
  404b4c:	00031e00 	sll	v1,v1,0x18
  404b50:	00021040 	sll	v0,v0,0x1
  404b54:	00031e03 	sra	v1,v1,0x18
  404b58:	00431021 	addu	v0,v0,v1
  404b5c:	24e7ffff 	addiu	a3,a3,-1
  404b60:	2446ffd0 	addiu	a2,v0,-48
  404b64:	10e00008 	beqz	a3,404b88 <localtime_r+0x278>
  404b68:	24840001 	addiu	a0,a0,1
  404b6c:	90830000 	lbu	v1,0(a0)
  404b70:	00000000 	nop
  404b74:	2462ffd0 	addiu	v0,v1,-48
  404b78:	304200ff 	andi	v0,v0,0xff
  404b7c:	2c42000a 	sltiu	v0,v0,10
  404b80:	1440fff1 	bnez	v0,404b48 <localtime_r+0x238>
  404b84:	00061080 	sll	v0,a2,0x2
  404b88:	24020003 	li	v0,3
  404b8c:	14e20002 	bne	a3,v0,404b98 <localtime_r+0x288>
  404b90:	aca60000 	sw	a2,0(a1)
  404b94:	00002021 	move	a0,zero
  404b98:	03e00008 	jr	ra
  404b9c:	00801021 	move	v0,a0

00404ba0 <tzset>:
  404ba0:	3c1c0001 	lui	gp,0x1
  404ba4:	279c9ec0 	addiu	gp,gp,-24896
  404ba8:	0399e021 	addu	gp,gp,t9
  404bac:	27bdff88 	addiu	sp,sp,-120
  404bb0:	afbc0010 	sw	gp,16(sp)
  404bb4:	8f840350 	lw	a0,848(gp)
  404bb8:	afbf0070 	sw	ra,112(sp)
  404bbc:	afbc006c 	sw	gp,108(sp)
  404bc0:	afb60068 	sw	s6,104(sp)
  404bc4:	afb50064 	sw	s5,100(sp)
  404bc8:	afb40060 	sw	s4,96(sp)
  404bcc:	afb3005c 	sw	s3,92(sp)
  404bd0:	afb20058 	sw	s2,88(sp)
  404bd4:	afb10054 	sw	s1,84(sp)
  404bd8:	afb00050 	sw	s0,80(sp)
  404bdc:	8f990344 	lw	t9,836(gp)
  404be0:	00000000 	nop
  404be4:	0320f809 	jalr	t9
  404be8:	00000000 	nop
  404bec:	8fbc0010 	lw	gp,16(sp)
  404bf0:	00000000 	nop
  404bf4:	8f84000c 	lw	a0,12(gp)
  404bf8:	00000000 	nop
  404bfc:	2484fa50 	addiu	a0,a0,-1456
  404c00:	8f99031c 	lw	t9,796(gp)
  404c04:	00000000 	nop
  404c08:	0320f809 	jalr	t9
  404c0c:	00000000 	nop
  404c10:	8fbc0010 	lw	gp,16(sp)
  404c14:	10400005 	beqz	v0,404c2c <tzset+0x8c>
  404c18:	00402821 	move	a1,v0
  404c1c:	80430000 	lb	v1,0(v0)
  404c20:	00000000 	nop
  404c24:	14600017 	bnez	v1,404c84 <tzset+0xe4>
  404c28:	2402003a 	li	v0,58
  404c2c:	8f840294 	lw	a0,660(gp)
  404c30:	00002821 	move	a1,zero
  404c34:	24060030 	li	a2,48
  404c38:	8f990164 	lw	t9,356(gp)
  404c3c:	00000000 	nop
  404c40:	0320f809 	jalr	t9
  404c44:	00000000 	nop
  404c48:	8fbc0010 	lw	gp,16(sp)
  404c4c:	00000000 	nop
  404c50:	8f840294 	lw	a0,660(gp)
  404c54:	00000000 	nop
  404c58:	24840010 	addiu	a0,a0,16
  404c5c:	8f85000c 	lw	a1,12(gp)
  404c60:	00000000 	nop
  404c64:	24a5fa53 	addiu	a1,a1,-1453
  404c68:	8f990380 	lw	t9,896(gp)
  404c6c:	00000000 	nop
  404c70:	0320f809 	jalr	t9
  404c74:	00000000 	nop
  404c78:	8fbc0010 	lw	gp,16(sp)
  404c7c:	100000eb 	b	40502c <tzset+0x48c>
  404c80:	00000000 	nop
  404c84:	14620002 	bne	v1,v0,404c90 <tzset+0xf0>
  404c88:	00000000 	nop
  404c8c:	24a50001 	addiu	a1,a1,1
  404c90:	a3a00040 	sb	zero,64(sp)
  404c94:	00009821 	move	s3,zero
  404c98:	80a30000 	lb	v1,0(a1)
  404c9c:	2402003c 	li	v0,60
  404ca0:	14620003 	bne	v1,v0,404cb0 <tzset+0x110>
  404ca4:	00003021 	move	a2,zero
  404ca8:	24a50001 	addiu	a1,a1,1
  404cac:	2406003e 	li	a2,62
  404cb0:	00138840 	sll	s1,s3,0x1
  404cb4:	02331021 	addu	v0,s1,s3
  404cb8:	000210c0 	sll	v0,v0,0x3
  404cbc:	27b40018 	addiu	s4,sp,24
  404cc0:	02821021 	addu	v0,s4,v0
  404cc4:	24500010 	addiu	s0,v0,16
  404cc8:	10000007 	b	404ce8 <tzset+0x148>
  404ccc:	00009021 	move	s2,zero
  404cd0:	26520001 	addiu	s2,s2,1
  404cd4:	2a420007 	slti	v0,s2,7
  404cd8:	a2070000 	sb	a3,0(s0)
  404cdc:	24a50001 	addiu	a1,a1,1
  404ce0:	1040ffd2 	beqz	v0,404c2c <tzset+0x8c>
  404ce4:	26100001 	addiu	s0,s0,1
  404ce8:	90a70000 	lbu	a3,0(a1)
  404cec:	80a30000 	lb	v1,0(a1)
  404cf0:	2402ff80 	li	v0,-128
  404cf4:	00e21024 	and	v0,a3,v0
  404cf8:	00032040 	sll	a0,v1,0x1
  404cfc:	10600017 	beqz	v1,404d5c <tzset+0x1bc>
  404d00:	00021600 	sll	v0,v0,0x18
  404d04:	14400016 	bnez	v0,404d60 <tzset+0x1c0>
  404d08:	2a420003 	slti	v0,s2,3
  404d0c:	8f820324 	lw	v0,804(gp)
  404d10:	00000000 	nop
  404d14:	8c420000 	lw	v0,0(v0)
  404d18:	00000000 	nop
  404d1c:	00821021 	addu	v0,a0,v0
  404d20:	94420000 	lhu	v0,0(v0)
  404d24:	00000000 	nop
  404d28:	30440800 	andi	a0,v0,0x800
  404d2c:	30420004 	andi	v0,v0,0x4
  404d30:	1440ffe7 	bnez	v0,404cd0 <tzset+0x130>
  404d34:	00000000 	nop
  404d38:	10c00009 	beqz	a2,404d60 <tzset+0x1c0>
  404d3c:	2a420003 	slti	v0,s2,3
  404d40:	1480ffe3 	bnez	a0,404cd0 <tzset+0x130>
  404d44:	2402002b 	li	v0,43
  404d48:	1062ffe1 	beq	v1,v0,404cd0 <tzset+0x130>
  404d4c:	2402002d 	li	v0,45
  404d50:	1062ffe0 	beq	v1,v0,404cd4 <tzset+0x134>
  404d54:	26520001 	addiu	s2,s2,1
  404d58:	2652ffff 	addiu	s2,s2,-1
  404d5c:	2a420003 	slti	v0,s2,3
  404d60:	1440ffb2 	bnez	v0,404c2c <tzset+0x8c>
  404d64:	a2000000 	sb	zero,0(s0)
  404d68:	10c00007 	beqz	a2,404d88 <tzset+0x1e8>
  404d6c:	00000000 	nop
  404d70:	90a20000 	lbu	v0,0(a1)
  404d74:	00000000 	nop
  404d78:	00021600 	sll	v0,v0,0x18
  404d7c:	00021603 	sra	v0,v0,0x18
  404d80:	1446ffaa 	bne	v0,a2,404c2c <tzset+0x8c>
  404d84:	24a50001 	addiu	a1,a1,1
  404d88:	80a30000 	lb	v1,0(a1)
  404d8c:	2402002d 	li	v0,45
  404d90:	90a40000 	lbu	a0,0(a1)
  404d94:	1062000e 	beq	v1,v0,404dd0 <tzset+0x230>
  404d98:	00a08021 	move	s0,a1
  404d9c:	2402002b 	li	v0,43
  404da0:	1062000b 	beq	v1,v0,404dd0 <tzset+0x230>
  404da4:	00000000 	nop
  404da8:	12600008 	beqz	s3,404dcc <tzset+0x22c>
  404dac:	2482ffd0 	addiu	v0,a0,-48
  404db0:	304200ff 	andi	v0,v0,0xff
  404db4:	2c42000a 	sltiu	v0,v0,10
  404db8:	14400004 	bnez	v0,404dcc <tzset+0x22c>
  404dbc:	00000000 	nop
  404dc0:	8fa20048 	lw	v0,72(sp)
  404dc4:	10000015 	b	404e1c <tzset+0x27c>
  404dc8:	2442f1f0 	addiu	v0,v0,-3600
  404dcc:	24a5ffff 	addiu	a1,a1,-1
  404dd0:	24a50001 	addiu	a1,a1,1
  404dd4:	00a02021 	move	a0,a1
  404dd8:	27a50048 	addiu	a1,sp,72
  404ddc:	8f990008 	lw	t9,8(gp)
  404de0:	00000000 	nop
  404de4:	27394a50 	addiu	t9,t9,19024
  404de8:	00000000 	nop
  404dec:	0320f809 	jalr	t9
  404df0:	00000000 	nop
  404df4:	8fbc0010 	lw	gp,16(sp)
  404df8:	1040ff8c 	beqz	v0,404c2c <tzset+0x8c>
  404dfc:	00402821 	move	a1,v0
  404e00:	82030000 	lb	v1,0(s0)
  404e04:	2402002d 	li	v0,45
  404e08:	14620006 	bne	v1,v0,404e24 <tzset+0x284>
  404e0c:	02331021 	addu	v0,s1,s3
  404e10:	8fa20048 	lw	v0,72(sp)
  404e14:	00000000 	nop
  404e18:	00021023 	negu	v0,v0
  404e1c:	afa20048 	sw	v0,72(sp)
  404e20:	02331021 	addu	v0,s1,s3
  404e24:	000210c0 	sll	v0,v0,0x3
  404e28:	8fa30048 	lw	v1,72(sp)
  404e2c:	00541021 	addu	v0,v0,s4
  404e30:	1660000a 	bnez	s3,404e5c <tzset+0x2bc>
  404e34:	ac430000 	sw	v1,0(v0)
  404e38:	8fa20048 	lw	v0,72(sp)
  404e3c:	00000000 	nop
  404e40:	afa20030 	sw	v0,48(sp)
  404e44:	80a20000 	lb	v0,0(a1)
  404e48:	00000000 	nop
  404e4c:	1440ff92 	bnez	v0,404c98 <tzset+0xf8>
  404e50:	24130001 	li	s3,1
  404e54:	1000006c 	b	405008 <tzset+0x468>
  404e58:	00000000 	nop
  404e5c:	80a20000 	lb	v0,0(a1)
  404e60:	00000000 	nop
  404e64:	14400004 	bnez	v0,404e78 <tzset+0x2d8>
  404e68:	00009821 	move	s3,zero
  404e6c:	8f85000c 	lw	a1,12(gp)
  404e70:	00000000 	nop
  404e74:	24a5fa66 	addiu	a1,a1,-1434
  404e78:	0000a821 	move	s5,zero
  404e7c:	0000a021 	move	s4,zero
  404e80:	90a20000 	lbu	v0,0(a1)
  404e84:	2403002c 	li	v1,44
  404e88:	00021600 	sll	v0,v0,0x18
  404e8c:	00021603 	sra	v0,v0,0x18
  404e90:	1443ff66 	bne	v0,v1,404c2c <tzset+0x8c>
  404e94:	24a50001 	addiu	a1,a1,1
  404e98:	80a60000 	lb	a2,0(a1)
  404e9c:	2402004d 	li	v0,77
  404ea0:	2412016d 	li	s2,365
  404ea4:	8f90000c 	lw	s0,12(gp)
  404ea8:	00000000 	nop
  404eac:	2610fa5a 	addiu	s0,s0,-1446
  404eb0:	14c20003 	bne	a2,v0,404ec0 <tzset+0x320>
  404eb4:	24a50001 	addiu	a1,a1,1
  404eb8:	10000009 	b	404ee0 <tzset+0x340>
  404ebc:	2412000c 	li	s2,12
  404ec0:	2402004a 	li	v0,74
  404ec4:	14c20003 	bne	a2,v0,404ed4 <tzset+0x334>
  404ec8:	00000000 	nop
  404ecc:	10000004 	b	404ee0 <tzset+0x340>
  404ed0:	26100008 	addiu	s0,s0,8
  404ed4:	24a5ffff 	addiu	a1,a1,-1
  404ed8:	00003021 	move	a2,zero
  404edc:	26100006 	addiu	s0,s0,6
  404ee0:	27b60018 	addiu	s6,sp,24
  404ee4:	02d41821 	addu	v1,s6,s4
  404ee8:	2402004d 	li	v0,77
  404eec:	a466000e 	sh	a2,14(v1)
  404ef0:	10c20002 	beq	a2,v0,404efc <tzset+0x35c>
  404ef4:	2471000e 	addiu	s1,v1,14
  404ef8:	2471000a 	addiu	s1,v1,10
  404efc:	00a02021 	move	a0,a1
  404f00:	27a5004c 	addiu	a1,sp,76
  404f04:	8f990008 	lw	t9,8(gp)
  404f08:	00000000 	nop
  404f0c:	27394b1c 	addiu	t9,t9,19228
  404f10:	00000000 	nop
  404f14:	0320f809 	jalr	t9
  404f18:	00000000 	nop
  404f1c:	8fbc0010 	lw	gp,16(sp)
  404f20:	2631fffe 	addiu	s1,s1,-2
  404f24:	00402821 	move	a1,v0
  404f28:	1040ff40 	beqz	v0,404c2c <tzset+0x8c>
  404f2c:	26100001 	addiu	s0,s0,1
  404f30:	82030001 	lb	v1,1(s0)
  404f34:	8fa2004c 	lw	v0,76(sp)
  404f38:	00000000 	nop
  404f3c:	00431023 	subu	v0,v0,v1
  404f40:	0242102b 	sltu	v0,s2,v0
  404f44:	1440ff39 	bnez	v0,404c2c <tzset+0x8c>
  404f48:	00000000 	nop
  404f4c:	82030000 	lb	v1,0(s0)
  404f50:	00000000 	nop
  404f54:	10600007 	beqz	v1,404f74 <tzset+0x3d4>
  404f58:	26100002 	addiu	s0,s0,2
  404f5c:	90a20000 	lbu	v0,0(a1)
  404f60:	00000000 	nop
  404f64:	00021600 	sll	v0,v0,0x18
  404f68:	00021603 	sra	v0,v0,0x18
  404f6c:	1443ff2f 	bne	v0,v1,404c2c <tzset+0x8c>
  404f70:	24a50001 	addiu	a1,a1,1
  404f74:	97a2004e 	lhu	v0,78(sp)
  404f78:	00000000 	nop
  404f7c:	a6220000 	sh	v0,0(s1)
  404f80:	82120000 	lb	s2,0(s0)
  404f84:	00000000 	nop
  404f88:	1e40ffdd 	bgtz	s2,404f00 <tzset+0x360>
  404f8c:	00a02021 	move	a0,a1
  404f90:	24021c20 	li	v0,7200
  404f94:	afa20048 	sw	v0,72(sp)
  404f98:	80a30000 	lb	v1,0(a1)
  404f9c:	2402002f 	li	v0,47
  404fa0:	1462000d 	bne	v1,v0,404fd8 <tzset+0x438>
  404fa4:	00000000 	nop
  404fa8:	24a50001 	addiu	a1,a1,1
  404fac:	00a02021 	move	a0,a1
  404fb0:	27a50048 	addiu	a1,sp,72
  404fb4:	8f990008 	lw	t9,8(gp)
  404fb8:	00000000 	nop
  404fbc:	27394a50 	addiu	t9,t9,19024
  404fc0:	00000000 	nop
  404fc4:	0320f809 	jalr	t9
  404fc8:	00000000 	nop
  404fcc:	8fbc0010 	lw	gp,16(sp)
  404fd0:	1040ff16 	beqz	v0,404c2c <tzset+0x8c>
  404fd4:	00402821 	move	a1,v0
  404fd8:	26730001 	addiu	s3,s3,1
  404fdc:	8fa30048 	lw	v1,72(sp)
  404fe0:	02b61021 	addu	v0,s5,s6
  404fe4:	2a640002 	slti	a0,s3,2
  404fe8:	ac430004 	sw	v1,4(v0)
  404fec:	26940018 	addiu	s4,s4,24
  404ff0:	1480ffa3 	bnez	a0,404e80 <tzset+0x2e0>
  404ff4:	26b50018 	addiu	s5,s5,24
  404ff8:	80a20000 	lb	v0,0(a1)
  404ffc:	00000000 	nop
  405000:	1440ff0a 	bnez	v0,404c2c <tzset+0x8c>
  405004:	00000000 	nop
  405008:	8f840294 	lw	a0,660(gp)
  40500c:	27a50018 	addiu	a1,sp,24
  405010:	24060030 	li	a2,48
  405014:	8f9902fc 	lw	t9,764(gp)
  405018:	00000000 	nop
  40501c:	0320f809 	jalr	t9
  405020:	00000000 	nop
  405024:	8fbc0010 	lw	gp,16(sp)
  405028:	00000000 	nop
  40502c:	8f820294 	lw	v0,660(gp)
  405030:	00000000 	nop
  405034:	80420028 	lb	v0,40(v0)
  405038:	8f850294 	lw	a1,660(gp)
  40503c:	00000000 	nop
  405040:	24a50010 	addiu	a1,a1,16
  405044:	0002102b 	sltu	v0,zero,v0
  405048:	8f810364 	lw	at,868(gp)
  40504c:	00000000 	nop
  405050:	ac220000 	sw	v0,0(at)
  405054:	8f820294 	lw	v0,660(gp)
  405058:	00000000 	nop
  40505c:	8c420000 	lw	v0,0(v0)
  405060:	24a30018 	addiu	v1,a1,24
  405064:	8f840350 	lw	a0,848(gp)
  405068:	8f81026c 	lw	at,620(gp)
  40506c:	00000000 	nop
  405070:	ac230004 	sw	v1,4(at)
  405074:	8f81026c 	lw	at,620(gp)
  405078:	00000000 	nop
  40507c:	ac250000 	sw	a1,0(at)
  405080:	8f8101dc 	lw	at,476(gp)
  405084:	00000000 	nop
  405088:	ac220000 	sw	v0,0(at)
  40508c:	8f990234 	lw	t9,564(gp)
  405090:	00000000 	nop
  405094:	0320f809 	jalr	t9
  405098:	00000000 	nop
  40509c:	8fbc0010 	lw	gp,16(sp)
  4050a0:	8fbf0070 	lw	ra,112(sp)
  4050a4:	8fb60068 	lw	s6,104(sp)
  4050a8:	8fb50064 	lw	s5,100(sp)
  4050ac:	8fb40060 	lw	s4,96(sp)
  4050b0:	8fb3005c 	lw	s3,92(sp)
  4050b4:	8fb20058 	lw	s2,88(sp)
  4050b8:	8fb10054 	lw	s1,84(sp)
  4050bc:	8fb00050 	lw	s0,80(sp)
  4050c0:	03e00008 	jr	ra
  4050c4:	27bd0078 	addiu	sp,sp,120
	...

004050d0 <_time_t2tm>:
  4050d0:	3c1c0001 	lui	gp,0x1
  4050d4:	279c9990 	addiu	gp,gp,-26224
  4050d8:	0399e021 	addu	gp,gp,t9
  4050dc:	8c880000 	lw	t0,0(a0)
  4050e0:	00c04821 	move	t1,a2
  4050e4:	acc0001c 	sw	zero,28(a2)
  4050e8:	8f8c000c 	lw	t4,12(gp)
  4050ec:	00000000 	nop
  4050f0:	258cfa80 	addiu	t4,t4,-1408
  4050f4:	00000000 	nop
  4050f8:	95870000 	lhu	a3,0(t4)
  4050fc:	240b0007 	li	t3,7
  405100:	14eb0013 	bne	a3,t3,405150 <_time_t2tm+0x80>
  405104:	00e06821 	move	t5,a3
  405108:	0107001a 	div	zero,t0,a3
  40510c:	15600002 	bnez	t3,405118 <_time_t2tm+0x48>
  405110:	00000000 	nop
  405114:	0007000d 	break	0x7
  405118:	95840002 	lhu	a0,2(t4)
  40511c:	01051021 	addu	v0,t0,a1
  405120:	3c080002 	lui	t0,0x2
  405124:	35080e76 	ori	t0,t0,0xe76
  405128:	01024021 	addu	t0,t0,v0
  40512c:	00001810 	mfhi	v1
  405130:	2463000b 	addiu	v1,v1,11
  405134:	00000000 	nop
  405138:	0067001a 	div	zero,v1,a3
  40513c:	00043880 	sll	a3,a0,0x2
  405140:	24e70001 	addiu	a3,a3,1
  405144:	00005010 	mfhi	t2
	...
  405150:	0107001a 	div	zero,t0,a3
  405154:	14e00002 	bnez	a3,405160 <_time_t2tm+0x90>
  405158:	00000000 	nop
  40515c:	0007000d 	break	0x7
  405160:	00001012 	mflo	v0
  405164:	00001812 	mflo	v1
	...
  405170:	00470018 	mult	v0,a3
  405174:	00001012 	mflo	v0
  405178:	01024023 	subu	t0,t0,v0
  40517c:	05010003 	bgez	t0,40518c <_time_t2tm+0xbc>
  405180:	00000000 	nop
  405184:	01074021 	addu	t0,t0,a3
  405188:	2463ffff 	addiu	v1,v1,-1
  40518c:	15ab0009 	bne	t5,t3,4051b4 <_time_t2tm+0xe4>
  405190:	28e2003d 	slti	v0,a3,61
  405194:	24e2ffff 	addiu	v0,a3,-1
  405198:	15020006 	bne	t0,v0,4051b4 <_time_t2tm+0xe4>
  40519c:	28e2003d 	slti	v0,a3,61
  4051a0:	8d220010 	lw	v0,16(t1)
  4051a4:	24e8fffe 	addiu	t0,a3,-2
  4051a8:	24420001 	addiu	v0,v0,1
  4051ac:	ad220010 	sw	v0,16(t1)
  4051b0:	28e2003d 	slti	v0,a3,61
  4051b4:	25840002 	addiu	a0,t4,2
  4051b8:	10400004 	beqz	v0,4051cc <_time_t2tm+0xfc>
  4051bc:	25270004 	addiu	a3,t1,4
  4051c0:	ad280000 	sw	t0,0(t1)
  4051c4:	10000002 	b	4051d0 <_time_t2tm+0x100>
  4051c8:	00604021 	move	t0,v1
  4051cc:	ad230000 	sw	v1,0(t1)
  4051d0:	94820000 	lhu	v0,0(a0)
  4051d4:	00e04821 	move	t1,a3
  4051d8:	1440ffc7 	bnez	v0,4050f8 <_time_t2tm+0x28>
  4051dc:	00806021 	move	t4,a0
  4051e0:	8ce3fffc 	lw	v1,-4(a3)
  4051e4:	24020004 	li	v0,4
  4051e8:	14620003 	bne	v1,v0,4051f8 <_time_t2tm+0x128>
  4051ec:	24020003 	li	v0,3
  4051f0:	ace2fffc 	sw	v0,-4(a3)
  4051f4:	2408016d 	li	t0,365
  4051f8:	8ce20000 	lw	v0,0(a3)
  4051fc:	24e9fff8 	addiu	t1,a3,-8
  405200:	00481021 	addu	v0,v0,t0
  405204:	ace20000 	sw	v0,0(a3)
  405208:	8d23fff8 	lw	v1,-8(t1)
  40520c:	8d22fffc 	lw	v0,-4(t1)
  405210:	00031880 	sll	v1,v1,0x2
  405214:	00621821 	addu	v1,v1,v0
  405218:	00031040 	sll	v0,v1,0x1
  40521c:	00431021 	addu	v0,v0,v1
  405220:	8ce4fff8 	lw	a0,-8(a3)
  405224:	000210c0 	sll	v0,v0,0x3
  405228:	00431021 	addu	v0,v0,v1
  40522c:	00441021 	addu	v0,v0,a0
  405230:	8d230004 	lw	v1,4(t1)
  405234:	00021080 	sll	v0,v0,0x2
  405238:	00431021 	addu	v0,v0,v1
  40523c:	2443fed5 	addiu	v1,v0,-299
  405240:	ace3fff8 	sw	v1,-8(a3)
  405244:	ad2a0004 	sw	t2,4(t1)
  405248:	244a0641 	addiu	t2,v0,1601
  40524c:	31420003 	andi	v0,t2,0x3
  405250:	8f87000c 	lw	a3,12(gp)
  405254:	00000000 	nop
  405258:	24e7fa90 	addiu	a3,a3,-1392
  40525c:	14400017 	bnez	v0,4052bc <_time_t2tm+0x1ec>
  405260:	3c0251eb 	lui	v0,0x51eb
  405264:	3442851f 	ori	v0,v0,0x851f
  405268:	01420018 	mult	t2,v0
  40526c:	000a2fc3 	sra	a1,t2,0x1f
  405270:	00002010 	mfhi	a0
  405274:	00041943 	sra	v1,a0,0x5
  405278:	00651823 	subu	v1,v1,a1
  40527c:	00031040 	sll	v0,v1,0x1
  405280:	00431021 	addu	v0,v0,v1
  405284:	000210c0 	sll	v0,v0,0x3
  405288:	00431021 	addu	v0,v0,v1
  40528c:	00021080 	sll	v0,v0,0x2
  405290:	15420009 	bne	t2,v0,4052b8 <_time_t2tm+0x1e8>
  405294:	000419c3 	sra	v1,a0,0x7
  405298:	00651823 	subu	v1,v1,a1
  40529c:	00031040 	sll	v0,v1,0x1
  4052a0:	00431021 	addu	v0,v0,v1
  4052a4:	000210c0 	sll	v0,v0,0x3
  4052a8:	00431021 	addu	v0,v0,v1
  4052ac:	00021100 	sll	v0,v0,0x4
  4052b0:	15420002 	bne	t2,v0,4052bc <_time_t2tm+0x1ec>
  4052b4:	00000000 	nop
  4052b8:	24e7000b 	addiu	a3,a3,11
  4052bc:	8d220008 	lw	v0,8(t1)
  4052c0:	2529fffc 	addiu	t1,t1,-4
  4052c4:	ad200000 	sw	zero,0(t1)
  4052c8:	90e30000 	lbu	v1,0(a3)
  4052cc:	244a0001 	addiu	t2,v0,1
  4052d0:	006a102a 	slt	v0,v1,t2
  4052d4:	1040000e 	beqz	v0,405310 <_time_t2tm+0x240>
  4052d8:	00c01021 	move	v0,a2
  4052dc:	2402001d 	li	v0,29
  4052e0:	14620002 	bne	v1,v0,4052ec <_time_t2tm+0x21c>
  4052e4:	01435023 	subu	t2,t2,v1
  4052e8:	24e7fff5 	addiu	a3,a3,-11
  4052ec:	8d220000 	lw	v0,0(t1)
  4052f0:	24e70001 	addiu	a3,a3,1
  4052f4:	24420001 	addiu	v0,v0,1
  4052f8:	ad220000 	sw	v0,0(t1)
  4052fc:	90e30000 	lbu	v1,0(a3)
  405300:	00000000 	nop
  405304:	006a102a 	slt	v0,v1,t2
  405308:	1440fff4 	bnez	v0,4052dc <_time_t2tm+0x20c>
  40530c:	00c01021 	move	v0,a2
  405310:	ad2afffc 	sw	t2,-4(t1)
  405314:	03e00008 	jr	ra
  405318:	ad200010 	sw	zero,16(t1)
  40531c:	00000000 	nop

00405320 <pthread_exit>:
  405320:	3c1c0001 	lui	gp,0x1
  405324:	279c9740 	addiu	gp,gp,-26816
  405328:	0399e021 	addu	gp,gp,t9
  40532c:	27bdffe0 	addiu	sp,sp,-32
  405330:	afbc0010 	sw	gp,16(sp)
  405334:	00002021 	move	a0,zero
  405338:	afbf001c 	sw	ra,28(sp)
  40533c:	afbc0018 	sw	gp,24(sp)
  405340:	8f9900b4 	lw	t9,180(gp)
  405344:	00000000 	nop
  405348:	0320f809 	jalr	t9
  40534c:	00000000 	nop
  405350:	8fbc0010 	lw	gp,16(sp)
  405354:	00000000 	nop

00405358 <__pthread_return_0>:
  405358:	3c1c0001 	lui	gp,0x1
  40535c:	279c9708 	addiu	gp,gp,-26872
  405360:	0399e021 	addu	gp,gp,t9
  405364:	03e00008 	jr	ra
  405368:	00001021 	move	v0,zero

0040536c <__pthread_return_1>:
  40536c:	3c1c0001 	lui	gp,0x1
  405370:	279c96f4 	addiu	gp,gp,-26892
  405374:	0399e021 	addu	gp,gp,t9
  405378:	03e00008 	jr	ra
  40537c:	24020001 	li	v0,1

00405380 <__pthread_return_void>:
  405380:	3c1c0001 	lui	gp,0x1
  405384:	279c96e0 	addiu	gp,gp,-26912
  405388:	0399e021 	addu	gp,gp,t9
  40538c:	03e00008 	jr	ra
  405390:	00000000 	nop
	...

004053a0 <fclose>:
  4053a0:	3c1c0001 	lui	gp,0x1
  4053a4:	279c96c0 	addiu	gp,gp,-26944
  4053a8:	0399e021 	addu	gp,gp,t9
  4053ac:	27bdffd8 	addiu	sp,sp,-40
  4053b0:	afbc0010 	sw	gp,16(sp)
  4053b4:	afb1001c 	sw	s1,28(sp)
  4053b8:	afb00018 	sw	s0,24(sp)
  4053bc:	afbf0024 	sw	ra,36(sp)
  4053c0:	afbc0020 	sw	gp,32(sp)
  4053c4:	00808021 	move	s0,a0
  4053c8:	00008821 	move	s1,zero
  4053cc:	8e020034 	lw	v0,52(s0)
  4053d0:	00000000 	nop
  4053d4:	14400007 	bnez	v0,4053f4 <fclose+0x54>
  4053d8:	26040038 	addiu	a0,s0,56
  4053dc:	8f990344 	lw	t9,836(gp)
  4053e0:	00000000 	nop
  4053e4:	0320f809 	jalr	t9
  4053e8:	00000000 	nop
  4053ec:	8fbc0010 	lw	gp,16(sp)
  4053f0:	00000000 	nop
  4053f4:	8f84009c 	lw	a0,156(gp)
  4053f8:	8f99021c 	lw	t9,540(gp)
  4053fc:	00000000 	nop
  405400:	0320f809 	jalr	t9
  405404:	00000000 	nop
  405408:	8fbc0010 	lw	gp,16(sp)
  40540c:	10400012 	beqz	v0,405458 <fclose+0xb8>
  405410:	26040038 	addiu	a0,s0,56
  405414:	8e020034 	lw	v0,52(s0)
  405418:	00000000 	nop
  40541c:	14400006 	bnez	v0,405438 <fclose+0x98>
  405420:	00000000 	nop
  405424:	8f990234 	lw	t9,564(gp)
  405428:	00000000 	nop
  40542c:	0320f809 	jalr	t9
  405430:	00000000 	nop
  405434:	8fbc0010 	lw	gp,16(sp)
  405438:	24042710 	li	a0,10000
  40543c:	8f990314 	lw	t9,788(gp)
  405440:	00000000 	nop
  405444:	0320f809 	jalr	t9
  405448:	00000000 	nop
  40544c:	8fbc0010 	lw	gp,16(sp)
  405450:	1000ffde 	b	4053cc <fclose+0x2c>
  405454:	00000000 	nop
  405458:	96020000 	lhu	v0,0(s0)
  40545c:	00000000 	nop
  405460:	30422000 	andi	v0,v0,0x2000
  405464:	10400007 	beqz	v0,405484 <fclose+0xe4>
  405468:	02002021 	move	a0,s0
  40546c:	8f9900f0 	lw	t9,240(gp)
  405470:	00000000 	nop
  405474:	0320f809 	jalr	t9
  405478:	00000000 	nop
  40547c:	8fbc0010 	lw	gp,16(sp)
  405480:	00408821 	move	s1,v0
  405484:	8e020014 	lw	v0,20(s0)
  405488:	00000000 	nop
  40548c:	ae020024 	sw	v0,36(s0)
  405490:	8f830210 	lw	v1,528(gp)
  405494:	00000000 	nop
  405498:	8c630000 	lw	v1,0(v1)
  40549c:	00000000 	nop
  4054a0:	14700009 	bne	v1,s0,4054c8 <fclose+0x128>
  4054a4:	00000000 	nop
  4054a8:	8e020010 	lw	v0,16(s0)
  4054ac:	8f810210 	lw	at,528(gp)
  4054b0:	00000000 	nop
  4054b4:	1000000c 	b	4054e8 <fclose+0x148>
  4054b8:	ac220000 	sw	v0,0(at)
  4054bc:	8e020010 	lw	v0,16(s0)
  4054c0:	10000009 	b	4054e8 <fclose+0x148>
  4054c4:	ac620010 	sw	v0,16(v1)
  4054c8:	10600007 	beqz	v1,4054e8 <fclose+0x148>
  4054cc:	00000000 	nop
  4054d0:	8c620010 	lw	v0,16(v1)
  4054d4:	00000000 	nop
  4054d8:	1050fff8 	beq	v0,s0,4054bc <fclose+0x11c>
  4054dc:	00000000 	nop
  4054e0:	1440fffb 	bnez	v0,4054d0 <fclose+0x130>
  4054e4:	00401821 	move	v1,v0
  4054e8:	8f84009c 	lw	a0,156(gp)
  4054ec:	8f990234 	lw	t9,564(gp)
  4054f0:	00000000 	nop
  4054f4:	0320f809 	jalr	t9
  4054f8:	00000000 	nop
  4054fc:	8fbc0010 	lw	gp,16(sp)
  405500:	8e04000c 	lw	a0,12(s0)
  405504:	8f990038 	lw	t9,56(gp)
  405508:	00000000 	nop
  40550c:	0320f809 	jalr	t9
  405510:	00000000 	nop
  405514:	8fbc0010 	lw	gp,16(sp)
  405518:	04410002 	bgez	v0,405524 <fclose+0x184>
  40551c:	00000000 	nop
  405520:	2411ffff 	li	s1,-1
  405524:	96020000 	lhu	v0,0(s0)
  405528:	2403ffff 	li	v1,-1
  40552c:	30424000 	andi	v0,v0,0x4000
  405530:	10400007 	beqz	v0,405550 <fclose+0x1b0>
  405534:	ae03000c 	sw	v1,12(s0)
  405538:	8e040014 	lw	a0,20(s0)
  40553c:	8f990020 	lw	t9,32(gp)
  405540:	00000000 	nop
  405544:	0320f809 	jalr	t9
  405548:	00000000 	nop
  40554c:	8fbc0010 	lw	gp,16(sp)
  405550:	8e020034 	lw	v0,52(s0)
  405554:	00000000 	nop
  405558:	14400006 	bnez	v0,405574 <fclose+0x1d4>
  40555c:	26040038 	addiu	a0,s0,56
  405560:	8f990234 	lw	t9,564(gp)
  405564:	00000000 	nop
  405568:	0320f809 	jalr	t9
  40556c:	00000000 	nop
  405570:	8fbc0010 	lw	gp,16(sp)
  405574:	96020000 	lhu	v0,0(s0)
  405578:	00000000 	nop
  40557c:	30420040 	andi	v0,v0,0x40
  405580:	10400008 	beqz	v0,4055a4 <fclose+0x204>
  405584:	02201021 	move	v0,s1
  405588:	02002021 	move	a0,s0
  40558c:	8f990020 	lw	t9,32(gp)
  405590:	00000000 	nop
  405594:	0320f809 	jalr	t9
  405598:	00000000 	nop
  40559c:	8fbc0010 	lw	gp,16(sp)
  4055a0:	02201021 	move	v0,s1
  4055a4:	8fbf0024 	lw	ra,36(sp)
  4055a8:	8fb1001c 	lw	s1,28(sp)
  4055ac:	8fb00018 	lw	s0,24(sp)
  4055b0:	03e00008 	jr	ra
  4055b4:	27bd0028 	addiu	sp,sp,40
	...

004055c0 <fflush>:
  4055c0:	3c1c0001 	lui	gp,0x1
  4055c4:	279c94a0 	addiu	gp,gp,-27488
  4055c8:	0399e021 	addu	gp,gp,t9
  4055cc:	27bdffd8 	addiu	sp,sp,-40
  4055d0:	afbc0010 	sw	gp,16(sp)
  4055d4:	afb00018 	sw	s0,24(sp)
  4055d8:	afbf0024 	sw	ra,36(sp)
  4055dc:	afbc0020 	sw	gp,32(sp)
  4055e0:	afb1001c 	sw	s1,28(sp)
  4055e4:	10800020 	beqz	a0,405668 <fflush+0xa8>
  4055e8:	00808021 	move	s0,a0
  4055ec:	8f820210 	lw	v0,528(gp)
  4055f0:	00000000 	nop
  4055f4:	1082001c 	beq	a0,v0,405668 <fflush+0xa8>
  4055f8:	00000000 	nop
  4055fc:	8c820034 	lw	v0,52(a0)
  405600:	00000000 	nop
  405604:	14400006 	bnez	v0,405620 <fflush+0x60>
  405608:	24840038 	addiu	a0,a0,56
  40560c:	8f990344 	lw	t9,836(gp)
  405610:	00000000 	nop
  405614:	0320f809 	jalr	t9
  405618:	00000000 	nop
  40561c:	8fbc0010 	lw	gp,16(sp)
  405620:	02002021 	move	a0,s0
  405624:	8f9900f0 	lw	t9,240(gp)
  405628:	00000000 	nop
  40562c:	0320f809 	jalr	t9
  405630:	00000000 	nop
  405634:	8fbc0010 	lw	gp,16(sp)
  405638:	00408821 	move	s1,v0
  40563c:	8e020034 	lw	v0,52(s0)
  405640:	00000000 	nop
  405644:	1440000e 	bnez	v0,405680 <fflush+0xc0>
  405648:	26040038 	addiu	a0,s0,56
  40564c:	8f990234 	lw	t9,564(gp)
  405650:	00000000 	nop
  405654:	0320f809 	jalr	t9
  405658:	00000000 	nop
  40565c:	8fbc0010 	lw	gp,16(sp)
  405660:	10000008 	b	405684 <fflush+0xc4>
  405664:	02201021 	move	v0,s1
  405668:	8f9900f0 	lw	t9,240(gp)
  40566c:	00000000 	nop
  405670:	0320f809 	jalr	t9
  405674:	00000000 	nop
  405678:	8fbc0010 	lw	gp,16(sp)
  40567c:	00408821 	move	s1,v0
  405680:	02201021 	move	v0,s1
  405684:	8fbf0024 	lw	ra,36(sp)
  405688:	8fb1001c 	lw	s1,28(sp)
  40568c:	8fb00018 	lw	s0,24(sp)
  405690:	03e00008 	jr	ra
  405694:	27bd0028 	addiu	sp,sp,40

00405698 <fflush_unlocked>:
  405698:	3c1c0001 	lui	gp,0x1
  40569c:	279c93c8 	addiu	gp,gp,-27704
  4056a0:	0399e021 	addu	gp,gp,t9
  4056a4:	27bdffd0 	addiu	sp,sp,-48
  4056a8:	afbc0010 	sw	gp,16(sp)
  4056ac:	8f820210 	lw	v0,528(gp)
  4056b0:	afb20020 	sw	s2,32(sp)
  4056b4:	afb1001c 	sw	s1,28(sp)
  4056b8:	afb00018 	sw	s0,24(sp)
  4056bc:	afbf0028 	sw	ra,40(sp)
  4056c0:	afbc0024 	sw	gp,36(sp)
  4056c4:	00808021 	move	s0,a0
  4056c8:	00008821 	move	s1,zero
  4056cc:	14820003 	bne	a0,v0,4056dc <fflush_unlocked+0x44>
  4056d0:	24120300 	li	s2,768
  4056d4:	00008021 	move	s0,zero
  4056d8:	24120100 	li	s2,256
  4056dc:	1600002a 	bnez	s0,405788 <fflush_unlocked+0xf0>
  4056e0:	00000000 	nop
  4056e4:	8f84009c 	lw	a0,156(gp)
  4056e8:	8f990344 	lw	t9,836(gp)
  4056ec:	00000000 	nop
  4056f0:	0320f809 	jalr	t9
  4056f4:	00000000 	nop
  4056f8:	8fbc0010 	lw	gp,16(sp)
  4056fc:	00000000 	nop
  405700:	8f900210 	lw	s0,528(gp)
  405704:	00000000 	nop
  405708:	8e100000 	lw	s0,0(s0)
  40570c:	00000000 	nop
  405710:	12000015 	beqz	s0,405768 <fflush_unlocked+0xd0>
  405714:	00000000 	nop
  405718:	96030000 	lhu	v1,0(s0)
  40571c:	00000000 	nop
  405720:	38620200 	xori	v0,v1,0x200
  405724:	02421024 	and	v0,s2,v0
  405728:	1040000b 	beqz	v0,405758 <fflush_unlocked+0xc0>
  40572c:	30632000 	andi	v1,v1,0x2000
  405730:	10600009 	beqz	v1,405758 <fflush_unlocked+0xc0>
  405734:	02002021 	move	a0,s0
  405738:	8f9902a4 	lw	t9,676(gp)
  40573c:	00000000 	nop
  405740:	0320f809 	jalr	t9
  405744:	00000000 	nop
  405748:	8fbc0010 	lw	gp,16(sp)
  40574c:	10400002 	beqz	v0,405758 <fflush_unlocked+0xc0>
  405750:	00000000 	nop
  405754:	2411ffff 	li	s1,-1
  405758:	8e100010 	lw	s0,16(s0)
  40575c:	00000000 	nop
  405760:	1600ffed 	bnez	s0,405718 <fflush_unlocked+0x80>
  405764:	00000000 	nop
  405768:	8f84009c 	lw	a0,156(gp)
  40576c:	8f990234 	lw	t9,564(gp)
  405770:	00000000 	nop
  405774:	0320f809 	jalr	t9
  405778:	00000000 	nop
  40577c:	8fbc0010 	lw	gp,16(sp)
  405780:	10000012 	b	4057cc <fflush_unlocked+0x134>
  405784:	02201021 	move	v0,s1
  405788:	96020000 	lhu	v0,0(s0)
  40578c:	00000000 	nop
  405790:	30422000 	andi	v0,v0,0x2000
  405794:	1040000d 	beqz	v0,4057cc <fflush_unlocked+0x134>
  405798:	02201021 	move	v0,s1
  40579c:	02003021 	move	a2,s0
  4057a0:	00002021 	move	a0,zero
  4057a4:	00002821 	move	a1,zero
  4057a8:	8f990358 	lw	t9,856(gp)
  4057ac:	00000000 	nop
  4057b0:	0320f809 	jalr	t9
  4057b4:	00000000 	nop
  4057b8:	8fbc0010 	lw	gp,16(sp)
  4057bc:	10400003 	beqz	v0,4057cc <fflush_unlocked+0x134>
  4057c0:	02201021 	move	v0,s1
  4057c4:	2411ffff 	li	s1,-1
  4057c8:	02201021 	move	v0,s1
  4057cc:	8fbf0028 	lw	ra,40(sp)
  4057d0:	8fb20020 	lw	s2,32(sp)
  4057d4:	8fb1001c 	lw	s1,28(sp)
  4057d8:	8fb00018 	lw	s0,24(sp)
  4057dc:	03e00008 	jr	ra
  4057e0:	27bd0030 	addiu	sp,sp,48
	...

004057f0 <fopen>:
  4057f0:	3c1c0001 	lui	gp,0x1
  4057f4:	279c9270 	addiu	gp,gp,-28048
  4057f8:	0399e021 	addu	gp,gp,t9
  4057fc:	27bdffe0 	addiu	sp,sp,-32
  405800:	afbc0010 	sw	gp,16(sp)
  405804:	00003021 	move	a2,zero
  405808:	2407ffff 	li	a3,-1
  40580c:	afbf001c 	sw	ra,28(sp)
  405810:	afbc0018 	sw	gp,24(sp)
  405814:	8f990124 	lw	t9,292(gp)
  405818:	00000000 	nop
  40581c:	0320f809 	jalr	t9
  405820:	00000000 	nop
  405824:	8fbc0010 	lw	gp,16(sp)
  405828:	8fbf001c 	lw	ra,28(sp)
  40582c:	00000000 	nop
  405830:	03e00008 	jr	ra
  405834:	27bd0020 	addiu	sp,sp,32
	...

00405840 <perror>:
  405840:	3c1c0001 	lui	gp,0x1
  405844:	279c9220 	addiu	gp,gp,-28128
  405848:	0399e021 	addu	gp,gp,t9
  40584c:	27bdff90 	addiu	sp,sp,-112
  405850:	afbc0018 	sw	gp,24(sp)
  405854:	afb10064 	sw	s1,100(sp)
  405858:	afb00060 	sw	s0,96(sp)
  40585c:	afbf006c 	sw	ra,108(sp)
  405860:	afbc0068 	sw	gp,104(sp)
  405864:	8f91000c 	lw	s1,12(gp)
  405868:	00000000 	nop
  40586c:	2631faa0 	addiu	s1,s1,-1376
  405870:	10800005 	beqz	a0,405888 <perror+0x48>
  405874:	00808021 	move	s0,a0
  405878:	80820000 	lb	v0,0(a0)
  40587c:	00000000 	nop
  405880:	14400003 	bnez	v0,405890 <perror+0x50>
  405884:	00000000 	nop
  405888:	26310002 	addiu	s1,s1,2
  40588c:	02208021 	move	s0,s1
  405890:	8f9900bc 	lw	t9,188(gp)
  405894:	00000000 	nop
  405898:	0320f809 	jalr	t9
  40589c:	00000000 	nop
  4058a0:	8fbc0018 	lw	gp,24(sp)
  4058a4:	8c440000 	lw	a0,0(v0)
  4058a8:	27a50020 	addiu	a1,sp,32
  4058ac:	24060040 	li	a2,64
  4058b0:	8f99027c 	lw	t9,636(gp)
  4058b4:	00000000 	nop
  4058b8:	0320f809 	jalr	t9
  4058bc:	00000000 	nop
  4058c0:	8fbc0018 	lw	gp,24(sp)
  4058c4:	00000000 	nop
  4058c8:	8f840110 	lw	a0,272(gp)
  4058cc:	00000000 	nop
  4058d0:	8c840000 	lw	a0,0(a0)
  4058d4:	02003021 	move	a2,s0
  4058d8:	02203821 	move	a3,s1
  4058dc:	8f85000c 	lw	a1,12(gp)
  4058e0:	00000000 	nop
  4058e4:	24a5faa4 	addiu	a1,a1,-1372
  4058e8:	afa20010 	sw	v0,16(sp)
  4058ec:	8f990224 	lw	t9,548(gp)
  4058f0:	00000000 	nop
  4058f4:	0320f809 	jalr	t9
  4058f8:	00000000 	nop
  4058fc:	8fbc0018 	lw	gp,24(sp)
  405900:	8fbf006c 	lw	ra,108(sp)
  405904:	8fb10064 	lw	s1,100(sp)
  405908:	8fb00060 	lw	s0,96(sp)
  40590c:	03e00008 	jr	ra
  405910:	27bd0070 	addiu	sp,sp,112
	...

00405920 <fgets>:
  405920:	3c1c0001 	lui	gp,0x1
  405924:	279c9140 	addiu	gp,gp,-28352
  405928:	0399e021 	addu	gp,gp,t9
  40592c:	27bdffd0 	addiu	sp,sp,-48
  405930:	afbc0010 	sw	gp,16(sp)
  405934:	afb20020 	sw	s2,32(sp)
  405938:	afb1001c 	sw	s1,28(sp)
  40593c:	afb00018 	sw	s0,24(sp)
  405940:	afbf0028 	sw	ra,40(sp)
  405944:	afbc0024 	sw	gp,36(sp)
  405948:	8cc30034 	lw	v1,52(a2)
  40594c:	24c20038 	addiu	v0,a2,56
  405950:	00809021 	move	s2,a0
  405954:	00c08021 	move	s0,a2
  405958:	00402021 	move	a0,v0
  40595c:	14600006 	bnez	v1,405978 <fgets+0x58>
  405960:	00a08821 	move	s1,a1
  405964:	8f990344 	lw	t9,836(gp)
  405968:	00000000 	nop
  40596c:	0320f809 	jalr	t9
  405970:	00000000 	nop
  405974:	8fbc0010 	lw	gp,16(sp)
  405978:	02402021 	move	a0,s2
  40597c:	02202821 	move	a1,s1
  405980:	02003021 	move	a2,s0
  405984:	8f99008c 	lw	t9,140(gp)
  405988:	00000000 	nop
  40598c:	0320f809 	jalr	t9
  405990:	00000000 	nop
  405994:	8fbc0010 	lw	gp,16(sp)
  405998:	00408821 	move	s1,v0
  40599c:	8e020034 	lw	v0,52(s0)
  4059a0:	00000000 	nop
  4059a4:	14400006 	bnez	v0,4059c0 <fgets+0xa0>
  4059a8:	26040038 	addiu	a0,s0,56
  4059ac:	8f990234 	lw	t9,564(gp)
  4059b0:	00000000 	nop
  4059b4:	0320f809 	jalr	t9
  4059b8:	00000000 	nop
  4059bc:	8fbc0010 	lw	gp,16(sp)
  4059c0:	02201021 	move	v0,s1
  4059c4:	8fbf0028 	lw	ra,40(sp)
  4059c8:	8fb20020 	lw	s2,32(sp)
  4059cc:	8fb1001c 	lw	s1,28(sp)
  4059d0:	8fb00018 	lw	s0,24(sp)
  4059d4:	03e00008 	jr	ra
  4059d8:	27bd0030 	addiu	sp,sp,48

004059dc <fgets_unlocked>:
  4059dc:	3c1c0001 	lui	gp,0x1
  4059e0:	279c9084 	addiu	gp,gp,-28540
  4059e4:	0399e021 	addu	gp,gp,t9
  4059e8:	27bdffd0 	addiu	sp,sp,-48
  4059ec:	afbc0010 	sw	gp,16(sp)
  4059f0:	afb30024 	sw	s3,36(sp)
  4059f4:	afb20020 	sw	s2,32(sp)
  4059f8:	afbf002c 	sw	ra,44(sp)
  4059fc:	afbc0028 	sw	gp,40(sp)
  405a00:	afb1001c 	sw	s1,28(sp)
  405a04:	afb00018 	sw	s0,24(sp)
  405a08:	00809021 	move	s2,a0
  405a0c:	18a00022 	blez	a1,405a98 <fgets_unlocked+0xbc>
  405a10:	00c09821 	move	s3,a2
  405a14:	24b0ffff 	addiu	s0,a1,-1
  405a18:	1200001a 	beqz	s0,405a84 <fgets_unlocked+0xa8>
  405a1c:	00808821 	move	s1,a0
  405a20:	02602021 	move	a0,s3
  405a24:	8f99032c 	lw	t9,812(gp)
  405a28:	00000000 	nop
  405a2c:	0320f809 	jalr	t9
  405a30:	00000000 	nop
  405a34:	8fbc0010 	lw	gp,16(sp)
  405a38:	00401821 	move	v1,v0
  405a3c:	00021600 	sll	v0,v0,0x18
  405a40:	00022603 	sra	a0,v0,0x18
  405a44:	2402ffff 	li	v0,-1
  405a48:	14620008 	bne	v1,v0,405a6c <fgets_unlocked+0x90>
  405a4c:	2610ffff 	addiu	s0,s0,-1
  405a50:	96620000 	lhu	v0,0(s3)
  405a54:	00000000 	nop
  405a58:	30420008 	andi	v0,v0,0x8
  405a5c:	10400009 	beqz	v0,405a84 <fgets_unlocked+0xa8>
  405a60:	00001021 	move	v0,zero
  405a64:	1000000d 	b	405a9c <fgets_unlocked+0xc0>
  405a68:	00000000 	nop
  405a6c:	2402000a 	li	v0,10
  405a70:	a2230000 	sb	v1,0(s1)
  405a74:	10820003 	beq	a0,v0,405a84 <fgets_unlocked+0xa8>
  405a78:	26310001 	addiu	s1,s1,1
  405a7c:	1600ffe9 	bnez	s0,405a24 <fgets_unlocked+0x48>
  405a80:	02602021 	move	a0,s3
  405a84:	0251102b 	sltu	v0,s2,s1
  405a88:	10400003 	beqz	v0,405a98 <fgets_unlocked+0xbc>
  405a8c:	02401021 	move	v0,s2
  405a90:	10000002 	b	405a9c <fgets_unlocked+0xc0>
  405a94:	a2200000 	sb	zero,0(s1)
  405a98:	00001021 	move	v0,zero
  405a9c:	8fbf002c 	lw	ra,44(sp)
  405aa0:	8fb30024 	lw	s3,36(sp)
  405aa4:	8fb20020 	lw	s2,32(sp)
  405aa8:	8fb1001c 	lw	s1,28(sp)
  405aac:	8fb00018 	lw	s0,24(sp)
  405ab0:	03e00008 	jr	ra
  405ab4:	27bd0030 	addiu	sp,sp,48
	...

00405ac0 <fputs>:
  405ac0:	3c1c0001 	lui	gp,0x1
  405ac4:	279c8fa0 	addiu	gp,gp,-28768
  405ac8:	0399e021 	addu	gp,gp,t9
  405acc:	27bdffd8 	addiu	sp,sp,-40
  405ad0:	afbc0010 	sw	gp,16(sp)
  405ad4:	afb1001c 	sw	s1,28(sp)
  405ad8:	afb00018 	sw	s0,24(sp)
  405adc:	afbf0024 	sw	ra,36(sp)
  405ae0:	afbc0020 	sw	gp,32(sp)
  405ae4:	8ca30034 	lw	v1,52(a1)
  405ae8:	24a20038 	addiu	v0,a1,56
  405aec:	00808821 	move	s1,a0
  405af0:	00a08021 	move	s0,a1
  405af4:	14600006 	bnez	v1,405b10 <fputs+0x50>
  405af8:	00402021 	move	a0,v0
  405afc:	8f990344 	lw	t9,836(gp)
  405b00:	00000000 	nop
  405b04:	0320f809 	jalr	t9
  405b08:	00000000 	nop
  405b0c:	8fbc0010 	lw	gp,16(sp)
  405b10:	02202021 	move	a0,s1
  405b14:	02002821 	move	a1,s0
  405b18:	8f990220 	lw	t9,544(gp)
  405b1c:	00000000 	nop
  405b20:	0320f809 	jalr	t9
  405b24:	00000000 	nop
  405b28:	8fbc0010 	lw	gp,16(sp)
  405b2c:	00408821 	move	s1,v0
  405b30:	8e020034 	lw	v0,52(s0)
  405b34:	00000000 	nop
  405b38:	14400006 	bnez	v0,405b54 <fputs+0x94>
  405b3c:	26040038 	addiu	a0,s0,56
  405b40:	8f990234 	lw	t9,564(gp)
  405b44:	00000000 	nop
  405b48:	0320f809 	jalr	t9
  405b4c:	00000000 	nop
  405b50:	8fbc0010 	lw	gp,16(sp)
  405b54:	02201021 	move	v0,s1
  405b58:	8fbf0024 	lw	ra,36(sp)
  405b5c:	8fb1001c 	lw	s1,28(sp)
  405b60:	8fb00018 	lw	s0,24(sp)
  405b64:	03e00008 	jr	ra
  405b68:	27bd0028 	addiu	sp,sp,40

00405b6c <fputs_unlocked>:
  405b6c:	3c1c0001 	lui	gp,0x1
  405b70:	279c8ef4 	addiu	gp,gp,-28940
  405b74:	0399e021 	addu	gp,gp,t9
  405b78:	27bdffd0 	addiu	sp,sp,-48
  405b7c:	afbc0010 	sw	gp,16(sp)
  405b80:	afbf0028 	sw	ra,40(sp)
  405b84:	afb20020 	sw	s2,32(sp)
  405b88:	afb1001c 	sw	s1,28(sp)
  405b8c:	afb00018 	sw	s0,24(sp)
  405b90:	afbc0024 	sw	gp,36(sp)
  405b94:	00a08821 	move	s1,a1
  405b98:	00808021 	move	s0,a0
  405b9c:	8f99007c 	lw	t9,124(gp)
  405ba0:	00000000 	nop
  405ba4:	0320f809 	jalr	t9
  405ba8:	00000000 	nop
  405bac:	8fbc0010 	lw	gp,16(sp)
  405bb0:	00403021 	move	a2,v0
  405bb4:	02002021 	move	a0,s0
  405bb8:	02203821 	move	a3,s1
  405bbc:	24050001 	li	a1,1
  405bc0:	00409021 	move	s2,v0
  405bc4:	8f9900ec 	lw	t9,236(gp)
  405bc8:	00000000 	nop
  405bcc:	0320f809 	jalr	t9
  405bd0:	00000000 	nop
  405bd4:	8fbc0010 	lw	gp,16(sp)
  405bd8:	10520002 	beq	v0,s2,405be4 <fputs_unlocked+0x78>
  405bdc:	00401821 	move	v1,v0
  405be0:	2403ffff 	li	v1,-1
  405be4:	8fbf0028 	lw	ra,40(sp)
  405be8:	8fb20020 	lw	s2,32(sp)
  405bec:	8fb1001c 	lw	s1,28(sp)
  405bf0:	8fb00018 	lw	s0,24(sp)
  405bf4:	00601021 	move	v0,v1
  405bf8:	03e00008 	jr	ra
  405bfc:	27bd0030 	addiu	sp,sp,48

00405c00 <getc>:
  405c00:	3c1c0001 	lui	gp,0x1
  405c04:	279c8e60 	addiu	gp,gp,-29088
  405c08:	0399e021 	addu	gp,gp,t9
  405c0c:	27bdffd8 	addiu	sp,sp,-40
  405c10:	afbc0010 	sw	gp,16(sp)
  405c14:	afb00018 	sw	s0,24(sp)
  405c18:	afbf0024 	sw	ra,36(sp)
  405c1c:	afbc0020 	sw	gp,32(sp)
  405c20:	afb1001c 	sw	s1,28(sp)
  405c24:	8c820034 	lw	v0,52(a0)
  405c28:	00808021 	move	s0,a0
  405c2c:	14400006 	bnez	v0,405c48 <getc+0x48>
  405c30:	24840038 	addiu	a0,a0,56
  405c34:	8f990344 	lw	t9,836(gp)
  405c38:	00000000 	nop
  405c3c:	0320f809 	jalr	t9
  405c40:	00000000 	nop
  405c44:	8fbc0010 	lw	gp,16(sp)
  405c48:	02002021 	move	a0,s0
  405c4c:	8f99032c 	lw	t9,812(gp)
  405c50:	00000000 	nop
  405c54:	0320f809 	jalr	t9
  405c58:	00000000 	nop
  405c5c:	8fbc0010 	lw	gp,16(sp)
  405c60:	00408821 	move	s1,v0
  405c64:	8e020034 	lw	v0,52(s0)
  405c68:	00000000 	nop
  405c6c:	14400006 	bnez	v0,405c88 <getc+0x88>
  405c70:	26040038 	addiu	a0,s0,56
  405c74:	8f990234 	lw	t9,564(gp)
  405c78:	00000000 	nop
  405c7c:	0320f809 	jalr	t9
  405c80:	00000000 	nop
  405c84:	8fbc0010 	lw	gp,16(sp)
  405c88:	02201021 	move	v0,s1
  405c8c:	8fbf0024 	lw	ra,36(sp)
  405c90:	8fb1001c 	lw	s1,28(sp)
  405c94:	8fb00018 	lw	s0,24(sp)
  405c98:	03e00008 	jr	ra
  405c9c:	27bd0028 	addiu	sp,sp,40

00405ca0 <getc_unlocked>:
  405ca0:	3c1c0001 	lui	gp,0x1
  405ca4:	279c8dc0 	addiu	gp,gp,-29248
  405ca8:	0399e021 	addu	gp,gp,t9
  405cac:	27bdffe0 	addiu	sp,sp,-32
  405cb0:	afbc0010 	sw	gp,16(sp)
  405cb4:	afbf001c 	sw	ra,28(sp)
  405cb8:	afbc0018 	sw	gp,24(sp)
  405cbc:	8c83001c 	lw	v1,28(a0)
  405cc0:	8c820024 	lw	v0,36(a0)
  405cc4:	00000000 	nop
  405cc8:	0062102b 	sltu	v0,v1,v0
  405ccc:	10400004 	beqz	v0,405ce0 <getc_unlocked+0x40>
  405cd0:	24660001 	addiu	a2,v1,1
  405cd4:	90620000 	lbu	v0,0(v1)
  405cd8:	10000006 	b	405cf4 <getc_unlocked+0x54>
  405cdc:	ac86001c 	sw	a2,28(a0)
  405ce0:	8f9900c8 	lw	t9,200(gp)
  405ce4:	00000000 	nop
  405ce8:	0320f809 	jalr	t9
  405cec:	00000000 	nop
  405cf0:	8fbc0010 	lw	gp,16(sp)
  405cf4:	8fbf001c 	lw	ra,28(sp)
  405cf8:	00000000 	nop
  405cfc:	03e00008 	jr	ra
  405d00:	27bd0020 	addiu	sp,sp,32
	...

00405d10 <puts>:
  405d10:	3c1c0001 	lui	gp,0x1
  405d14:	279c8d50 	addiu	gp,gp,-29360
  405d18:	0399e021 	addu	gp,gp,t9
  405d1c:	27bdffd8 	addiu	sp,sp,-40
  405d20:	afbc0010 	sw	gp,16(sp)
  405d24:	afb00018 	sw	s0,24(sp)
  405d28:	8f900368 	lw	s0,872(gp)
  405d2c:	00000000 	nop
  405d30:	8e100000 	lw	s0,0(s0)
  405d34:	afb1001c 	sw	s1,28(sp)
  405d38:	afbf0024 	sw	ra,36(sp)
  405d3c:	afbc0020 	sw	gp,32(sp)
  405d40:	8e020034 	lw	v0,52(s0)
  405d44:	00808821 	move	s1,a0
  405d48:	14400006 	bnez	v0,405d64 <puts+0x54>
  405d4c:	26040038 	addiu	a0,s0,56
  405d50:	8f990344 	lw	t9,836(gp)
  405d54:	00000000 	nop
  405d58:	0320f809 	jalr	t9
  405d5c:	00000000 	nop
  405d60:	8fbc0010 	lw	gp,16(sp)
  405d64:	02202021 	move	a0,s1
  405d68:	02002821 	move	a1,s0
  405d6c:	8f990220 	lw	t9,544(gp)
  405d70:	00000000 	nop
  405d74:	0320f809 	jalr	t9
  405d78:	00000000 	nop
  405d7c:	8fbc0010 	lw	gp,16(sp)
  405d80:	2404000a 	li	a0,10
  405d84:	02002821 	move	a1,s0
  405d88:	24510001 	addiu	s1,v0,1
  405d8c:	8f990054 	lw	t9,84(gp)
  405d90:	00000000 	nop
  405d94:	0320f809 	jalr	t9
  405d98:	00000000 	nop
  405d9c:	8fbc0010 	lw	gp,16(sp)
  405da0:	2403ffff 	li	v1,-1
  405da4:	14430002 	bne	v0,v1,405db0 <puts+0xa0>
  405da8:	26040038 	addiu	a0,s0,56
  405dac:	2411ffff 	li	s1,-1
  405db0:	8e020034 	lw	v0,52(s0)
  405db4:	00000000 	nop
  405db8:	14400007 	bnez	v0,405dd8 <puts+0xc8>
  405dbc:	02201021 	move	v0,s1
  405dc0:	8f990234 	lw	t9,564(gp)
  405dc4:	00000000 	nop
  405dc8:	0320f809 	jalr	t9
  405dcc:	00000000 	nop
  405dd0:	8fbc0010 	lw	gp,16(sp)
  405dd4:	02201021 	move	v0,s1
  405dd8:	8fbf0024 	lw	ra,36(sp)
  405ddc:	8fb1001c 	lw	s1,28(sp)
  405de0:	8fb00018 	lw	s0,24(sp)
  405de4:	03e00008 	jr	ra
  405de8:	27bd0028 	addiu	sp,sp,40
  405dec:	00000000 	nop

00405df0 <fwrite>:
  405df0:	3c1c0001 	lui	gp,0x1
  405df4:	279c8c70 	addiu	gp,gp,-29584
  405df8:	0399e021 	addu	gp,gp,t9
  405dfc:	27bdffd0 	addiu	sp,sp,-48
  405e00:	afbc0010 	sw	gp,16(sp)
  405e04:	afb30024 	sw	s3,36(sp)
  405e08:	afb20020 	sw	s2,32(sp)
  405e0c:	afb1001c 	sw	s1,28(sp)
  405e10:	afb00018 	sw	s0,24(sp)
  405e14:	afbf002c 	sw	ra,44(sp)
  405e18:	afbc0028 	sw	gp,40(sp)
  405e1c:	8ce30034 	lw	v1,52(a3)
  405e20:	24e20038 	addiu	v0,a3,56
  405e24:	00809821 	move	s3,a0
  405e28:	00e08021 	move	s0,a3
  405e2c:	00402021 	move	a0,v0
  405e30:	00a08821 	move	s1,a1
  405e34:	14600006 	bnez	v1,405e50 <fwrite+0x60>
  405e38:	00c09021 	move	s2,a2
  405e3c:	8f990344 	lw	t9,836(gp)
  405e40:	00000000 	nop
  405e44:	0320f809 	jalr	t9
  405e48:	00000000 	nop
  405e4c:	8fbc0010 	lw	gp,16(sp)
  405e50:	02602021 	move	a0,s3
  405e54:	02202821 	move	a1,s1
  405e58:	02403021 	move	a2,s2
  405e5c:	02003821 	move	a3,s0
  405e60:	8f9900ec 	lw	t9,236(gp)
  405e64:	00000000 	nop
  405e68:	0320f809 	jalr	t9
  405e6c:	00000000 	nop
  405e70:	8fbc0010 	lw	gp,16(sp)
  405e74:	00408821 	move	s1,v0
  405e78:	8e020034 	lw	v0,52(s0)
  405e7c:	00000000 	nop
  405e80:	14400006 	bnez	v0,405e9c <fwrite+0xac>
  405e84:	26040038 	addiu	a0,s0,56
  405e88:	8f990234 	lw	t9,564(gp)
  405e8c:	00000000 	nop
  405e90:	0320f809 	jalr	t9
  405e94:	00000000 	nop
  405e98:	8fbc0010 	lw	gp,16(sp)
  405e9c:	02201021 	move	v0,s1
  405ea0:	8fbf002c 	lw	ra,44(sp)
  405ea4:	8fb30024 	lw	s3,36(sp)
  405ea8:	8fb20020 	lw	s2,32(sp)
  405eac:	8fb1001c 	lw	s1,28(sp)
  405eb0:	8fb00018 	lw	s0,24(sp)
  405eb4:	03e00008 	jr	ra
  405eb8:	27bd0030 	addiu	sp,sp,48

00405ebc <fwrite_unlocked>:
  405ebc:	3c1c0001 	lui	gp,0x1
  405ec0:	279c8ba4 	addiu	gp,gp,-29788
  405ec4:	0399e021 	addu	gp,gp,t9
  405ec8:	27bdffd8 	addiu	sp,sp,-40
  405ecc:	afbc0010 	sw	gp,16(sp)
  405ed0:	94e20000 	lhu	v0,0(a3)
  405ed4:	afb00018 	sw	s0,24(sp)
  405ed8:	34480080 	ori	t0,v0,0x80
  405edc:	34430008 	ori	v1,v0,0x8
  405ee0:	30420800 	andi	v0,v0,0x800
  405ee4:	00a08021 	move	s0,a1
  405ee8:	afbf0020 	sw	ra,32(sp)
  405eec:	afbc001c 	sw	gp,28(sp)
  405ef0:	00004821 	move	t1,zero
  405ef4:	10400003 	beqz	v0,405f04 <fwrite_unlocked+0x48>
  405ef8:	00c02821 	move	a1,a2
  405efc:	10000012 	b	405f48 <fwrite_unlocked+0x8c>
  405f00:	a4e30000 	sh	v1,0(a3)
  405f04:	00e03021 	move	a2,a3
  405f08:	a4e80000 	sh	t0,0(a3)
  405f0c:	1200000d 	beqz	s0,405f44 <fwrite_unlocked+0x88>
  405f10:	00001021 	move	v0,zero
  405f14:	00b00018 	mult	a1,s0
  405f18:	00002812 	mflo	a1
  405f1c:	8f990358 	lw	t9,856(gp)
  405f20:	00000000 	nop
  405f24:	0320f809 	jalr	t9
  405f28:	00000000 	nop
  405f2c:	8fbc0010 	lw	gp,16(sp)
  405f30:	16000002 	bnez	s0,405f3c <fwrite_unlocked+0x80>
  405f34:	00000000 	nop
  405f38:	0007000d 	break	0x7
  405f3c:	0050001b 	divu	zero,v0,s0
  405f40:	00001012 	mflo	v0
  405f44:	00404821 	move	t1,v0
  405f48:	8fbf0020 	lw	ra,32(sp)
  405f4c:	8fb00018 	lw	s0,24(sp)
  405f50:	01201021 	move	v0,t1
  405f54:	03e00008 	jr	ra
  405f58:	27bd0028 	addiu	sp,sp,40
  405f5c:	00000000 	nop

00405f60 <fseek>:
  405f60:	3c1c0001 	lui	gp,0x1
  405f64:	279c8b00 	addiu	gp,gp,-29952
  405f68:	0399e021 	addu	gp,gp,t9
  405f6c:	27bdffc8 	addiu	sp,sp,-56
  405f70:	afbc0010 	sw	gp,16(sp)
  405f74:	2cc20003 	sltiu	v0,a2,3
  405f78:	afb20028 	sw	s2,40(sp)
  405f7c:	afb10024 	sw	s1,36(sp)
  405f80:	afb00020 	sw	s0,32(sp)
  405f84:	afbf0030 	sw	ra,48(sp)
  405f88:	afbc002c 	sw	gp,44(sp)
  405f8c:	00c08821 	move	s1,a2
  405f90:	00808021 	move	s0,a0
  405f94:	1440000a 	bnez	v0,405fc0 <fseek+0x60>
  405f98:	00a09021 	move	s2,a1
  405f9c:	8f9900bc 	lw	t9,188(gp)
  405fa0:	00000000 	nop
  405fa4:	0320f809 	jalr	t9
  405fa8:	00000000 	nop
  405fac:	8fbc0010 	lw	gp,16(sp)
  405fb0:	24030016 	li	v1,22
  405fb4:	2404ffff 	li	a0,-1
  405fb8:	10000041 	b	4060c0 <fseek+0x160>
  405fbc:	ac430000 	sw	v1,0(v0)
  405fc0:	8c820034 	lw	v0,52(a0)
  405fc4:	00000000 	nop
  405fc8:	14400006 	bnez	v0,405fe4 <fseek+0x84>
  405fcc:	24840038 	addiu	a0,a0,56
  405fd0:	8f990344 	lw	t9,836(gp)
  405fd4:	00000000 	nop
  405fd8:	0320f809 	jalr	t9
  405fdc:	00000000 	nop
  405fe0:	8fbc0010 	lw	gp,16(sp)
  405fe4:	96020000 	lhu	v0,0(s0)
  405fe8:	afb20018 	sw	s2,24(sp)
  405fec:	30422000 	andi	v0,v0,0x2000
  405ff0:	10400009 	beqz	v0,406018 <fseek+0xb8>
  405ff4:	2412ffff 	li	s2,-1
  405ff8:	02002021 	move	a0,s0
  405ffc:	8f9900f0 	lw	t9,240(gp)
  406000:	00000000 	nop
  406004:	0320f809 	jalr	t9
  406008:	00000000 	nop
  40600c:	8fbc0010 	lw	gp,16(sp)
  406010:	14400020 	bnez	v0,406094 <fseek+0x134>
  406014:	00000000 	nop
  406018:	24020001 	li	v0,1
  40601c:	1622000a 	bne	s1,v0,406048 <fseek+0xe8>
  406020:	02203021 	move	a2,s1
  406024:	02002021 	move	a0,s0
  406028:	27a50018 	addiu	a1,sp,24
  40602c:	8f9902e4 	lw	t9,740(gp)
  406030:	00000000 	nop
  406034:	0320f809 	jalr	t9
  406038:	00000000 	nop
  40603c:	8fbc0010 	lw	gp,16(sp)
  406040:	04400014 	bltz	v0,406094 <fseek+0x134>
  406044:	02203021 	move	a2,s1
  406048:	02002021 	move	a0,s0
  40604c:	27a50018 	addiu	a1,sp,24
  406050:	8f9902e8 	lw	t9,744(gp)
  406054:	00000000 	nop
  406058:	0320f809 	jalr	t9
  40605c:	00000000 	nop
  406060:	8fbc0010 	lw	gp,16(sp)
  406064:	0440000b 	bltz	v0,406094 <fseek+0x134>
  406068:	00000000 	nop
  40606c:	96020000 	lhu	v0,0(s0)
  406070:	8e030014 	lw	v1,20(s0)
  406074:	3042cff8 	andi	v0,v0,0xcff8
  406078:	ae030024 	sw	v1,36(s0)
  40607c:	a6020000 	sh	v0,0(s0)
  406080:	ae030020 	sw	v1,32(s0)
  406084:	ae03001c 	sw	v1,28(s0)
  406088:	a2000002 	sb	zero,2(s0)
  40608c:	ae00002c 	sw	zero,44(s0)
  406090:	00009021 	move	s2,zero
  406094:	8e020034 	lw	v0,52(s0)
  406098:	00000000 	nop
  40609c:	14400008 	bnez	v0,4060c0 <fseek+0x160>
  4060a0:	02402021 	move	a0,s2
  4060a4:	26040038 	addiu	a0,s0,56
  4060a8:	8f990234 	lw	t9,564(gp)
  4060ac:	00000000 	nop
  4060b0:	0320f809 	jalr	t9
  4060b4:	00000000 	nop
  4060b8:	8fbc0010 	lw	gp,16(sp)
  4060bc:	02402021 	move	a0,s2
  4060c0:	8fbf0030 	lw	ra,48(sp)
  4060c4:	8fb20028 	lw	s2,40(sp)
  4060c8:	8fb10024 	lw	s1,36(sp)
  4060cc:	8fb00020 	lw	s0,32(sp)
  4060d0:	00801021 	move	v0,a0
  4060d4:	03e00008 	jr	ra
  4060d8:	27bd0038 	addiu	sp,sp,56
  4060dc:	00000000 	nop

004060e0 <rewind>:
  4060e0:	3c1c0001 	lui	gp,0x1
  4060e4:	279c8980 	addiu	gp,gp,-30336
  4060e8:	0399e021 	addu	gp,gp,t9
  4060ec:	27bdffd8 	addiu	sp,sp,-40
  4060f0:	afbc0010 	sw	gp,16(sp)
  4060f4:	afb00018 	sw	s0,24(sp)
  4060f8:	afbf0020 	sw	ra,32(sp)
  4060fc:	afbc001c 	sw	gp,28(sp)
  406100:	8c820034 	lw	v0,52(a0)
  406104:	00808021 	move	s0,a0
  406108:	14400006 	bnez	v0,406124 <rewind+0x44>
  40610c:	24840038 	addiu	a0,a0,56
  406110:	8f990344 	lw	t9,836(gp)
  406114:	00000000 	nop
  406118:	0320f809 	jalr	t9
  40611c:	00000000 	nop
  406120:	8fbc0010 	lw	gp,16(sp)
  406124:	96020000 	lhu	v0,0(s0)
  406128:	02002021 	move	a0,s0
  40612c:	3042fff3 	andi	v0,v0,0xfff3
  406130:	00002821 	move	a1,zero
  406134:	a6020000 	sh	v0,0(s0)
  406138:	00003021 	move	a2,zero
  40613c:	8f9901fc 	lw	t9,508(gp)
  406140:	00000000 	nop
  406144:	0320f809 	jalr	t9
  406148:	00000000 	nop
  40614c:	8fbc0010 	lw	gp,16(sp)
  406150:	8e020034 	lw	v0,52(s0)
  406154:	00000000 	nop
  406158:	14400006 	bnez	v0,406174 <rewind+0x94>
  40615c:	26040038 	addiu	a0,s0,56
  406160:	8f990234 	lw	t9,564(gp)
  406164:	00000000 	nop
  406168:	0320f809 	jalr	t9
  40616c:	00000000 	nop
  406170:	8fbc0010 	lw	gp,16(sp)
  406174:	8fbf0020 	lw	ra,32(sp)
  406178:	8fb00018 	lw	s0,24(sp)
  40617c:	03e00008 	jr	ra
  406180:	27bd0028 	addiu	sp,sp,40
	...

00406190 <_stdio_fopen>:
  406190:	3c1c0001 	lui	gp,0x1
  406194:	279c88d0 	addiu	gp,gp,-30512
  406198:	0399e021 	addu	gp,gp,t9
  40619c:	27bdffd0 	addiu	sp,sp,-48
  4061a0:	afbc0010 	sw	gp,16(sp)
  4061a4:	afb30024 	sw	s3,36(sp)
  4061a8:	afb20020 	sw	s2,32(sp)
  4061ac:	afb1001c 	sw	s1,28(sp)
  4061b0:	afb00018 	sw	s0,24(sp)
  4061b4:	afbf002c 	sw	ra,44(sp)
  4061b8:	afbc0028 	sw	gp,40(sp)
  4061bc:	80a30000 	lb	v1,0(a1)
  4061c0:	24020072 	li	v0,114
  4061c4:	00808821 	move	s1,a0
  4061c8:	00c09021 	move	s2,a2
  4061cc:	00e08021 	move	s0,a3
  4061d0:	10620010 	beq	v1,v0,406214 <_stdio_fopen+0x84>
  4061d4:	00009821 	move	s3,zero
  4061d8:	24020077 	li	v0,119
  4061dc:	1062000d 	beq	v1,v0,406214 <_stdio_fopen+0x84>
  4061e0:	24130301 	li	s3,769
  4061e4:	24020061 	li	v0,97
  4061e8:	1062000a 	beq	v1,v0,406214 <_stdio_fopen+0x84>
  4061ec:	24130109 	li	s3,265
  4061f0:	8f9900bc 	lw	t9,188(gp)
  4061f4:	00000000 	nop
  4061f8:	0320f809 	jalr	t9
  4061fc:	00000000 	nop
  406200:	8fbc0010 	lw	gp,16(sp)
  406204:	24030016 	li	v1,22
  406208:	00002021 	move	a0,zero
  40620c:	100000ad 	b	4064c4 <_stdio_fopen+0x334>
  406210:	ac430000 	sw	v1,0(v0)
  406214:	24a50001 	addiu	a1,a1,1
  406218:	80a30000 	lb	v1,0(a1)
  40621c:	24020062 	li	v0,98
  406220:	14620004 	bne	v1,v0,406234 <_stdio_fopen+0xa4>
  406224:	2402002b 	li	v0,43
  406228:	24a50001 	addiu	a1,a1,1
  40622c:	80a30000 	lb	v1,0(a1)
  406230:	00000000 	nop
  406234:	14620003 	bne	v1,v0,406244 <_stdio_fopen+0xb4>
  406238:	2402fffe 	li	v0,-2
  40623c:	02629824 	and	s3,s3,v0
  406240:	36730002 	ori	s3,s3,0x2
  406244:	1640001c 	bnez	s2,4062b8 <_stdio_fopen+0x128>
  406248:	24040050 	li	a0,80
  40624c:	8f9902d4 	lw	t9,724(gp)
  406250:	00000000 	nop
  406254:	0320f809 	jalr	t9
  406258:	00000000 	nop
  40625c:	8fbc0010 	lw	gp,16(sp)
  406260:	00409021 	move	s2,v0
  406264:	10400097 	beqz	v0,4064c4 <_stdio_fopen+0x334>
  406268:	00002021 	move	a0,zero
  40626c:	24020040 	li	v0,64
  406270:	a6420000 	sh	v0,0(s2)
  406274:	24041000 	li	a0,4096
  406278:	8f9902d4 	lw	t9,724(gp)
  40627c:	00000000 	nop
  406280:	0320f809 	jalr	t9
  406284:	00000000 	nop
  406288:	8fbc0010 	lw	gp,16(sp)
  40628c:	00401821 	move	v1,v0
  406290:	10400007 	beqz	v0,4062b0 <_stdio_fopen+0x120>
  406294:	ae420014 	sw	v0,20(s2)
  406298:	96420000 	lhu	v0,0(s2)
  40629c:	24631000 	addiu	v1,v1,4096
  4062a0:	34424000 	ori	v0,v0,0x4000
  4062a4:	ae430018 	sw	v1,24(s2)
  4062a8:	10000003 	b	4062b8 <_stdio_fopen+0x128>
  4062ac:	a6420000 	sh	v0,0(s2)
  4062b0:	ae400018 	sw	zero,24(s2)
  4062b4:	ae400014 	sw	zero,20(s2)
  4062b8:	0600001d 	bltz	s0,406330 <_stdio_fopen+0x1a0>
  4062bc:	32630003 	andi	v1,s3,0x3
  4062c0:	24630001 	addiu	v1,v1,1
  4062c4:	26220001 	addiu	v0,s1,1
  4062c8:	00621024 	and	v0,v1,v0
  4062cc:	1443000e 	bne	v0,v1,406308 <_stdio_fopen+0x178>
  4062d0:	32620008 	andi	v0,s3,0x8
  4062d4:	10400014 	beqz	v0,406328 <_stdio_fopen+0x198>
  4062d8:	32220008 	andi	v0,s1,0x8
  4062dc:	14400012 	bnez	v0,406328 <_stdio_fopen+0x198>
  4062e0:	02002021 	move	a0,s0
  4062e4:	24050004 	li	a1,4
  4062e8:	24060008 	li	a2,8
  4062ec:	8f990050 	lw	t9,80(gp)
  4062f0:	00000000 	nop
  4062f4:	0320f809 	jalr	t9
  4062f8:	00000000 	nop
  4062fc:	8fbc0010 	lw	gp,16(sp)
  406300:	10400009 	beqz	v0,406328 <_stdio_fopen+0x198>
  406304:	00000000 	nop
  406308:	8f9900bc 	lw	t9,188(gp)
  40630c:	00000000 	nop
  406310:	0320f809 	jalr	t9
  406314:	00000000 	nop
  406318:	8fbc0010 	lw	gp,16(sp)
  40631c:	24030016 	li	v1,22
  406320:	ac430000 	sw	v1,0(v0)
  406324:	2410ffff 	li	s0,-1
  406328:	1000000a 	b	406354 <_stdio_fopen+0x1c4>
  40632c:	ae50000c 	sw	s0,12(s2)
  406330:	02202021 	move	a0,s1
  406334:	02602821 	move	a1,s3
  406338:	240601b6 	li	a2,438
  40633c:	8f990070 	lw	t9,112(gp)
  406340:	00000000 	nop
  406344:	0320f809 	jalr	t9
  406348:	00000000 	nop
  40634c:	8fbc0010 	lw	gp,16(sp)
  406350:	ae42000c 	sw	v0,12(s2)
  406354:	8e51000c 	lw	s1,12(s2)
  406358:	00000000 	nop
  40635c:	06210019 	bgez	s1,4063c4 <_stdio_fopen+0x234>
  406360:	00000000 	nop
  406364:	96420000 	lhu	v0,0(s2)
  406368:	00000000 	nop
  40636c:	30424000 	andi	v0,v0,0x4000
  406370:	10400007 	beqz	v0,406390 <_stdio_fopen+0x200>
  406374:	00000000 	nop
  406378:	8e440014 	lw	a0,20(s2)
  40637c:	8f990020 	lw	t9,32(gp)
  406380:	00000000 	nop
  406384:	0320f809 	jalr	t9
  406388:	00000000 	nop
  40638c:	8fbc0010 	lw	gp,16(sp)
  406390:	96420000 	lhu	v0,0(s2)
  406394:	00000000 	nop
  406398:	30420040 	andi	v0,v0,0x40
  40639c:	10400007 	beqz	v0,4063bc <_stdio_fopen+0x22c>
  4063a0:	00000000 	nop
  4063a4:	02402021 	move	a0,s2
  4063a8:	8f990020 	lw	t9,32(gp)
  4063ac:	00000000 	nop
  4063b0:	0320f809 	jalr	t9
  4063b4:	00000000 	nop
  4063b8:	8fbc0010 	lw	gp,16(sp)
  4063bc:	10000041 	b	4064c4 <_stdio_fopen+0x334>
  4063c0:	00002021 	move	a0,zero
  4063c4:	8f9900bc 	lw	t9,188(gp)
  4063c8:	00000000 	nop
  4063cc:	0320f809 	jalr	t9
  4063d0:	00000000 	nop
  4063d4:	8fbc0010 	lw	gp,16(sp)
  4063d8:	02202021 	move	a0,s1
  4063dc:	00408021 	move	s0,v0
  4063e0:	8c510000 	lw	s1,0(v0)
  4063e4:	8f9902d0 	lw	t9,720(gp)
  4063e8:	00000000 	nop
  4063ec:	0320f809 	jalr	t9
  4063f0:	00000000 	nop
  4063f4:	8fbc0010 	lw	gp,16(sp)
  4063f8:	96440000 	lhu	a0,0(s2)
  4063fc:	32630003 	andi	v1,s3,0x3
  406400:	00021200 	sll	v0,v0,0x8
  406404:	24630001 	addiu	v1,v1,1
  406408:	00822025 	or	a0,a0,v0
  40640c:	38630003 	xori	v1,v1,0x3
  406410:	32620008 	andi	v0,s3,0x8
  406414:	a6440000 	sh	a0,0(s2)
  406418:	ae110000 	sw	s1,0(s0)
  40641c:	10400002 	beqz	v0,406428 <_stdio_fopen+0x298>
  406420:	00032100 	sll	a0,v1,0x4
  406424:	34840400 	ori	a0,a0,0x400
  406428:	96420000 	lhu	v0,0(s2)
  40642c:	8e430014 	lw	v1,20(s2)
  406430:	00441025 	or	v0,v0,a0
  406434:	ae430024 	sw	v1,36(s2)
  406438:	ae430020 	sw	v1,32(s2)
  40643c:	ae43001c 	sw	v1,28(s2)
  406440:	ae430028 	sw	v1,40(s2)
  406444:	26440038 	addiu	a0,s2,56
  406448:	a6420000 	sh	v0,0(s2)
  40644c:	a2400002 	sb	zero,2(s2)
  406450:	ae40002c 	sw	zero,44(s2)
  406454:	ae400034 	sw	zero,52(s2)
  406458:	8f99013c 	lw	t9,316(gp)
  40645c:	00000000 	nop
  406460:	0320f809 	jalr	t9
  406464:	00000000 	nop
  406468:	8fbc0010 	lw	gp,16(sp)
  40646c:	00000000 	nop
  406470:	8f84009c 	lw	a0,156(gp)
  406474:	8f990344 	lw	t9,836(gp)
  406478:	00000000 	nop
  40647c:	0320f809 	jalr	t9
  406480:	00000000 	nop
  406484:	8fbc0010 	lw	gp,16(sp)
  406488:	00000000 	nop
  40648c:	8f820210 	lw	v0,528(gp)
  406490:	00000000 	nop
  406494:	8c420000 	lw	v0,0(v0)
  406498:	8f84009c 	lw	a0,156(gp)
  40649c:	ae420010 	sw	v0,16(s2)
  4064a0:	8f810210 	lw	at,528(gp)
  4064a4:	00000000 	nop
  4064a8:	ac320000 	sw	s2,0(at)
  4064ac:	8f990234 	lw	t9,564(gp)
  4064b0:	00000000 	nop
  4064b4:	0320f809 	jalr	t9
  4064b8:	00000000 	nop
  4064bc:	8fbc0010 	lw	gp,16(sp)
  4064c0:	02402021 	move	a0,s2
  4064c4:	8fbf002c 	lw	ra,44(sp)
  4064c8:	8fb30024 	lw	s3,36(sp)
  4064cc:	8fb20020 	lw	s2,32(sp)
  4064d0:	8fb1001c 	lw	s1,28(sp)
  4064d4:	8fb00018 	lw	s0,24(sp)
  4064d8:	00801021 	move	v0,a0
  4064dc:	03e00008 	jr	ra
  4064e0:	27bd0030 	addiu	sp,sp,48
	...
  4064f0:	3c1c0001 	lui	gp,0x1
  4064f4:	279c8570 	addiu	gp,gp,-31376
  4064f8:	0399e021 	addu	gp,gp,t9
  4064fc:	27bdffd0 	addiu	sp,sp,-48
  406500:	afbc0010 	sw	gp,16(sp)
  406504:	afb30024 	sw	s3,36(sp)
  406508:	afb20020 	sw	s2,32(sp)
  40650c:	afb1001c 	sw	s1,28(sp)
  406510:	afb00018 	sw	s0,24(sp)
  406514:	afbf002c 	sw	ra,44(sp)
  406518:	afbc0028 	sw	gp,40(sp)
  40651c:	00c09821 	move	s3,a2
  406520:	00809021 	move	s2,a0
  406524:	00a08821 	move	s1,a1
  406528:	10c00016 	beqz	a2,406584 <_stdio_fopen+0x3f4>
  40652c:	00c08021 	move	s0,a2
  406530:	02202821 	move	a1,s1
  406534:	06010003 	bgez	s0,406544 <_stdio_fopen+0x3b4>
  406538:	02003021 	move	a2,s0
  40653c:	3c067fff 	lui	a2,0x7fff
  406540:	34c6ffff 	ori	a2,a2,0xffff
  406544:	8e44000c 	lw	a0,12(s2)
  406548:	8f990228 	lw	t9,552(gp)
  40654c:	00000000 	nop
  406550:	0320f809 	jalr	t9
  406554:	00000000 	nop
  406558:	8fbc0010 	lw	gp,16(sp)
  40655c:	04410006 	bgez	v0,406578 <_stdio_fopen+0x3e8>
  406560:	02228821 	addu	s1,s1,v0
  406564:	96420000 	lhu	v0,0(s2)
  406568:	00000000 	nop
  40656c:	34420008 	ori	v0,v0,0x8
  406570:	10000004 	b	406584 <_stdio_fopen+0x3f4>
  406574:	a6420000 	sh	v0,0(s2)
  406578:	02028023 	subu	s0,s0,v0
  40657c:	1600ffed 	bnez	s0,406534 <_stdio_fopen+0x3a4>
  406580:	02202821 	move	a1,s1
  406584:	02701023 	subu	v0,s3,s0
  406588:	8fbf002c 	lw	ra,44(sp)
  40658c:	8fb30024 	lw	s3,36(sp)
  406590:	8fb20020 	lw	s2,32(sp)
  406594:	8fb1001c 	lw	s1,28(sp)
  406598:	8fb00018 	lw	s0,24(sp)
  40659c:	03e00008 	jr	ra
  4065a0:	27bd0030 	addiu	sp,sp,48

004065a4 <_stdio_fwrite>:
  4065a4:	3c1c0001 	lui	gp,0x1
  4065a8:	279c84bc 	addiu	gp,gp,-31556
  4065ac:	0399e021 	addu	gp,gp,t9
  4065b0:	27bdffc0 	addiu	sp,sp,-64
  4065b4:	afbc0010 	sw	gp,16(sp)
  4065b8:	afb40030 	sw	s4,48(sp)
  4065bc:	afb3002c 	sw	s3,44(sp)
  4065c0:	afb20028 	sw	s2,40(sp)
  4065c4:	afbf003c 	sw	ra,60(sp)
  4065c8:	afbc0038 	sw	gp,56(sp)
  4065cc:	afb50034 	sw	s5,52(sp)
  4065d0:	afb10024 	sw	s1,36(sp)
  4065d4:	afb00020 	sw	s0,32(sp)
  4065d8:	94c30000 	lhu	v1,0(a2)
  4065dc:	00c09021 	move	s2,a2
  4065e0:	3066ffff 	andi	a2,v1,0xffff
  4065e4:	30c20020 	andi	v0,a2,0x20
  4065e8:	00809821 	move	s3,a0
  4065ec:	1040000c 	beqz	v0,406620 <_stdio_fwrite+0x7c>
  4065f0:	00a0a021 	move	s4,a1
  4065f4:	34620008 	ori	v0,v1,0x8
  4065f8:	a6420000 	sh	v0,0(s2)
  4065fc:	8f9900bc 	lw	t9,188(gp)
  406600:	00000000 	nop
  406604:	0320f809 	jalr	t9
  406608:	00000000 	nop
  40660c:	8fbc0010 	lw	gp,16(sp)
  406610:	24030009 	li	v1,9
  406614:	00002021 	move	a0,zero
  406618:	100000b8 	b	4068fc <_stdio_fwrite+0x358>
  40661c:	ac430000 	sw	v1,0(v0)
  406620:	30c21000 	andi	v0,a2,0x1000
  406624:	1040001c 	beqz	v0,406698 <_stdio_fwrite+0xf4>
  406628:	30c32400 	andi	v1,a2,0x2400
  40662c:	8e42001c 	lw	v0,28(s2)
  406630:	8e430020 	lw	v1,32(s2)
  406634:	00000000 	nop
  406638:	0043102b 	sltu	v0,v0,v1
  40663c:	14400003 	bnez	v0,40664c <_stdio_fwrite+0xa8>
  406640:	30c20003 	andi	v0,a2,0x3
  406644:	1040000e 	beqz	v0,406680 <_stdio_fwrite+0xdc>
  406648:	00000000 	nop
  40664c:	30c60400 	andi	a2,a2,0x400
  406650:	2cc60001 	sltiu	a2,a2,1
  406654:	24020002 	li	v0,2
  406658:	00463023 	subu	a2,v0,a2
  40665c:	02402021 	move	a0,s2
  406660:	00002821 	move	a1,zero
  406664:	8f9901fc 	lw	t9,508(gp)
  406668:	00000000 	nop
  40666c:	0320f809 	jalr	t9
  406670:	00000000 	nop
  406674:	8fbc0010 	lw	gp,16(sp)
  406678:	1440001d 	bnez	v0,4066f0 <_stdio_fwrite+0x14c>
  40667c:	00000000 	nop
  406680:	8e420014 	lw	v0,20(s2)
  406684:	00000000 	nop
  406688:	ae420024 	sw	v0,36(s2)
  40668c:	ae420020 	sw	v0,32(s2)
  406690:	1000001c 	b	406704 <_stdio_fwrite+0x160>
  406694:	ae42001c 	sw	v0,28(s2)
  406698:	24020400 	li	v0,1024
  40669c:	14620019 	bne	v1,v0,406704 <_stdio_fwrite+0x160>
  4066a0:	02402021 	move	a0,s2
  4066a4:	27a50018 	addiu	a1,sp,24
  4066a8:	24060002 	li	a2,2
  4066ac:	afa00018 	sw	zero,24(sp)
  4066b0:	8f9902e8 	lw	t9,744(gp)
  4066b4:	00000000 	nop
  4066b8:	0320f809 	jalr	t9
  4066bc:	00000000 	nop
  4066c0:	8fbc0010 	lw	gp,16(sp)
  4066c4:	1040000f 	beqz	v0,406704 <_stdio_fwrite+0x160>
  4066c8:	00000000 	nop
  4066cc:	8f9900bc 	lw	t9,188(gp)
  4066d0:	00000000 	nop
  4066d4:	0320f809 	jalr	t9
  4066d8:	00000000 	nop
  4066dc:	8fbc0010 	lw	gp,16(sp)
  4066e0:	8c430000 	lw	v1,0(v0)
  4066e4:	24020020 	li	v0,32
  4066e8:	10620006 	beq	v1,v0,406704 <_stdio_fwrite+0x160>
  4066ec:	00000000 	nop
  4066f0:	96420000 	lhu	v0,0(s2)
  4066f4:	00002021 	move	a0,zero
  4066f8:	34420008 	ori	v0,v0,0x8
  4066fc:	1000007f 	b	4068fc <_stdio_fwrite+0x358>
  406700:	a6420000 	sh	v0,0(s2)
  406704:	96420000 	lhu	v0,0(s2)
  406708:	8e430014 	lw	v1,20(s2)
  40670c:	3042cfff 	andi	v0,v0,0xcfff
  406710:	ae430028 	sw	v1,40(s2)
  406714:	a6420000 	sh	v0,0(s2)
  406718:	0260a821 	move	s5,s3
  40671c:	1660002f 	bnez	s3,4067dc <_stdio_fwrite+0x238>
  406720:	24050001 	li	a1,1
  406724:	8e430014 	lw	v1,20(s2)
  406728:	8e42001c 	lw	v0,28(s2)
  40672c:	8e44000c 	lw	a0,12(s2)
  406730:	00438023 	subu	s0,v0,v1
  406734:	2402fffe 	li	v0,-2
  406738:	1482000a 	bne	a0,v0,406764 <_stdio_fwrite+0x1c0>
  40673c:	00608821 	move	s1,v1
  406740:	96420000 	lhu	v0,0(s2)
  406744:	00001821 	move	v1,zero
  406748:	34422000 	ori	v0,v0,0x2000
  40674c:	12600003 	beqz	s3,40675c <_stdio_fwrite+0x1b8>
  406750:	a6420000 	sh	v0,0(s2)
  406754:	02751023 	subu	v0,s3,s5
  406758:	00541821 	addu	v1,v0,s4
  40675c:	10000067 	b	4068fc <_stdio_fwrite+0x358>
  406760:	00602021 	move	a0,v1
  406764:	00602821 	move	a1,v1
  406768:	02003021 	move	a2,s0
  40676c:	02402021 	move	a0,s2
  406770:	8f990008 	lw	t9,8(gp)
  406774:	00000000 	nop
  406778:	273964f0 	addiu	t9,t9,25840
  40677c:	00000000 	nop
  406780:	0320f809 	jalr	t9
  406784:	00000000 	nop
  406788:	8fbc0010 	lw	gp,16(sp)
  40678c:	00402821 	move	a1,v0
  406790:	8e420014 	lw	v0,20(s2)
  406794:	02058023 	subu	s0,s0,a1
  406798:	ae42001c 	sw	v0,28(s2)
  40679c:	12000009 	beqz	s0,4067c4 <_stdio_fwrite+0x220>
  4067a0:	02258821 	addu	s1,s1,a1
  4067a4:	8e42001c 	lw	v0,28(s2)
  4067a8:	92230000 	lbu	v1,0(s1)
  4067ac:	2610ffff 	addiu	s0,s0,-1
  4067b0:	a0430000 	sb	v1,0(v0)
  4067b4:	24420001 	addiu	v0,v0,1
  4067b8:	ae42001c 	sw	v0,28(s2)
  4067bc:	1600fff9 	bnez	s0,4067a4 <_stdio_fwrite+0x200>
  4067c0:	26310001 	addiu	s1,s1,1
  4067c4:	16600005 	bnez	s3,4067dc <_stdio_fwrite+0x238>
  4067c8:	00000000 	nop
  4067cc:	8e430014 	lw	v1,20(s2)
  4067d0:	8e42001c 	lw	v0,28(s2)
  4067d4:	10000049 	b	4068fc <_stdio_fwrite+0x358>
  4067d8:	00432023 	subu	a0,v0,v1
  4067dc:	8e44001c 	lw	a0,28(s2)
  4067e0:	8e420014 	lw	v0,20(s2)
  4067e4:	00000000 	nop
  4067e8:	14820016 	bne	a0,v0,406844 <_stdio_fwrite+0x2a0>
  4067ec:	00000000 	nop
  4067f0:	8e420018 	lw	v0,24(s2)
  4067f4:	00000000 	nop
  4067f8:	00441023 	subu	v0,v0,a0
  4067fc:	0282102b 	sltu	v0,s4,v0
  406800:	14400010 	bnez	v0,406844 <_stdio_fwrite+0x2a0>
  406804:	2402fffe 	li	v0,-2
  406808:	8e43000c 	lw	v1,12(s2)
  40680c:	00000000 	nop
  406810:	1062000c 	beq	v1,v0,406844 <_stdio_fwrite+0x2a0>
  406814:	02803021 	move	a2,s4
  406818:	02602821 	move	a1,s3
  40681c:	02402021 	move	a0,s2
  406820:	8f990008 	lw	t9,8(gp)
  406824:	00000000 	nop
  406828:	273964f0 	addiu	t9,t9,25840
  40682c:	00000000 	nop
  406830:	0320f809 	jalr	t9
  406834:	00000000 	nop
  406838:	8fbc0010 	lw	gp,16(sp)
  40683c:	10000024 	b	4068d0 <_stdio_fwrite+0x32c>
  406840:	02629821 	addu	s3,s3,v0
  406844:	8e420018 	lw	v0,24(s2)
  406848:	00000000 	nop
  40684c:	00442023 	subu	a0,v0,a0
  406850:	0284102b 	sltu	v0,s4,a0
  406854:	10400002 	beqz	v0,406860 <_stdio_fwrite+0x2bc>
  406858:	02608821 	move	s1,s3
  40685c:	02802021 	move	a0,s4
  406860:	10800009 	beqz	a0,406888 <_stdio_fwrite+0x2e4>
  406864:	0284a023 	subu	s4,s4,a0
  406868:	8e42001c 	lw	v0,28(s2)
  40686c:	92630000 	lbu	v1,0(s3)
  406870:	2484ffff 	addiu	a0,a0,-1
  406874:	a0430000 	sb	v1,0(v0)
  406878:	24420001 	addiu	v0,v0,1
  40687c:	ae42001c 	sw	v0,28(s2)
  406880:	1480fff9 	bnez	a0,406868 <_stdio_fwrite+0x2c4>
  406884:	26730001 	addiu	s3,s3,1
  406888:	10a00011 	beqz	a1,4068d0 <_stdio_fwrite+0x32c>
  40688c:	00000000 	nop
  406890:	1680ffa4 	bnez	s4,406724 <_stdio_fwrite+0x180>
  406894:	00000000 	nop
  406898:	96420000 	lhu	v0,0(s2)
  40689c:	00000000 	nop
  4068a0:	30420100 	andi	v0,v0,0x100
  4068a4:	1040000a 	beqz	v0,4068d0 <_stdio_fwrite+0x32c>
  4068a8:	0233102b 	sltu	v0,s1,s3
  4068ac:	10400008 	beqz	v0,4068d0 <_stdio_fwrite+0x32c>
  4068b0:	00000000 	nop
  4068b4:	92230000 	lbu	v1,0(s1)
  4068b8:	2402000a 	li	v0,10
  4068bc:	26310001 	addiu	s1,s1,1
  4068c0:	1062ff98 	beq	v1,v0,406724 <_stdio_fwrite+0x180>
  4068c4:	0233202b 	sltu	a0,s1,s3
  4068c8:	1480fffa 	bnez	a0,4068b4 <_stdio_fwrite+0x310>
  4068cc:	00000000 	nop
  4068d0:	96430000 	lhu	v1,0(s2)
  4068d4:	00000000 	nop
  4068d8:	30620b08 	andi	v0,v1,0xb08
  4068dc:	14400005 	bnez	v0,4068f4 <_stdio_fwrite+0x350>
  4068e0:	34622000 	ori	v0,v1,0x2000
  4068e4:	8e420018 	lw	v0,24(s2)
  4068e8:	00000000 	nop
  4068ec:	ae420028 	sw	v0,40(s2)
  4068f0:	34622000 	ori	v0,v1,0x2000
  4068f4:	a6420000 	sh	v0,0(s2)
  4068f8:	02752023 	subu	a0,s3,s5
  4068fc:	8fbf003c 	lw	ra,60(sp)
  406900:	8fb50034 	lw	s5,52(sp)
  406904:	8fb40030 	lw	s4,48(sp)
  406908:	8fb3002c 	lw	s3,44(sp)
  40690c:	8fb20028 	lw	s2,40(sp)
  406910:	8fb10024 	lw	s1,36(sp)
  406914:	8fb00020 	lw	s0,32(sp)
  406918:	00801021 	move	v0,a0
  40691c:	03e00008 	jr	ra
  406920:	27bd0040 	addiu	sp,sp,64
	...

00406930 <_stdio_adjpos>:
  406930:	3c1c0001 	lui	gp,0x1
  406934:	279c8130 	addiu	gp,gp,-32464
  406938:	0399e021 	addu	gp,gp,t9
  40693c:	94830000 	lhu	v1,0(a0)
  406940:	00000000 	nop
  406944:	3062ffff 	andi	v0,v1,0xffff
  406948:	30460003 	andi	a2,v0,0x3
  40694c:	10c0001a 	beqz	a2,4069b8 <_stdio_adjpos+0x88>
  406950:	3067ffff 	andi	a3,v1,0xffff
  406954:	30420800 	andi	v0,v0,0x800
  406958:	10400018 	beqz	v0,4069bc <_stdio_adjpos+0x8c>
  40695c:	30e22000 	andi	v0,a3,0x2000
  406960:	28c20002 	slti	v0,a2,2
  406964:	10400005 	beqz	v0,40697c <_stdio_adjpos+0x4c>
  406968:	00000000 	nop
  40696c:	8c820008 	lw	v0,8(a0)
  406970:	00000000 	nop
  406974:	10400003 	beqz	v0,406984 <_stdio_adjpos+0x54>
  406978:	00000000 	nop
  40697c:	03e00008 	jr	ra
  406980:	2402ffff 	li	v0,-1
  406984:	10c00005 	beqz	a2,40699c <_stdio_adjpos+0x6c>
  406988:	00000000 	nop
  40698c:	90820003 	lbu	v0,3(a0)
  406990:	00000000 	nop
  406994:	00c21021 	addu	v0,a2,v0
  406998:	2446ffff 	addiu	a2,v0,-1
  40699c:	8c82002c 	lw	v0,44(a0)
  4069a0:	00000000 	nop
  4069a4:	18400004 	blez	v0,4069b8 <_stdio_adjpos+0x88>
  4069a8:	3067ffff 	andi	a3,v1,0xffff
  4069ac:	90820002 	lbu	v0,2(a0)
  4069b0:	00000000 	nop
  4069b4:	00c23023 	subu	a2,a2,v0
  4069b8:	30e22000 	andi	v0,a3,0x2000
  4069bc:	10400007 	beqz	v0,4069dc <_stdio_adjpos+0xac>
  4069c0:	30e21000 	andi	v0,a3,0x1000
  4069c4:	8c82001c 	lw	v0,28(a0)
  4069c8:	8c830014 	lw	v1,20(a0)
  4069cc:	00000000 	nop
  4069d0:	00431023 	subu	v0,v0,v1
  4069d4:	00c23023 	subu	a2,a2,v0
  4069d8:	30e21000 	andi	v0,a3,0x1000
  4069dc:	10400006 	beqz	v0,4069f8 <_stdio_adjpos+0xc8>
  4069e0:	00000000 	nop
  4069e4:	8c83001c 	lw	v1,28(a0)
  4069e8:	8c820020 	lw	v0,32(a0)
  4069ec:	00000000 	nop
  4069f0:	00431023 	subu	v0,v0,v1
  4069f4:	00c23021 	addu	a2,a2,v0
  4069f8:	8ca20000 	lw	v0,0(a1)
  4069fc:	00062023 	negu	a0,a2
  406a00:	00461823 	subu	v1,v0,a2
  406a04:	0043102a 	slt	v0,v0,v1
  406a08:	14400002 	bnez	v0,406a14 <_stdio_adjpos+0xe4>
  406a0c:	aca30000 	sw	v1,0(a1)
  406a10:	00c02021 	move	a0,a2
  406a14:	03e00008 	jr	ra
  406a18:	00801021 	move	v0,a0
  406a1c:	00000000 	nop

00406a20 <_stdio_lseek>:
  406a20:	3c1c0001 	lui	gp,0x1
  406a24:	279c8040 	addiu	gp,gp,-32704
  406a28:	0399e021 	addu	gp,gp,t9
  406a2c:	27bdffd8 	addiu	sp,sp,-40
  406a30:	afbc0010 	sw	gp,16(sp)
  406a34:	afb00018 	sw	s0,24(sp)
  406a38:	afbf0020 	sw	ra,32(sp)
  406a3c:	afbc001c 	sw	gp,28(sp)
  406a40:	00a08021 	move	s0,a1
  406a44:	8c84000c 	lw	a0,12(a0)
  406a48:	8ca50000 	lw	a1,0(a1)
  406a4c:	8f990290 	lw	t9,656(gp)
  406a50:	00000000 	nop
  406a54:	0320f809 	jalr	t9
  406a58:	00000000 	nop
  406a5c:	8fbc0010 	lw	gp,16(sp)
  406a60:	04400003 	bltz	v0,406a70 <_stdio_lseek+0x50>
  406a64:	2403ffff 	li	v1,-1
  406a68:	ae020000 	sw	v0,0(s0)
  406a6c:	00001821 	move	v1,zero
  406a70:	8fbf0020 	lw	ra,32(sp)
  406a74:	8fb00018 	lw	s0,24(sp)
  406a78:	00601021 	move	v0,v1
  406a7c:	03e00008 	jr	ra
  406a80:	27bd0028 	addiu	sp,sp,40
	...

00406a90 <__stdio_init_mutex>:
  406a90:	3c1c0000 	lui	gp,0x0
  406a94:	279c7fd0 	addiu	gp,gp,32720
  406a98:	0399e021 	addu	gp,gp,t9
  406a9c:	27bdffe0 	addiu	sp,sp,-32
  406aa0:	afbc0010 	sw	gp,16(sp)
  406aa4:	8f85000c 	lw	a1,12(gp)
  406aa8:	00000000 	nop
  406aac:	24a5fab0 	addiu	a1,a1,-1360
  406ab0:	24060018 	li	a2,24
  406ab4:	afbf001c 	sw	ra,28(sp)
  406ab8:	afbc0018 	sw	gp,24(sp)
  406abc:	8f9902fc 	lw	t9,764(gp)
  406ac0:	00000000 	nop
  406ac4:	0320f809 	jalr	t9
  406ac8:	00000000 	nop
  406acc:	8fbc0010 	lw	gp,16(sp)
  406ad0:	8fbf001c 	lw	ra,28(sp)
  406ad4:	00000000 	nop
  406ad8:	03e00008 	jr	ra
  406adc:	27bd0020 	addiu	sp,sp,32

00406ae0 <_stdio_term>:
  406ae0:	3c1c0000 	lui	gp,0x0
  406ae4:	279c7f80 	addiu	gp,gp,32640
  406ae8:	0399e021 	addu	gp,gp,t9
  406aec:	27bdffd8 	addiu	sp,sp,-40
  406af0:	afbc0010 	sw	gp,16(sp)
  406af4:	8f84009c 	lw	a0,156(gp)
  406af8:	afb00018 	sw	s0,24(sp)
  406afc:	afbf0020 	sw	ra,32(sp)
  406b00:	afbc001c 	sw	gp,28(sp)
  406b04:	8f99013c 	lw	t9,316(gp)
  406b08:	00000000 	nop
  406b0c:	0320f809 	jalr	t9
  406b10:	00000000 	nop
  406b14:	8fbc0010 	lw	gp,16(sp)
  406b18:	00000000 	nop
  406b1c:	8f900210 	lw	s0,528(gp)
  406b20:	00000000 	nop
  406b24:	8e100000 	lw	s0,0(s0)
  406b28:	00000000 	nop
  406b2c:	1200000e 	beqz	s0,406b68 <_stdio_term+0x88>
  406b30:	00002021 	move	a0,zero
  406b34:	24020001 	li	v0,1
  406b38:	26040038 	addiu	a0,s0,56
  406b3c:	ae020034 	sw	v0,52(s0)
  406b40:	8f99013c 	lw	t9,316(gp)
  406b44:	00000000 	nop
  406b48:	0320f809 	jalr	t9
  406b4c:	00000000 	nop
  406b50:	8fbc0010 	lw	gp,16(sp)
  406b54:	8e100010 	lw	s0,16(s0)
  406b58:	00000000 	nop
  406b5c:	1600fff6 	bnez	s0,406b38 <_stdio_term+0x58>
  406b60:	24020001 	li	v0,1
  406b64:	00002021 	move	a0,zero
  406b68:	8f9900f0 	lw	t9,240(gp)
  406b6c:	00000000 	nop
  406b70:	0320f809 	jalr	t9
  406b74:	00000000 	nop
  406b78:	8fbc0010 	lw	gp,16(sp)
  406b7c:	8fbf0020 	lw	ra,32(sp)
  406b80:	8fb00018 	lw	s0,24(sp)
  406b84:	03e00008 	jr	ra
  406b88:	27bd0028 	addiu	sp,sp,40

00406b8c <_stdio_init>:
  406b8c:	3c1c0000 	lui	gp,0x0
  406b90:	279c7ed4 	addiu	gp,gp,32468
  406b94:	0399e021 	addu	gp,gp,t9
  406b98:	27bdffd0 	addiu	sp,sp,-48
  406b9c:	afbc0010 	sw	gp,16(sp)
  406ba0:	afbf002c 	sw	ra,44(sp)
  406ba4:	afb30024 	sw	s3,36(sp)
  406ba8:	afb20020 	sw	s2,32(sp)
  406bac:	afb1001c 	sw	s1,28(sp)
  406bb0:	afb00018 	sw	s0,24(sp)
  406bb4:	afbc0028 	sw	gp,40(sp)
  406bb8:	8f9900bc 	lw	t9,188(gp)
  406bbc:	00000000 	nop
  406bc0:	0320f809 	jalr	t9
  406bc4:	00000000 	nop
  406bc8:	8fbc0010 	lw	gp,16(sp)
  406bcc:	00002021 	move	a0,zero
  406bd0:	8f91000c 	lw	s1,12(gp)
  406bd4:	00000000 	nop
  406bd8:	26311ae0 	addiu	s1,s1,6880
  406bdc:	00409021 	move	s2,v0
  406be0:	8c530000 	lw	s3,0(v0)
  406be4:	24100001 	li	s0,1
  406be8:	8f9902d0 	lw	t9,720(gp)
  406bec:	00000000 	nop
  406bf0:	0320f809 	jalr	t9
  406bf4:	00000000 	nop
  406bf8:	8fbc0010 	lw	gp,16(sp)
  406bfc:	02021023 	subu	v0,s0,v0
  406c00:	96230000 	lhu	v1,0(s1)
  406c04:	00021200 	sll	v0,v0,0x8
  406c08:	00621826 	xor	v1,v1,v0
  406c0c:	24040001 	li	a0,1
  406c10:	a6230000 	sh	v1,0(s1)
  406c14:	8f9902d0 	lw	t9,720(gp)
  406c18:	00000000 	nop
  406c1c:	0320f809 	jalr	t9
  406c20:	00000000 	nop
  406c24:	8fbc0010 	lw	gp,16(sp)
  406c28:	02028023 	subu	s0,s0,v0
  406c2c:	96220050 	lhu	v0,80(s1)
  406c30:	00108200 	sll	s0,s0,0x8
  406c34:	00501026 	xor	v0,v0,s0
  406c38:	a6220050 	sh	v0,80(s1)
  406c3c:	8fbf002c 	lw	ra,44(sp)
  406c40:	ae530000 	sw	s3,0(s2)
  406c44:	8fb1001c 	lw	s1,28(sp)
  406c48:	8fb30024 	lw	s3,36(sp)
  406c4c:	8fb20020 	lw	s2,32(sp)
  406c50:	8fb00018 	lw	s0,24(sp)
  406c54:	03e00008 	jr	ra
  406c58:	27bd0030 	addiu	sp,sp,48
  406c5c:	00000000 	nop

00406c60 <vsnprintf>:
  406c60:	3c1c0000 	lui	gp,0x0
  406c64:	279c7e00 	addiu	gp,gp,32256
  406c68:	0399e021 	addu	gp,gp,t9
  406c6c:	27bdff80 	addiu	sp,sp,-128
  406c70:	afbc0010 	sw	gp,16(sp)
  406c74:	00801821 	move	v1,a0
  406c78:	afb00068 	sw	s0,104(sp)
  406c7c:	00a08021 	move	s0,a1
  406c80:	00032827 	nor	a1,zero,v1
  406c84:	00b0102b 	sltu	v0,a1,s0
  406c88:	afb20070 	sw	s2,112(sp)
  406c8c:	afb1006c 	sw	s1,108(sp)
  406c90:	afbf0078 	sw	ra,120(sp)
  406c94:	afbc0074 	sw	gp,116(sp)
  406c98:	27a40050 	addiu	a0,sp,80
  406c9c:	00c08821 	move	s1,a2
  406ca0:	00e09021 	move	s2,a3
  406ca4:	afa3002c 	sw	v1,44(sp)
  406ca8:	afa30038 	sw	v1,56(sp)
  406cac:	afa30034 	sw	v1,52(sp)
  406cb0:	10400002 	beqz	v0,406cbc <vsnprintf+0x5c>
  406cb4:	afa3003c 	sw	v1,60(sp)
  406cb8:	00a08021 	move	s0,a1
  406cbc:	00701021 	addu	v0,v1,s0
  406cc0:	2403fffe 	li	v1,-2
  406cc4:	afa30024 	sw	v1,36(sp)
  406cc8:	24032090 	li	v1,8336
  406ccc:	a7a30018 	sh	v1,24(sp)
  406cd0:	afa20040 	sw	v0,64(sp)
  406cd4:	afa20030 	sw	v0,48(sp)
  406cd8:	afa00044 	sw	zero,68(sp)
  406cdc:	afa0004c 	sw	zero,76(sp)
  406ce0:	8f99013c 	lw	t9,316(gp)
  406ce4:	00000000 	nop
  406ce8:	0320f809 	jalr	t9
  406cec:	00000000 	nop
  406cf0:	8fbc0010 	lw	gp,16(sp)
  406cf4:	02202821 	move	a1,s1
  406cf8:	02403021 	move	a2,s2
  406cfc:	27a40018 	addiu	a0,sp,24
  406d00:	8f99002c 	lw	t9,44(gp)
  406d04:	00000000 	nop
  406d08:	0320f809 	jalr	t9
  406d0c:	00000000 	nop
  406d10:	8fbc0010 	lw	gp,16(sp)
  406d14:	1200000a 	beqz	s0,406d40 <vsnprintf+0xe0>
  406d18:	00402821 	move	a1,v0
  406d1c:	8fa30034 	lw	v1,52(sp)
  406d20:	8fa20030 	lw	v0,48(sp)
  406d24:	00000000 	nop
  406d28:	14620002 	bne	v1,v0,406d34 <vsnprintf+0xd4>
  406d2c:	2464ffff 	addiu	a0,v1,-1
  406d30:	afa40034 	sw	a0,52(sp)
  406d34:	8fa20034 	lw	v0,52(sp)
  406d38:	00000000 	nop
  406d3c:	a0400000 	sb	zero,0(v0)
  406d40:	8fbf0078 	lw	ra,120(sp)
  406d44:	8fb20070 	lw	s2,112(sp)
  406d48:	8fb1006c 	lw	s1,108(sp)
  406d4c:	8fb00068 	lw	s0,104(sp)
  406d50:	00a01021 	move	v0,a1
  406d54:	03e00008 	jr	ra
  406d58:	27bd0080 	addiu	sp,sp,128
  406d5c:	00000000 	nop

00406d60 <fprintf>:
  406d60:	3c1c0000 	lui	gp,0x0
  406d64:	279c7d00 	addiu	gp,gp,32000
  406d68:	0399e021 	addu	gp,gp,t9
  406d6c:	27bdffe0 	addiu	sp,sp,-32
  406d70:	afbc0010 	sw	gp,16(sp)
  406d74:	afa60028 	sw	a2,40(sp)
  406d78:	27a60028 	addiu	a2,sp,40
  406d7c:	afbf001c 	sw	ra,28(sp)
  406d80:	afa7002c 	sw	a3,44(sp)
  406d84:	afbc0018 	sw	gp,24(sp)
  406d88:	8f99002c 	lw	t9,44(gp)
  406d8c:	00000000 	nop
  406d90:	0320f809 	jalr	t9
  406d94:	00000000 	nop
  406d98:	8fbc0010 	lw	gp,16(sp)
  406d9c:	8fbf001c 	lw	ra,28(sp)
  406da0:	00000000 	nop
  406da4:	03e00008 	jr	ra
  406da8:	27bd0020 	addiu	sp,sp,32
  406dac:	00000000 	nop

00406db0 <sprintf>:
  406db0:	3c1c0000 	lui	gp,0x0
  406db4:	279c7cb0 	addiu	gp,gp,31920
  406db8:	0399e021 	addu	gp,gp,t9
  406dbc:	27bdffe0 	addiu	sp,sp,-32
  406dc0:	afbc0010 	sw	gp,16(sp)
  406dc4:	afa60028 	sw	a2,40(sp)
  406dc8:	afa7002c 	sw	a3,44(sp)
  406dcc:	00a03021 	move	a2,a1
  406dd0:	27a70028 	addiu	a3,sp,40
  406dd4:	2405ffff 	li	a1,-1
  406dd8:	afbf001c 	sw	ra,28(sp)
  406ddc:	afbc0018 	sw	gp,24(sp)
  406de0:	8f9902c8 	lw	t9,712(gp)
  406de4:	00000000 	nop
  406de8:	0320f809 	jalr	t9
  406dec:	00000000 	nop
  406df0:	8fbc0010 	lw	gp,16(sp)
  406df4:	8fbf001c 	lw	ra,28(sp)
  406df8:	00000000 	nop
  406dfc:	03e00008 	jr	ra
  406e00:	27bd0020 	addiu	sp,sp,32
	...
  406e10:	3c1c0000 	lui	gp,0x0
  406e14:	279c7c50 	addiu	gp,gp,31824
  406e18:	0399e021 	addu	gp,gp,t9
  406e1c:	27bdffc8 	addiu	sp,sp,-56
  406e20:	afbc0010 	sw	gp,16(sp)
  406e24:	30a20080 	andi	v0,a1,0x80
  406e28:	afb40028 	sw	s4,40(sp)
  406e2c:	afb30024 	sw	s3,36(sp)
  406e30:	afb20020 	sw	s2,32(sp)
  406e34:	afb00018 	sw	s0,24(sp)
  406e38:	0080a021 	move	s4,a0
  406e3c:	afbf0030 	sw	ra,48(sp)
  406e40:	afbc002c 	sw	gp,44(sp)
  406e44:	afb1001c 	sw	s1,28(sp)
  406e48:	00a09021 	move	s2,a1
  406e4c:	00c08021 	move	s0,a2
  406e50:	00e09821 	move	s3,a3
  406e54:	10400014 	beqz	v0,406ea8 <sprintf+0xf8>
  406e58:	00e02021 	move	a0,a3
  406e5c:	8f99007c 	lw	t9,124(gp)
  406e60:	00000000 	nop
  406e64:	0320f809 	jalr	t9
  406e68:	00000000 	nop
  406e6c:	8fbc0010 	lw	gp,16(sp)
  406e70:	02028023 	subu	s0,s0,v0
  406e74:	00408821 	move	s1,v0
  406e78:	3245007f 	andi	a1,s2,0x7f
  406e7c:	02003021 	move	a2,s0
  406e80:	1a000008 	blez	s0,406ea4 <sprintf+0xf4>
  406e84:	02802021 	move	a0,s4
  406e88:	8f990008 	lw	t9,8(gp)
  406e8c:	00000000 	nop
  406e90:	27396ee8 	addiu	t9,t9,28392
  406e94:	00000000 	nop
  406e98:	0320f809 	jalr	t9
  406e9c:	00000000 	nop
  406ea0:	8fbc0010 	lw	gp,16(sp)
  406ea4:	02208021 	move	s0,s1
  406ea8:	02602021 	move	a0,s3
  406eac:	02002821 	move	a1,s0
  406eb0:	02803021 	move	a2,s4
  406eb4:	8f990358 	lw	t9,856(gp)
  406eb8:	00000000 	nop
  406ebc:	0320f809 	jalr	t9
  406ec0:	00000000 	nop
  406ec4:	8fbc0010 	lw	gp,16(sp)
  406ec8:	8fbf0030 	lw	ra,48(sp)
  406ecc:	8fb40028 	lw	s4,40(sp)
  406ed0:	8fb30024 	lw	s3,36(sp)
  406ed4:	8fb20020 	lw	s2,32(sp)
  406ed8:	8fb1001c 	lw	s1,28(sp)
  406edc:	8fb00018 	lw	s0,24(sp)
  406ee0:	03e00008 	jr	ra
  406ee4:	27bd0038 	addiu	sp,sp,56
  406ee8:	3c1c0000 	lui	gp,0x0
  406eec:	279c7b78 	addiu	gp,gp,31608
  406ef0:	0399e021 	addu	gp,gp,t9
  406ef4:	27bdffd0 	addiu	sp,sp,-48
  406ef8:	afbc0010 	sw	gp,16(sp)
  406efc:	afb10024 	sw	s1,36(sp)
  406f00:	afb00020 	sw	s0,32(sp)
  406f04:	afbf002c 	sw	ra,44(sp)
  406f08:	afbc0028 	sw	gp,40(sp)
  406f0c:	00c08021 	move	s0,a2
  406f10:	a3a50018 	sb	a1,24(sp)
  406f14:	10c0000c 	beqz	a2,406f48 <sprintf+0x198>
  406f18:	00808821 	move	s1,a0
  406f1c:	2610ffff 	addiu	s0,s0,-1
  406f20:	27a40018 	addiu	a0,sp,24
  406f24:	24050001 	li	a1,1
  406f28:	02203021 	move	a2,s1
  406f2c:	8f990358 	lw	t9,856(gp)
  406f30:	00000000 	nop
  406f34:	0320f809 	jalr	t9
  406f38:	00000000 	nop
  406f3c:	8fbc0010 	lw	gp,16(sp)
  406f40:	1600fff7 	bnez	s0,406f20 <sprintf+0x170>
  406f44:	2610ffff 	addiu	s0,s0,-1
  406f48:	8fbf002c 	lw	ra,44(sp)
  406f4c:	8fb10024 	lw	s1,36(sp)
  406f50:	8fb00020 	lw	s0,32(sp)
  406f54:	03e00008 	jr	ra
  406f58:	27bd0030 	addiu	sp,sp,48
  406f5c:	3c1c0000 	lui	gp,0x0
  406f60:	279c7b04 	addiu	gp,gp,31492
  406f64:	0399e021 	addu	gp,gp,t9
  406f68:	27bdff20 	addiu	sp,sp,-224
  406f6c:	afbc0018 	sw	gp,24(sp)
  406f70:	afb600c8 	sw	s6,200(sp)
  406f74:	afb300bc 	sw	s3,188(sp)
  406f78:	0080b021 	move	s6,a0
  406f7c:	00a09821 	move	s3,a1
  406f80:	00a02021 	move	a0,a1
  406f84:	afbf00d8 	sw	ra,216(sp)
  406f88:	afbe00d4 	sw	s8,212(sp)
  406f8c:	afb700cc 	sw	s7,204(sp)
  406f90:	afb500c4 	sw	s5,196(sp)
  406f94:	00c0b821 	move	s7,a2
  406f98:	afb400c0 	sw	s4,192(sp)
  406f9c:	afbc00d0 	sw	gp,208(sp)
  406fa0:	afb200b8 	sw	s2,184(sp)
  406fa4:	afb100b4 	sw	s1,180(sp)
  406fa8:	afb000b0 	sw	s0,176(sp)
  406fac:	afa000ac 	sw	zero,172(sp)
  406fb0:	8f990068 	lw	t9,104(gp)
  406fb4:	00000000 	nop
  406fb8:	0320f809 	jalr	t9
  406fbc:	00000000 	nop
  406fc0:	8fbc0018 	lw	gp,24(sp)
  406fc4:	02602021 	move	a0,s3
  406fc8:	8f99010c 	lw	t9,268(gp)
  406fcc:	00000000 	nop
  406fd0:	0320f809 	jalr	t9
  406fd4:	00000000 	nop
  406fd8:	8fbc0018 	lw	gp,24(sp)
  406fdc:	92660026 	lbu	a2,38(s3)
  406fe0:	8e630018 	lw	v1,24(s3)
  406fe4:	00061080 	sll	v0,a2,0x2
  406fe8:	02621021 	addu	v0,s3,v0
  406fec:	24440024 	addiu	a0,v0,36
  406ff0:	0000a021 	move	s4,zero
  406ff4:	2415000b 	li	s5,11
  406ff8:	241e0020 	li	s8,32
  406ffc:	18600004 	blez	v1,407010 <sprintf+0x260>
  407000:	26650050 	addiu	a1,s3,80
  407004:	000610c0 	sll	v0,a2,0x3
  407008:	00a21021 	addu	v0,a1,v0
  40700c:	2445fff8 	addiu	a1,v0,-8
  407010:	8e67001c 	lw	a3,28(s3)
  407014:	00000000 	nop
  407018:	18e00008 	blez	a3,40703c <sprintf+0x28c>
  40701c:	00003021 	move	a2,zero
  407020:	00061080 	sll	v0,a2,0x2
  407024:	24c60001 	addiu	a2,a2,1
  407028:	03a21021 	addu	v0,sp,v0
  40702c:	00c7182a 	slt	v1,a2,a3
  407030:	ac4500a8 	sw	a1,168(v0)
  407034:	1460fffa 	bnez	v1,407020 <sprintf+0x270>
  407038:	24a50008 	addiu	a1,a1,8
  40703c:	8e630020 	lw	v1,32(s3)
  407040:	00000000 	nop
  407044:	1460000f 	bnez	v1,407084 <sprintf+0x2d4>
  407048:	00009021 	move	s2,zero
  40704c:	8fa200a8 	lw	v0,168(sp)
  407050:	8ee30000 	lw	v1,0(s7)
  407054:	8e650010 	lw	a1,16(s3)
  407058:	8c440000 	lw	a0,0(v0)
  40705c:	30a50f00 	andi	a1,a1,0xf00
  407060:	00603821 	move	a3,v1
  407064:	000337c3 	sra	a2,v1,0x1f
  407068:	8f99018c 	lw	t9,396(gp)
  40706c:	00000000 	nop
  407070:	0320f809 	jalr	t9
  407074:	00000000 	nop
  407078:	8fbc0018 	lw	gp,24(sp)
  40707c:	10000166 	b	407618 <sprintf+0x868>
  407080:	00002021 	move	a0,zero
  407084:	2c620008 	sltiu	v0,v1,8
  407088:	1040007f 	beqz	v0,407288 <sprintf+0x4d8>
  40708c:	2c620010 	sltiu	v0,v1,16
  407090:	8f90000c 	lw	s0,12(gp)
  407094:	00000000 	nop
  407098:	2610fad0 	addiu	s0,s0,-1328
  40709c:	02038021 	addu	s0,s0,v1
  4070a0:	8210ffff 	lb	s0,-1(s0)
  4070a4:	2402000a 	li	v0,10
  4070a8:	1602000a 	bne	s0,v0,4070d4 <sprintf+0x324>
  4070ac:	24110057 	li	s1,87
  4070b0:	8e650010 	lw	a1,16(s3)
  4070b4:	00000000 	nop
  4070b8:	30a20020 	andi	v0,a1,0x20
  4070bc:	10400002 	beqz	v0,4070c8 <sprintf+0x318>
  4070c0:	30a20040 	andi	v0,a1,0x40
  4070c4:	2411002c 	li	s1,44
  4070c8:	10400003 	beqz	v0,4070d8 <sprintf+0x328>
  4070cc:	2c620006 	sltiu	v0,v1,6
  4070d0:	36310080 	ori	s1,s1,0x80
  4070d4:	2c620006 	sltiu	v0,v1,6
  4070d8:	10400008 	beqz	v0,4070fc <sprintf+0x34c>
  4070dc:	24020003 	li	v0,3
  4070e0:	14620002 	bne	v1,v0,4070ec <sprintf+0x33c>
  4070e4:	24020001 	li	v0,1
  4070e8:	24110037 	li	s1,55
  4070ec:	14620004 	bne	v1,v0,407100 <sprintf+0x350>
  4070f0:	00000000 	nop
  4070f4:	10000002 	b	407100 <sprintf+0x350>
  4070f8:	24150006 	li	s5,6
  4070fc:	00108023 	negu	s0,s0
  407100:	8e620004 	lw	v0,4(s3)
  407104:	00000000 	nop
  407108:	04410002 	bgez	v0,407114 <sprintf+0x364>
  40710c:	00000000 	nop
  407110:	827e0017 	lb	s8,23(s3)
  407114:	8c840000 	lw	a0,0(a0)
  407118:	8fa500a8 	lw	a1,168(sp)
  40711c:	30840f00 	andi	a0,a0,0xf00
  407120:	02003021 	move	a2,s0
  407124:	8f990024 	lw	t9,36(gp)
  407128:	00000000 	nop
  40712c:	0320f809 	jalr	t9
  407130:	00000000 	nop
  407134:	8fbc0018 	lw	gp,24(sp)
  407138:	00403021 	move	a2,v0
  40713c:	27a400a7 	addiu	a0,sp,167
  407140:	00603821 	move	a3,v1
  407144:	afb00010 	sw	s0,16(sp)
  407148:	afb10014 	sw	s1,20(sp)
  40714c:	8f990330 	lw	t9,816(gp)
  407150:	00000000 	nop
  407154:	0320f809 	jalr	t9
  407158:	00000000 	nop
  40715c:	8fbc0018 	lw	gp,24(sp)
  407160:	8e650020 	lw	a1,32(s3)
  407164:	00409021 	move	s2,v0
  407168:	2ca20006 	sltiu	v0,a1,6
  40716c:	14400013 	bnez	v0,4071bc <sprintf+0x40c>
  407170:	27a20028 	addiu	v0,sp,40
  407174:	82430000 	lb	v1,0(s2)
  407178:	2402002d 	li	v0,45
  40717c:	8e640010 	lw	a0,16(s3)
  407180:	14620006 	bne	v1,v0,40719c <sprintf+0x3ec>
  407184:	30820002 	andi	v0,a0,0x2
  407188:	34820002 	ori	v0,a0,0x2
  40718c:	26520001 	addiu	s2,s2,1
  407190:	24150002 	li	s5,2
  407194:	10000008 	b	4071b8 <sprintf+0x408>
  407198:	ae620010 	sw	v0,16(s3)
  40719c:	10400003 	beqz	v0,4071ac <sprintf+0x3fc>
  4071a0:	30820001 	andi	v0,a0,0x1
  4071a4:	10000004 	b	4071b8 <sprintf+0x408>
  4071a8:	0000a821 	move	s5,zero
  4071ac:	10400003 	beqz	v0,4071bc <sprintf+0x40c>
  4071b0:	27a20028 	addiu	v0,sp,40
  4071b4:	24150004 	li	s5,4
  4071b8:	27a20028 	addiu	v0,sp,40
  4071bc:	8e740004 	lw	s4,4(s3)
  4071c0:	00522023 	subu	a0,v0,s2
  4071c4:	06810002 	bgez	s4,4071d0 <sprintf+0x420>
  4071c8:	2490007f 	addiu	s0,a0,127
  4071cc:	24140001 	li	s4,1
  4071d0:	8e620010 	lw	v0,16(s3)
  4071d4:	00000000 	nop
  4071d8:	30420010 	andi	v0,v0,0x10
  4071dc:	10400010 	beqz	v0,407220 <sprintf+0x470>
  4071e0:	2ca20003 	sltiu	v0,a1,3
  4071e4:	10400002 	beqz	v0,4071f0 <sprintf+0x440>
  4071e8:	24020003 	li	v0,3
  4071ec:	24150006 	li	s5,6
  4071f0:	14a20002 	bne	a1,v0,4071fc <sprintf+0x44c>
  4071f4:	24020004 	li	v0,4
  4071f8:	24150009 	li	s5,9
  4071fc:	14a20008 	bne	a1,v0,407220 <sprintf+0x470>
  407200:	0214102b 	sltu	v0,s0,s4
  407204:	14400006 	bnez	v0,407220 <sprintf+0x470>
  407208:	24020030 	li	v0,48
  40720c:	82430000 	lb	v1,0(s2)
  407210:	00000000 	nop
  407214:	14620004 	bne	v1,v0,407228 <sprintf+0x478>
  407218:	24940080 	addiu	s4,a0,128
  40721c:	24140001 	li	s4,1
  407220:	82430000 	lb	v1,0(s2)
  407224:	24020030 	li	v0,48
  407228:	14620012 	bne	v1,v0,407274 <sprintf+0x4c4>
  40722c:	0214102b 	sltu	v0,s0,s4
  407230:	2aa20006 	slti	v0,s5,6
  407234:	14400002 	bnez	v0,407240 <sprintf+0x490>
  407238:	00000000 	nop
  40723c:	2415000b 	li	s5,11
  407240:	8e630020 	lw	v1,32(s3)
  407244:	24020001 	li	v0,1
  407248:	14620006 	bne	v1,v0,407264 <sprintf+0x4b4>
  40724c:	00000000 	nop
  407250:	8f92000c 	lw	s2,12(gp)
  407254:	00000000 	nop
  407258:	2652fae4 	addiu	s2,s2,-1308
  40725c:	10000007 	b	40727c <sprintf+0x4cc>
  407260:	24100005 	li	s0,5
  407264:	16800003 	bnez	s4,407274 <sprintf+0x4c4>
  407268:	0214102b 	sltu	v0,s0,s4
  40726c:	00008021 	move	s0,zero
  407270:	0214102b 	sltu	v0,s0,s4
  407274:	14400002 	bnez	v0,407280 <sprintf+0x4d0>
  407278:	02903023 	subu	a2,s4,s0
  40727c:	00003021 	move	a2,zero
  407280:	10000077 	b	407460 <sprintf+0x6b0>
  407284:	00c0a021 	move	s4,a2
  407288:	10400016 	beqz	v0,4072e4 <sprintf+0x534>
  40728c:	2c620012 	sltiu	v0,v1,18
  407290:	8fa500a8 	lw	a1,168(sp)
  407294:	26620004 	addiu	v0,s3,4
  407298:	8ca60000 	lw	a2,0(a1)
  40729c:	8ca70004 	lw	a3,4(a1)
  4072a0:	02c02021 	move	a0,s6
  4072a4:	afa20010 	sw	v0,16(sp)
  4072a8:	8f820008 	lw	v0,8(gp)
  4072ac:	00000000 	nop
  4072b0:	24426e10 	addiu	v0,v0,28176
  4072b4:	00000000 	nop
  4072b8:	afa20014 	sw	v0,20(sp)
  4072bc:	8f9900c0 	lw	t9,192(gp)
  4072c0:	00000000 	nop
  4072c4:	0320f809 	jalr	t9
  4072c8:	00000000 	nop
  4072cc:	8fbc0018 	lw	gp,24(sp)
  4072d0:	8ee30000 	lw	v1,0(s7)
  4072d4:	00002021 	move	a0,zero
  4072d8:	00621821 	addu	v1,v1,v0
  4072dc:	100000ce 	b	407618 <sprintf+0x868>
  4072e0:	aee30000 	sw	v1,0(s7)
  4072e4:	1040002c 	beqz	v0,407398 <sprintf+0x5e8>
  4072e8:	2c620014 	sltiu	v0,v1,20
  4072ec:	24020011 	li	v0,17
  4072f0:	afa00020 	sw	zero,32(sp)
  4072f4:	8fa500a8 	lw	a1,168(sp)
  4072f8:	14620018 	bne	v1,v0,40735c <sprintf+0x5ac>
  4072fc:	27a60020 	addiu	a2,sp,32
  407300:	8ca20000 	lw	v0,0(a1)
  407304:	00000000 	nop
  407308:	1040003a 	beqz	v0,4073f4 <sprintf+0x644>
  40730c:	afa200ac 	sw	v0,172(sp)
  407310:	8e620004 	lw	v0,4(s3)
  407314:	00000000 	nop
  407318:	04410002 	bgez	v0,407324 <sprintf+0x574>
  40731c:	00403021 	move	a2,v0
  407320:	2406ffff 	li	a2,-1
  407324:	27a400ac 	addiu	a0,sp,172
  407328:	00802821 	move	a1,a0
  40732c:	27a70020 	addiu	a3,sp,32
  407330:	8f9901c4 	lw	t9,452(gp)
  407334:	00000000 	nop
  407338:	0320f809 	jalr	t9
  40733c:	00000000 	nop
  407340:	8fbc0018 	lw	gp,24(sp)
  407344:	00408021 	move	s0,v0
  407348:	2402ffff 	li	v0,-1
  40734c:	120200b2 	beq	s0,v0,407618 <sprintf+0x868>
  407350:	2404ffff 	li	a0,-1
  407354:	10000043 	b	407464 <sprintf+0x6b4>
  407358:	2402000b 	li	v0,11
  40735c:	8ca50000 	lw	a1,0(a1)
  407360:	27b20028 	addiu	s2,sp,40
  407364:	02402021 	move	a0,s2
  407368:	8f99003c 	lw	t9,60(gp)
  40736c:	00000000 	nop
  407370:	0320f809 	jalr	t9
  407374:	00000000 	nop
  407378:	8fbc0018 	lw	gp,24(sp)
  40737c:	00408021 	move	s0,v0
  407380:	2402ffff 	li	v0,-1
  407384:	120200a4 	beq	s0,v0,407618 <sprintf+0x868>
  407388:	2404ffff 	li	a0,-1
  40738c:	02501021 	addu	v0,s2,s0
  407390:	10000033 	b	407460 <sprintf+0x6b0>
  407394:	a0400000 	sb	zero,0(v0)
  407398:	10400020 	beqz	v0,40741c <sprintf+0x66c>
  40739c:	24020014 	li	v0,20
  4073a0:	24020013 	li	v0,19
  4073a4:	8fa500a8 	lw	a1,168(sp)
  4073a8:	14620017 	bne	v1,v0,407408 <sprintf+0x658>
  4073ac:	27b20028 	addiu	s2,sp,40
  4073b0:	8cb20000 	lw	s2,0(a1)
  4073b4:	00000000 	nop
  4073b8:	1240000e 	beqz	s2,4073f4 <sprintf+0x644>
  4073bc:	00000000 	nop
  4073c0:	8e620004 	lw	v0,4(s3)
  4073c4:	00000000 	nop
  4073c8:	04410002 	bgez	v0,4073d4 <sprintf+0x624>
  4073cc:	00402821 	move	a1,v0
  4073d0:	2405ffff 	li	a1,-1
  4073d4:	02402021 	move	a0,s2
  4073d8:	8f99025c 	lw	t9,604(gp)
  4073dc:	00000000 	nop
  4073e0:	0320f809 	jalr	t9
  4073e4:	00000000 	nop
  4073e8:	8fbc0018 	lw	gp,24(sp)
  4073ec:	1000001c 	b	407460 <sprintf+0x6b0>
  4073f0:	00408021 	move	s0,v0
  4073f4:	8f92000c 	lw	s2,12(gp)
  4073f8:	00000000 	nop
  4073fc:	2652faec 	addiu	s2,s2,-1300
  407400:	10000017 	b	407460 <sprintf+0x6b0>
  407404:	24100006 	li	s0,6
  407408:	90a20003 	lbu	v0,3(a1)
  40740c:	24100001 	li	s0,1
  407410:	a3a20028 	sb	v0,40(sp)
  407414:	10000012 	b	407460 <sprintf+0x6b0>
  407418:	a3a00029 	sb	zero,41(sp)
  40741c:	1462007e 	bne	v1,v0,407618 <sprintf+0x868>
  407420:	2404ffff 	li	a0,-1
  407424:	8f9900bc 	lw	t9,188(gp)
  407428:	00000000 	nop
  40742c:	0320f809 	jalr	t9
  407430:	00000000 	nop
  407434:	8fbc0018 	lw	gp,24(sp)
  407438:	8c440000 	lw	a0,0(v0)
  40743c:	27a50028 	addiu	a1,sp,40
  407440:	24060080 	li	a2,128
  407444:	8f99027c 	lw	t9,636(gp)
  407448:	00000000 	nop
  40744c:	0320f809 	jalr	t9
  407450:	00000000 	nop
  407454:	8fbc0018 	lw	gp,24(sp)
  407458:	1000ffd9 	b	4073c0 <sprintf+0x610>
  40745c:	00409021 	move	s2,v0
  407460:	2402000b 	li	v0,11
  407464:	12a20007 	beq	s5,v0,407484 <sprintf+0x6d4>
  407468:	02142021 	addu	a0,s0,s4
  40746c:	2aa20006 	slti	v0,s5,6
  407470:	10400003 	beqz	v0,407480 <sprintf+0x6d0>
  407474:	00000000 	nop
  407478:	10000002 	b	407484 <sprintf+0x6d4>
  40747c:	24840001 	addiu	a0,a0,1
  407480:	24840002 	addiu	a0,a0,2
  407484:	8e620008 	lw	v0,8(s3)
  407488:	00000000 	nop
  40748c:	0082182b 	sltu	v1,a0,v0
  407490:	14600002 	bnez	v1,40749c <sprintf+0x6ec>
  407494:	00448823 	subu	s1,v0,a0
  407498:	00008821 	move	s1,zero
  40749c:	8ee20000 	lw	v0,0(s7)
  4074a0:	00911821 	addu	v1,a0,s1
  4074a4:	00431021 	addu	v0,v0,v1
  4074a8:	aee20000 	sw	v0,0(s7)
  4074ac:	24020030 	li	v0,48
  4074b0:	17c20003 	bne	s8,v0,4074c0 <sprintf+0x710>
  4074b4:	00000000 	nop
  4074b8:	0291a021 	addu	s4,s4,s1
  4074bc:	00008821 	move	s1,zero
  4074c0:	8e620010 	lw	v0,16(s3)
  4074c4:	00000000 	nop
  4074c8:	30420008 	andi	v0,v0,0x8
  4074cc:	1440000b 	bnez	v0,4074fc <sprintf+0x74c>
  4074d0:	02203021 	move	a2,s1
  4074d4:	02c02021 	move	a0,s6
  4074d8:	24050020 	li	a1,32
  4074dc:	8f990008 	lw	t9,8(gp)
  4074e0:	00000000 	nop
  4074e4:	27396ee8 	addiu	t9,t9,28392
  4074e8:	00000000 	nop
  4074ec:	0320f809 	jalr	t9
  4074f0:	00000000 	nop
  4074f4:	8fbc0018 	lw	gp,24(sp)
  4074f8:	00008821 	move	s1,zero
  4074fc:	8f84000c 	lw	a0,12(gp)
  407500:	00000000 	nop
  407504:	2484fad8 	addiu	a0,a0,-1320
  407508:	00952021 	addu	a0,a0,s5
  40750c:	02c02821 	move	a1,s6
  407510:	8f990060 	lw	t9,96(gp)
  407514:	00000000 	nop
  407518:	0320f809 	jalr	t9
  40751c:	00000000 	nop
  407520:	8fbc0018 	lw	gp,24(sp)
  407524:	02c02021 	move	a0,s6
  407528:	02803021 	move	a2,s4
  40752c:	24050030 	li	a1,48
  407530:	8f990008 	lw	t9,8(gp)
  407534:	00000000 	nop
  407538:	27396ee8 	addiu	t9,t9,28392
  40753c:	00000000 	nop
  407540:	0320f809 	jalr	t9
  407544:	00000000 	nop
  407548:	8fbc0018 	lw	gp,24(sp)
  40754c:	8fa200ac 	lw	v0,172(sp)
  407550:	00000000 	nop
  407554:	1440000a 	bnez	v0,407580 <sprintf+0x7d0>
  407558:	02402021 	move	a0,s2
  40755c:	02002821 	move	a1,s0
  407560:	02c03021 	move	a2,s6
  407564:	8f990358 	lw	t9,856(gp)
  407568:	00000000 	nop
  40756c:	0320f809 	jalr	t9
  407570:	00000000 	nop
  407574:	8fbc0018 	lw	gp,24(sp)
  407578:	1000001d 	b	4075f0 <sprintf+0x840>
  40757c:	02c02021 	move	a0,s6
  407580:	1200001a 	beqz	s0,4075ec <sprintf+0x83c>
  407584:	afa00020 	sw	zero,32(sp)
  407588:	27b20028 	addiu	s2,sp,40
  40758c:	2e020081 	sltiu	v0,s0,129
  407590:	27a70020 	addiu	a3,sp,32
  407594:	02402021 	move	a0,s2
  407598:	27a500ac 	addiu	a1,sp,172
  40759c:	14400002 	bnez	v0,4075a8 <sprintf+0x7f8>
  4075a0:	02001821 	move	v1,s0
  4075a4:	24030080 	li	v1,128
  4075a8:	00603021 	move	a2,v1
  4075ac:	8f9901c4 	lw	t9,452(gp)
  4075b0:	00000000 	nop
  4075b4:	0320f809 	jalr	t9
  4075b8:	00000000 	nop
  4075bc:	8fbc0018 	lw	gp,24(sp)
  4075c0:	02028023 	subu	s0,s0,v0
  4075c4:	02402021 	move	a0,s2
  4075c8:	00402821 	move	a1,v0
  4075cc:	02c03021 	move	a2,s6
  4075d0:	8f990358 	lw	t9,856(gp)
  4075d4:	00000000 	nop
  4075d8:	0320f809 	jalr	t9
  4075dc:	00000000 	nop
  4075e0:	8fbc0018 	lw	gp,24(sp)
  4075e4:	1600ffe9 	bnez	s0,40758c <sprintf+0x7dc>
  4075e8:	27b20028 	addiu	s2,sp,40
  4075ec:	02c02021 	move	a0,s6
  4075f0:	02203021 	move	a2,s1
  4075f4:	24050020 	li	a1,32
  4075f8:	8f990008 	lw	t9,8(gp)
  4075fc:	00000000 	nop
  407600:	27396ee8 	addiu	t9,t9,28392
  407604:	00000000 	nop
  407608:	0320f809 	jalr	t9
  40760c:	00000000 	nop
  407610:	8fbc0018 	lw	gp,24(sp)
  407614:	00002021 	move	a0,zero
  407618:	8fbf00d8 	lw	ra,216(sp)
  40761c:	8fbe00d4 	lw	s8,212(sp)
  407620:	8fb700cc 	lw	s7,204(sp)
  407624:	8fb600c8 	lw	s6,200(sp)
  407628:	8fb500c4 	lw	s5,196(sp)
  40762c:	8fb400c0 	lw	s4,192(sp)
  407630:	8fb300bc 	lw	s3,188(sp)
  407634:	8fb200b8 	lw	s2,184(sp)
  407638:	8fb100b4 	lw	s1,180(sp)
  40763c:	8fb000b0 	lw	s0,176(sp)
  407640:	00801021 	move	v0,a0
  407644:	03e00008 	jr	ra
  407648:	27bd00e0 	addiu	sp,sp,224

0040764c <vfprintf>:
  40764c:	3c1c0000 	lui	gp,0x0
  407650:	279c7414 	addiu	gp,gp,29716
  407654:	0399e021 	addu	gp,gp,t9
  407658:	27bdff30 	addiu	sp,sp,-208
  40765c:	afbc0010 	sw	gp,16(sp)
  407660:	afb300c4 	sw	s3,196(sp)
  407664:	afb200c0 	sw	s2,192(sp)
  407668:	afb000b8 	sw	s0,184(sp)
  40766c:	afbf00cc 	sw	ra,204(sp)
  407670:	afbc00c8 	sw	gp,200(sp)
  407674:	afb100bc 	sw	s1,188(sp)
  407678:	8c820034 	lw	v0,52(a0)
  40767c:	00809021 	move	s2,a0
  407680:	00a08021 	move	s0,a1
  407684:	14400007 	bnez	v0,4076a4 <vfprintf+0x58>
  407688:	00c09821 	move	s3,a2
  40768c:	24840038 	addiu	a0,a0,56
  407690:	8f990344 	lw	t9,836(gp)
  407694:	00000000 	nop
  407698:	0320f809 	jalr	t9
  40769c:	00000000 	nop
  4076a0:	8fbc0010 	lw	gp,16(sp)
  4076a4:	96430000 	lhu	v1,0(s2)
  4076a8:	02008821 	move	s1,s0
  4076ac:	30620800 	andi	v0,v1,0x800
  4076b0:	10400004 	beqz	v0,4076c4 <vfprintf+0x78>
  4076b4:	afa000b0 	sw	zero,176(sp)
  4076b8:	34620008 	ori	v0,v1,0x8
  4076bc:	1000001a 	b	407728 <vfprintf+0xdc>
  4076c0:	a6420000 	sh	v0,0(s2)
  4076c4:	34620080 	ori	v0,v1,0x80
  4076c8:	a6420000 	sh	v0,0(s2)
  4076cc:	27a40018 	addiu	a0,sp,24
  4076d0:	02002821 	move	a1,s0
  4076d4:	8f9902e0 	lw	t9,736(gp)
  4076d8:	00000000 	nop
  4076dc:	0320f809 	jalr	t9
  4076e0:	00000000 	nop
  4076e4:	8fbc0010 	lw	gp,16(sp)
  4076e8:	04410012 	bgez	v0,407734 <vfprintf+0xe8>
  4076ec:	02602821 	move	a1,s3
  4076f0:	8fa40018 	lw	a0,24(sp)
  4076f4:	8f99007c 	lw	t9,124(gp)
  4076f8:	00000000 	nop
  4076fc:	0320f809 	jalr	t9
  407700:	00000000 	nop
  407704:	8fbc0010 	lw	gp,16(sp)
  407708:	8fa40018 	lw	a0,24(sp)
  40770c:	00402821 	move	a1,v0
  407710:	02403021 	move	a2,s2
  407714:	8f990358 	lw	t9,856(gp)
  407718:	00000000 	nop
  40771c:	0320f809 	jalr	t9
  407720:	00000000 	nop
  407724:	8fbc0010 	lw	gp,16(sp)
  407728:	2402ffff 	li	v0,-1
  40772c:	1000003e 	b	407828 <vfprintf+0x1dc>
  407730:	afa200b0 	sw	v0,176(sp)
  407734:	27a40018 	addiu	a0,sp,24
  407738:	8f9900cc 	lw	t9,204(gp)
  40773c:	00000000 	nop
  407740:	0320f809 	jalr	t9
  407744:	00000000 	nop
  407748:	8fbc0010 	lw	gp,16(sp)
  40774c:	82030000 	lb	v1,0(s0)
  407750:	00000000 	nop
  407754:	1060000a 	beqz	v1,407780 <vfprintf+0x134>
  407758:	24020025 	li	v0,37
  40775c:	10620008 	beq	v1,v0,407780 <vfprintf+0x134>
  407760:	00000000 	nop
  407764:	26100001 	addiu	s0,s0,1
  407768:	82030000 	lb	v1,0(s0)
  40776c:	00000000 	nop
  407770:	10600003 	beqz	v1,407780 <vfprintf+0x134>
  407774:	24020025 	li	v0,37
  407778:	1462fffa 	bne	v1,v0,407764 <vfprintf+0x118>
  40777c:	00000000 	nop
  407780:	1211000e 	beq	s0,s1,4077bc <vfprintf+0x170>
  407784:	02112823 	subu	a1,s0,s1
  407788:	02202021 	move	a0,s1
  40778c:	02403021 	move	a2,s2
  407790:	8f990358 	lw	t9,856(gp)
  407794:	00000000 	nop
  407798:	0320f809 	jalr	t9
  40779c:	00000000 	nop
  4077a0:	8fbc0010 	lw	gp,16(sp)
  4077a4:	0440ffe0 	bltz	v0,407728 <vfprintf+0xdc>
  4077a8:	00401821 	move	v1,v0
  4077ac:	8fa200b0 	lw	v0,176(sp)
  4077b0:	00000000 	nop
  4077b4:	00431021 	addu	v0,v0,v1
  4077b8:	afa200b0 	sw	v0,176(sp)
  4077bc:	82020000 	lb	v0,0(s0)
  4077c0:	00000000 	nop
  4077c4:	10400018 	beqz	v0,407828 <vfprintf+0x1dc>
  4077c8:	24020025 	li	v0,37
  4077cc:	82030001 	lb	v1,1(s0)
  4077d0:	00000000 	nop
  4077d4:	10620011 	beq	v1,v0,40781c <vfprintf+0x1d0>
  4077d8:	26070001 	addiu	a3,s0,1
  4077dc:	02402021 	move	a0,s2
  4077e0:	27a50018 	addiu	a1,sp,24
  4077e4:	27a600b0 	addiu	a2,sp,176
  4077e8:	afa70018 	sw	a3,24(sp)
  4077ec:	8f990008 	lw	t9,8(gp)
  4077f0:	00000000 	nop
  4077f4:	27396f5c 	addiu	t9,t9,28508
  4077f8:	00000000 	nop
  4077fc:	0320f809 	jalr	t9
  407800:	00000000 	nop
  407804:	8fbc0010 	lw	gp,16(sp)
  407808:	0440ffc8 	bltz	v0,40772c <vfprintf+0xe0>
  40780c:	2402ffff 	li	v0,-1
  407810:	8fb00018 	lw	s0,24(sp)
  407814:	1000ffcd 	b	40774c <vfprintf+0x100>
  407818:	02008821 	move	s1,s0
  40781c:	00e08821 	move	s1,a3
  407820:	1000ffca 	b	40774c <vfprintf+0x100>
  407824:	24f00001 	addiu	s0,a3,1
  407828:	8e420034 	lw	v0,52(s2)
  40782c:	00000000 	nop
  407830:	14400006 	bnez	v0,40784c <vfprintf+0x200>
  407834:	26440038 	addiu	a0,s2,56
  407838:	8f990234 	lw	t9,564(gp)
  40783c:	00000000 	nop
  407840:	0320f809 	jalr	t9
  407844:	00000000 	nop
  407848:	8fbc0010 	lw	gp,16(sp)
  40784c:	8fa200b0 	lw	v0,176(sp)
  407850:	8fbf00cc 	lw	ra,204(sp)
  407854:	8fb300c4 	lw	s3,196(sp)
  407858:	8fb200c0 	lw	s2,192(sp)
  40785c:	8fb100bc 	lw	s1,188(sp)
  407860:	8fb000b8 	lw	s0,184(sp)
  407864:	03e00008 	jr	ra
  407868:	27bd00d0 	addiu	sp,sp,208
  40786c:	00000000 	nop

00407870 <_fpmaxtostr>:
  407870:	3c1c0000 	lui	gp,0x0
  407874:	279c71f0 	addiu	gp,gp,29168
  407878:	0399e021 	addu	gp,gp,t9
  40787c:	27bdff18 	addiu	sp,sp,-232
  407880:	afbc0010 	sw	gp,16(sp)
  407884:	8fa200f8 	lw	v0,248(sp)
  407888:	afb100bc 	sw	s1,188(sp)
  40788c:	afb000b8 	sw	s0,184(sp)
  407890:	afbf00e0 	sw	ra,224(sp)
  407894:	afbe00dc 	sw	s8,220(sp)
  407898:	afbc00d8 	sw	gp,216(sp)
  40789c:	afb700d4 	sw	s7,212(sp)
  4078a0:	afb600d0 	sw	s6,208(sp)
  4078a4:	afb500cc 	sw	s5,204(sp)
  4078a8:	afb400c8 	sw	s4,200(sp)
  4078ac:	afb300c4 	sw	s3,196(sp)
  4078b0:	afb200c0 	sw	s2,192(sp)
  4078b4:	24030065 	li	v1,101
  4078b8:	805e000b 	lb	s8,11(v0)
  4078bc:	a3a30078 	sb	v1,120(sp)
  4078c0:	8fa300f8 	lw	v1,248(sp)
  4078c4:	afa400e8 	sw	a0,232(sp)
  4078c8:	8c630004 	lw	v1,4(v1)
  4078cc:	8fa400f8 	lw	a0,248(sp)
  4078d0:	afa300ac 	sw	v1,172(sp)
  4078d4:	8c840000 	lw	a0,0(a0)
  4078d8:	37c20020 	ori	v0,s8,0x20
  4078dc:	24030061 	li	v1,97
  4078e0:	00c08021 	move	s0,a2
  4078e4:	00e08821 	move	s1,a3
  4078e8:	14430004 	bne	v0,v1,4078fc <_fpmaxtostr+0x8c>
  4078ec:	afa400b0 	sw	a0,176(sp)
  4078f0:	27c20006 	addiu	v0,s8,6
  4078f4:	00021600 	sll	v0,v0,0x18
  4078f8:	0002f603 	sra	s8,v0,0x18
  4078fc:	8fa200b0 	lw	v0,176(sp)
  407900:	00000000 	nop
  407904:	04410002 	bgez	v0,407910 <_fpmaxtostr+0xa0>
  407908:	24030006 	li	v1,6
  40790c:	afa300b0 	sw	v1,176(sp)
  407910:	8fa400f8 	lw	a0,248(sp)
  407914:	00000000 	nop
  407918:	8c83000c 	lw	v1,12(a0)
  40791c:	00000000 	nop
  407920:	30620002 	andi	v0,v1,0x2
  407924:	10400003 	beqz	v0,407934 <_fpmaxtostr+0xc4>
  407928:	a3a000a0 	sb	zero,160(sp)
  40792c:	10000005 	b	407944 <_fpmaxtostr+0xd4>
  407930:	2402002b 	li	v0,43
  407934:	30620001 	andi	v0,v1,0x1
  407938:	10400004 	beqz	v0,40794c <_fpmaxtostr+0xdc>
  40793c:	02002021 	move	a0,s0
  407940:	24020020 	li	v0,32
  407944:	a3a200a0 	sb	v0,160(sp)
  407948:	02002021 	move	a0,s0
  40794c:	02202821 	move	a1,s1
  407950:	02003021 	move	a2,s0
  407954:	02203821 	move	a3,s1
  407958:	a3a000a1 	sb	zero,161(sp)
  40795c:	afa0002c 	sw	zero,44(sp)
  407960:	8f9902b0 	lw	t9,688(gp)
  407964:	00000000 	nop
  407968:	0320f809 	jalr	t9
  40796c:	00000000 	nop
  407970:	8fbc0010 	lw	gp,16(sp)
  407974:	10400004 	beqz	v0,407988 <_fpmaxtostr+0x118>
  407978:	02002021 	move	a0,s0
  40797c:	24020008 	li	v0,8
  407980:	10000050 	b	407ac4 <_fpmaxtostr+0x254>
  407984:	afa2002c 	sw	v0,44(sp)
  407988:	00009021 	move	s2,zero
  40798c:	00009821 	move	s3,zero
  407990:	02202821 	move	a1,s1
  407994:	02403021 	move	a2,s2
  407998:	02603821 	move	a3,s3
  40799c:	8f9902b0 	lw	t9,688(gp)
  4079a0:	00000000 	nop
  4079a4:	0320f809 	jalr	t9
  4079a8:	00000000 	nop
  4079ac:	8fbc0010 	lw	gp,16(sp)
  4079b0:	1440001d 	bnez	v0,407a28 <_fpmaxtostr+0x1b8>
  4079b4:	02003021 	move	a2,s0
  4079b8:	8f84000c 	lw	a0,12(gp)
  4079bc:	00000000 	nop
  4079c0:	2484ea28 	addiu	a0,a0,-5592
  4079c4:	8c840000 	lw	a0,0(a0)
  4079c8:	8f85000c 	lw	a1,12(gp)
  4079cc:	00000000 	nop
  4079d0:	24a5ea28 	addiu	a1,a1,-5592
  4079d4:	8ca50004 	lw	a1,4(a1)
  4079d8:	02203821 	move	a3,s1
  4079dc:	8f990254 	lw	t9,596(gp)
  4079e0:	00000000 	nop
  4079e4:	0320f809 	jalr	t9
  4079e8:	00000000 	nop
  4079ec:	8fbc0010 	lw	gp,16(sp)
  4079f0:	00402021 	move	a0,v0
  4079f4:	00602821 	move	a1,v1
  4079f8:	02403021 	move	a2,s2
  4079fc:	02603821 	move	a3,s3
  407a00:	8f9902b0 	lw	t9,688(gp)
  407a04:	00000000 	nop
  407a08:	0320f809 	jalr	t9
  407a0c:	00000000 	nop
  407a10:	8fbc0010 	lw	gp,16(sp)
  407a14:	04410002 	bgez	v0,407a20 <_fpmaxtostr+0x1b0>
  407a18:	2402002d 	li	v0,45
  407a1c:	a3a200a0 	sb	v0,160(sp)
  407a20:	100000cd 	b	407d58 <_fpmaxtostr+0x4e8>
  407a24:	2416ffff 	li	s6,-1
  407a28:	0441000c 	bgez	v0,407a5c <_fpmaxtostr+0x1ec>
  407a2c:	02203821 	move	a3,s1
  407a30:	2402002d 	li	v0,45
  407a34:	02402021 	move	a0,s2
  407a38:	02602821 	move	a1,s3
  407a3c:	a3a200a0 	sb	v0,160(sp)
  407a40:	8f990300 	lw	t9,768(gp)
  407a44:	00000000 	nop
  407a48:	0320f809 	jalr	t9
  407a4c:	00000000 	nop
  407a50:	8fbc0010 	lw	gp,16(sp)
  407a54:	00408021 	move	s0,v0
  407a58:	00608821 	move	s1,v1
  407a5c:	8f86000c 	lw	a2,12(gp)
  407a60:	00000000 	nop
  407a64:	24c6ea30 	addiu	a2,a2,-5584
  407a68:	8cc60000 	lw	a2,0(a2)
  407a6c:	8f87000c 	lw	a3,12(gp)
  407a70:	00000000 	nop
  407a74:	24e7ea30 	addiu	a3,a3,-5584
  407a78:	8ce70004 	lw	a3,4(a3)
  407a7c:	02002021 	move	a0,s0
  407a80:	02202821 	move	a1,s1
  407a84:	8f9902d8 	lw	t9,728(gp)
  407a88:	00000000 	nop
  407a8c:	0320f809 	jalr	t9
  407a90:	00000000 	nop
  407a94:	8fbc0010 	lw	gp,16(sp)
  407a98:	00403021 	move	a2,v0
  407a9c:	02002021 	move	a0,s0
  407aa0:	02202821 	move	a1,s1
  407aa4:	00603821 	move	a3,v1
  407aa8:	8f9902b0 	lw	t9,688(gp)
  407aac:	00000000 	nop
  407ab0:	0320f809 	jalr	t9
  407ab4:	00000000 	nop
  407ab8:	8fbc0010 	lw	gp,16(sp)
  407abc:	14400016 	bnez	v0,407b18 <_fpmaxtostr+0x2a8>
  407ac0:	02002021 	move	a0,s0
  407ac4:	8fa400f8 	lw	a0,248(sp)
  407ac8:	24020020 	li	v0,32
  407acc:	ac820010 	sw	v0,16(a0)
  407ad0:	24020070 	li	v0,112
  407ad4:	afa20024 	sw	v0,36(sp)
  407ad8:	2bc30061 	slti	v1,s8,97
  407adc:	24020003 	li	v0,3
  407ae0:	afa20028 	sw	v0,40(sp)
  407ae4:	10600005 	beqz	v1,407afc <_fpmaxtostr+0x28c>
  407ae8:	27b10030 	addiu	s1,sp,48
  407aec:	8fa2002c 	lw	v0,44(sp)
  407af0:	00000000 	nop
  407af4:	24420004 	addiu	v0,v0,4
  407af8:	afa2002c 	sw	v0,44(sp)
  407afc:	8fa2002c 	lw	v0,44(sp)
  407b00:	8f81000c 	lw	at,12(gp)
  407b04:	00000000 	nop
  407b08:	2421fb00 	addiu	at,at,-1280
  407b0c:	00221021 	addu	v0,at,v0
  407b10:	100001cf 	b	408250 <_fpmaxtostr+0x9e0>
  407b14:	afa2002c 	sw	v0,44(sp)
  407b18:	8f86000c 	lw	a2,12(gp)
  407b1c:	00000000 	nop
  407b20:	24c6ea38 	addiu	a2,a2,-5576
  407b24:	8cc60000 	lw	a2,0(a2)
  407b28:	8f87000c 	lw	a3,12(gp)
  407b2c:	00000000 	nop
  407b30:	24e7ea38 	addiu	a3,a3,-5576
  407b34:	8ce70004 	lw	a3,4(a3)
  407b38:	02202821 	move	a1,s1
  407b3c:	8f9902b0 	lw	t9,688(gp)
  407b40:	00000000 	nop
  407b44:	0320f809 	jalr	t9
  407b48:	00000000 	nop
  407b4c:	8fbc0010 	lw	gp,16(sp)
  407b50:	24160008 	li	s6,8
  407b54:	24150009 	li	s5,9
  407b58:	24140100 	li	s4,256
  407b5c:	04410003 	bgez	v0,407b6c <_fpmaxtostr+0x2fc>
  407b60:	afa000a8 	sw	zero,168(sp)
  407b64:	24020001 	li	v0,1
  407b68:	afa200a8 	sw	v0,168(sp)
  407b6c:	24170048 	li	s7,72
  407b70:	8fa200a8 	lw	v0,168(sp)
  407b74:	00141843 	sra	v1,s4,0x1
  407b78:	02002021 	move	a0,s0
  407b7c:	02202821 	move	a1,s1
  407b80:	26f7fff8 	addiu	s7,s7,-8
  407b84:	26b5ffff 	addiu	s5,s5,-1
  407b88:	10400027 	beqz	v0,407c28 <_fpmaxtostr+0x3b8>
  407b8c:	afa300b4 	sw	v1,180(sp)
  407b90:	8f86000c 	lw	a2,12(gp)
  407b94:	00000000 	nop
  407b98:	24c6fb18 	addiu	a2,a2,-1256
  407b9c:	00d73021 	addu	a2,a2,s7
  407ba0:	8cc60000 	lw	a2,0(a2)
  407ba4:	8f87000c 	lw	a3,12(gp)
  407ba8:	00000000 	nop
  407bac:	24e7fb18 	addiu	a3,a3,-1256
  407bb0:	00f73821 	addu	a3,a3,s7
  407bb4:	8ce70004 	lw	a3,4(a3)
  407bb8:	8f9902d8 	lw	t9,728(gp)
  407bbc:	00000000 	nop
  407bc0:	0320f809 	jalr	t9
  407bc4:	00000000 	nop
  407bc8:	8fbc0010 	lw	gp,16(sp)
  407bcc:	00409021 	move	s2,v0
  407bd0:	8f86000c 	lw	a2,12(gp)
  407bd4:	00000000 	nop
  407bd8:	24c6ea40 	addiu	a2,a2,-5568
  407bdc:	8cc60000 	lw	a2,0(a2)
  407be0:	8f87000c 	lw	a3,12(gp)
  407be4:	00000000 	nop
  407be8:	24e7ea40 	addiu	a3,a3,-5568
  407bec:	8ce70004 	lw	a3,4(a3)
  407bf0:	02402021 	move	a0,s2
  407bf4:	00602821 	move	a1,v1
  407bf8:	00609821 	move	s3,v1
  407bfc:	8f9902b0 	lw	t9,688(gp)
  407c00:	00000000 	nop
  407c04:	0320f809 	jalr	t9
  407c08:	00000000 	nop
  407c0c:	8fbc0010 	lw	gp,16(sp)
  407c10:	0441002c 	bgez	v0,407cc4 <_fpmaxtostr+0x454>
  407c14:	00000000 	nop
  407c18:	02408021 	move	s0,s2
  407c1c:	02608821 	move	s1,s3
  407c20:	10000028 	b	407cc4 <_fpmaxtostr+0x454>
  407c24:	02d4b023 	subu	s6,s6,s4
  407c28:	8f86000c 	lw	a2,12(gp)
  407c2c:	00000000 	nop
  407c30:	24c6fb18 	addiu	a2,a2,-1256
  407c34:	00d73021 	addu	a2,a2,s7
  407c38:	8cc60000 	lw	a2,0(a2)
  407c3c:	8f87000c 	lw	a3,12(gp)
  407c40:	00000000 	nop
  407c44:	24e7fb18 	addiu	a3,a3,-1256
  407c48:	00f73821 	addu	a3,a3,s7
  407c4c:	8ce70004 	lw	a3,4(a3)
  407c50:	02002021 	move	a0,s0
  407c54:	02202821 	move	a1,s1
  407c58:	8f990254 	lw	t9,596(gp)
  407c5c:	00000000 	nop
  407c60:	0320f809 	jalr	t9
  407c64:	00000000 	nop
  407c68:	8fbc0010 	lw	gp,16(sp)
  407c6c:	00409021 	move	s2,v0
  407c70:	8f84000c 	lw	a0,12(gp)
  407c74:	00000000 	nop
  407c78:	2484ea38 	addiu	a0,a0,-5576
  407c7c:	8c840000 	lw	a0,0(a0)
  407c80:	8f85000c 	lw	a1,12(gp)
  407c84:	00000000 	nop
  407c88:	24a5ea38 	addiu	a1,a1,-5576
  407c8c:	8ca50004 	lw	a1,4(a1)
  407c90:	02403021 	move	a2,s2
  407c94:	00603821 	move	a3,v1
  407c98:	00609821 	move	s3,v1
  407c9c:	8f9902b0 	lw	t9,688(gp)
  407ca0:	00000000 	nop
  407ca4:	0320f809 	jalr	t9
  407ca8:	00000000 	nop
  407cac:	8fbc0010 	lw	gp,16(sp)
  407cb0:	1c400004 	bgtz	v0,407cc4 <_fpmaxtostr+0x454>
  407cb4:	00000000 	nop
  407cb8:	02408021 	move	s0,s2
  407cbc:	02608821 	move	s1,s3
  407cc0:	02d4b021 	addu	s6,s6,s4
  407cc4:	8fb400b4 	lw	s4,180(sp)
  407cc8:	16a0ffa9 	bnez	s5,407b70 <_fpmaxtostr+0x300>
  407ccc:	02003021 	move	a2,s0
  407cd0:	8f84000c 	lw	a0,12(gp)
  407cd4:	00000000 	nop
  407cd8:	2484ea40 	addiu	a0,a0,-5568
  407cdc:	8c840000 	lw	a0,0(a0)
  407ce0:	8f85000c 	lw	a1,12(gp)
  407ce4:	00000000 	nop
  407ce8:	24a5ea40 	addiu	a1,a1,-5568
  407cec:	8ca50004 	lw	a1,4(a1)
  407cf0:	02203821 	move	a3,s1
  407cf4:	8f9902b0 	lw	t9,688(gp)
  407cf8:	00000000 	nop
  407cfc:	0320f809 	jalr	t9
  407d00:	00000000 	nop
  407d04:	8fbc0010 	lw	gp,16(sp)
  407d08:	1c400014 	bgtz	v0,407d5c <_fpmaxtostr+0x4ec>
  407d0c:	27b3008a 	addiu	s3,sp,138
  407d10:	8f86000c 	lw	a2,12(gp)
  407d14:	00000000 	nop
  407d18:	24c6ea48 	addiu	a2,a2,-5560
  407d1c:	8cc60000 	lw	a2,0(a2)
  407d20:	8f87000c 	lw	a3,12(gp)
  407d24:	00000000 	nop
  407d28:	24e7ea48 	addiu	a3,a3,-5560
  407d2c:	8ce70004 	lw	a3,4(a3)
  407d30:	02002021 	move	a0,s0
  407d34:	02202821 	move	a1,s1
  407d38:	8f990254 	lw	t9,596(gp)
  407d3c:	00000000 	nop
  407d40:	0320f809 	jalr	t9
  407d44:	00000000 	nop
  407d48:	8fbc0010 	lw	gp,16(sp)
  407d4c:	00408021 	move	s0,v0
  407d50:	00608821 	move	s1,v1
  407d54:	26d60001 	addiu	s6,s6,1
  407d58:	27b3008a 	addiu	s3,sp,138
  407d5c:	0000a821 	move	s5,zero
  407d60:	02002021 	move	a0,s0
  407d64:	02202821 	move	a1,s1
  407d68:	8f990274 	lw	t9,628(gp)
  407d6c:	00000000 	nop
  407d70:	0320f809 	jalr	t9
  407d74:	00000000 	nop
  407d78:	8fbc0010 	lw	gp,16(sp)
  407d7c:	00409021 	move	s2,v0
  407d80:	00402021 	move	a0,v0
  407d84:	8f99024c 	lw	t9,588(gp)
  407d88:	00000000 	nop
  407d8c:	0320f809 	jalr	t9
  407d90:	00000000 	nop
  407d94:	8fbc0010 	lw	gp,16(sp)
  407d98:	06410011 	bgez	s2,407de0 <_fpmaxtostr+0x570>
  407d9c:	02002021 	move	a0,s0
  407da0:	8f86000c 	lw	a2,12(gp)
  407da4:	00000000 	nop
  407da8:	24c6ea50 	addiu	a2,a2,-5552
  407dac:	8cc60000 	lw	a2,0(a2)
  407db0:	8f87000c 	lw	a3,12(gp)
  407db4:	00000000 	nop
  407db8:	24e7ea50 	addiu	a3,a3,-5552
  407dbc:	8ce70004 	lw	a3,4(a3)
  407dc0:	00402021 	move	a0,v0
  407dc4:	00602821 	move	a1,v1
  407dc8:	8f99019c 	lw	t9,412(gp)
  407dcc:	00000000 	nop
  407dd0:	0320f809 	jalr	t9
  407dd4:	00000000 	nop
  407dd8:	8fbc0010 	lw	gp,16(sp)
  407ddc:	02002021 	move	a0,s0
  407de0:	02202821 	move	a1,s1
  407de4:	00403021 	move	a2,v0
  407de8:	00603821 	move	a3,v1
  407dec:	8f990300 	lw	t9,768(gp)
  407df0:	00000000 	nop
  407df4:	0320f809 	jalr	t9
  407df8:	00000000 	nop
  407dfc:	8fbc0010 	lw	gp,16(sp)
  407e00:	00000000 	nop
  407e04:	8f86000c 	lw	a2,12(gp)
  407e08:	00000000 	nop
  407e0c:	24c6ea40 	addiu	a2,a2,-5568
  407e10:	8cc60000 	lw	a2,0(a2)
  407e14:	8f87000c 	lw	a3,12(gp)
  407e18:	00000000 	nop
  407e1c:	24e7ea40 	addiu	a3,a3,-5568
  407e20:	8ce70004 	lw	a3,4(a3)
  407e24:	00402021 	move	a0,v0
  407e28:	00602821 	move	a1,v1
  407e2c:	8f9902d8 	lw	t9,728(gp)
  407e30:	00000000 	nop
  407e34:	0320f809 	jalr	t9
  407e38:	00000000 	nop
  407e3c:	8fbc0010 	lw	gp,16(sp)
  407e40:	00408021 	move	s0,v0
  407e44:	00608821 	move	s1,v1
  407e48:	26730009 	addiu	s3,s3,9
  407e4c:	0000a021 	move	s4,zero
  407e50:	3c03cccc 	lui	v1,0xcccc
  407e54:	3463cccd 	ori	v1,v1,0xcccd
  407e58:	02430019 	multu	s2,v1
  407e5c:	26940001 	addiu	s4,s4,1
  407e60:	02742023 	subu	a0,s3,s4
  407e64:	2a850009 	slti	a1,s4,9
  407e68:	00001810 	mfhi	v1
  407e6c:	000318c2 	srl	v1,v1,0x3
  407e70:	00031080 	sll	v0,v1,0x2
  407e74:	00431021 	addu	v0,v0,v1
  407e78:	00021040 	sll	v0,v0,0x1
  407e7c:	02421023 	subu	v0,s2,v0
  407e80:	24420030 	addiu	v0,v0,48
  407e84:	a0820000 	sb	v0,0(a0)
  407e88:	14a0fff1 	bnez	a1,407e50 <_fpmaxtostr+0x5e0>
  407e8c:	00609021 	move	s2,v1
  407e90:	26b50001 	addiu	s5,s5,1
  407e94:	2aa20002 	slti	v0,s5,2
  407e98:	1440ffb1 	bnez	v0,407d60 <_fpmaxtostr+0x4f0>
  407e9c:	2bc20061 	slti	v0,s8,97
  407ea0:	10400008 	beqz	v0,407ec4 <_fpmaxtostr+0x654>
  407ea4:	24020067 	li	v0,103
  407ea8:	93a20078 	lbu	v0,120(sp)
  407eac:	27c30020 	addiu	v1,s8,32
  407eb0:	2442ffe0 	addiu	v0,v0,-32
  407eb4:	00031e00 	sll	v1,v1,0x18
  407eb8:	a3a20078 	sb	v0,120(sp)
  407ebc:	0003f603 	sra	s8,v1,0x18
  407ec0:	24020067 	li	v0,103
  407ec4:	17c20006 	bne	s8,v0,407ee0 <_fpmaxtostr+0x670>
  407ec8:	03c08021 	move	s0,s8
  407ecc:	8fa200b0 	lw	v0,176(sp)
  407ed0:	00000000 	nop
  407ed4:	18400002 	blez	v0,407ee0 <_fpmaxtostr+0x670>
  407ed8:	2442ffff 	addiu	v0,v0,-1
  407edc:	afa200b0 	sw	v0,176(sp)
  407ee0:	24020066 	li	v0,102
  407ee4:	8fa500b0 	lw	a1,176(sp)
  407ee8:	17c20010 	bne	s8,v0,407f2c <_fpmaxtostr+0x6bc>
  407eec:	24020030 	li	v0,48
  407ef0:	00b62821 	addu	a1,a1,s6
  407ef4:	28a2ffff 	slti	v0,a1,-1
  407ef8:	1040000c 	beqz	v0,407f2c <_fpmaxtostr+0x6bc>
  407efc:	24020030 	li	v0,48
  407f00:	24050030 	li	a1,48
  407f04:	27a40088 	addiu	a0,sp,136
  407f08:	24060011 	li	a2,17
  407f0c:	8f990164 	lw	t9,356(gp)
  407f10:	00000000 	nop
  407f14:	0320f809 	jalr	t9
  407f18:	00000000 	nop
  407f1c:	8fbc0010 	lw	gp,16(sp)
  407f20:	2416ffff 	li	s6,-1
  407f24:	2405ffff 	li	a1,-1
  407f28:	24020030 	li	v0,48
  407f2c:	28a30011 	slti	v1,a1,17
  407f30:	a3a20089 	sb	v0,137(sp)
  407f34:	a3a00088 	sb	zero,136(sp)
  407f38:	27b30089 	addiu	s3,sp,137
  407f3c:	0000a821 	move	s5,zero
  407f40:	10600008 	beqz	v1,407f64 <_fpmaxtostr+0x6f4>
  407f44:	27a6009b 	addiu	a2,sp,155
  407f48:	02651821 	addu	v1,s3,a1
  407f4c:	80620002 	lb	v0,2(v1)
  407f50:	00000000 	nop
  407f54:	28420035 	slti	v0,v0,53
  407f58:	14400002 	bnez	v0,407f64 <_fpmaxtostr+0x6f4>
  407f5c:	24660002 	addiu	a2,v1,2
  407f60:	24150001 	li	s5,1
  407f64:	24c6ffff 	addiu	a2,a2,-1
  407f68:	90c20000 	lbu	v0,0(a2)
  407f6c:	00000000 	nop
  407f70:	00551021 	addu	v0,v0,s5
  407f74:	00021e00 	sll	v1,v0,0x18
  407f78:	00031e03 	sra	v1,v1,0x18
  407f7c:	a0c20000 	sb	v0,0(a2)
  407f80:	24020030 	li	v0,48
  407f84:	1062fff7 	beq	v1,v0,407f64 <_fpmaxtostr+0x6f4>
  407f88:	2864003a 	slti	a0,v1,58
  407f8c:	1080fff6 	beqz	a0,407f68 <_fpmaxtostr+0x6f8>
  407f90:	24c6ffff 	addiu	a2,a2,-1
  407f94:	24c60001 	addiu	a2,a2,1
  407f98:	0266102b 	sltu	v0,s3,a2
  407f9c:	14400004 	bnez	v0,407fb0 <_fpmaxtostr+0x740>
  407fa0:	02c02021 	move	a0,s6
  407fa4:	26c40001 	addiu	a0,s6,1
  407fa8:	10000002 	b	407fb4 <_fpmaxtostr+0x744>
  407fac:	02603021 	move	a2,s3
  407fb0:	26730001 	addiu	s3,s3,1
  407fb4:	24c60001 	addiu	a2,a2,1
  407fb8:	24020067 	li	v0,103
  407fbc:	17c2000a 	bne	s8,v0,407fe8 <_fpmaxtostr+0x778>
  407fc0:	a0c00000 	sb	zero,0(a2)
  407fc4:	2882fffc 	slti	v0,a0,-4
  407fc8:	14400008 	bnez	v0,407fec <_fpmaxtostr+0x77c>
  407fcc:	24020066 	li	v0,102
  407fd0:	00a4102a 	slt	v0,a1,a0
  407fd4:	14400005 	bnez	v0,407fec <_fpmaxtostr+0x77c>
  407fd8:	24020066 	li	v0,102
  407fdc:	00a42823 	subu	a1,a1,a0
  407fe0:	afa500b0 	sw	a1,176(sp)
  407fe4:	241e0066 	li	s8,102
  407fe8:	24020066 	li	v0,102
  407fec:	13c20002 	beq	s8,v0,407ff8 <_fpmaxtostr+0x788>
  407ff0:	0080b021 	move	s6,a0
  407ff4:	00002021 	move	a0,zero
  407ff8:	04810005 	bgez	a0,408010 <_fpmaxtostr+0x7a0>
  407ffc:	24020001 	li	v0,1
  408000:	2673ffff 	addiu	s3,s3,-1
  408004:	24020030 	li	v0,48
  408008:	a2620000 	sb	v0,0(s3)
  40800c:	24020001 	li	v0,1
  408010:	afa20028 	sw	v0,40(sp)
  408014:	240500b0 	li	a1,176
  408018:	27a200a4 	addiu	v0,sp,164
  40801c:	afa2002c 	sw	v0,44(sp)
  408020:	afa50024 	sw	a1,36(sp)
  408024:	92620000 	lbu	v0,0(s3)
  408028:	26730001 	addiu	s3,s3,1
  40802c:	a3a200a4 	sb	v0,164(sp)
  408030:	a3a000a5 	sb	zero,165(sp)
  408034:	00d3a823 	subu	s5,a2,s3
  408038:	0480001a 	bltz	a0,4080a4 <_fpmaxtostr+0x834>
  40803c:	27b10030 	addiu	s1,sp,48
  408040:	24020070 	li	v0,112
  408044:	0095182a 	slt	v1,a0,s5
  408048:	afa20030 	sw	v0,48(sp)
  40804c:	1460000e 	bnez	v1,408088 <_fpmaxtostr+0x818>
  408050:	afb30038 	sw	s3,56(sp)
  408054:	00952023 	subu	a0,a0,s5
  408058:	afb50034 	sw	s5,52(sp)
  40805c:	27b1003c 	addiu	s1,sp,60
  408060:	1880000f 	blez	a0,4080a0 <_fpmaxtostr+0x830>
  408064:	0000a821 	move	s5,zero
  408068:	8f82000c 	lw	v0,12(gp)
  40806c:	00000000 	nop
  408070:	2442fb03 	addiu	v0,v0,-1277
  408074:	27b10048 	addiu	s1,sp,72
  408078:	afa5003c 	sw	a1,60(sp)
  40807c:	afa40040 	sw	a0,64(sp)
  408080:	10000007 	b	4080a0 <_fpmaxtostr+0x830>
  408084:	afa20044 	sw	v0,68(sp)
  408088:	18800005 	blez	a0,4080a0 <_fpmaxtostr+0x830>
  40808c:	00000000 	nop
  408090:	afa40034 	sw	a0,52(sp)
  408094:	02a4a823 	subu	s5,s5,a0
  408098:	27b1003c 	addiu	s1,sp,60
  40809c:	02649821 	addu	s3,s3,a0
  4080a0:	2404ffff 	li	a0,-1
  4080a4:	8fa300f8 	lw	v1,248(sp)
  4080a8:	00000000 	nop
  4080ac:	8c62000c 	lw	v0,12(v1)
  4080b0:	00000000 	nop
  4080b4:	30420010 	andi	v0,v0,0x10
  4080b8:	1440000a 	bnez	v0,4080e4 <_fpmaxtostr+0x874>
  4080bc:	24020070 	li	v0,112
  4080c0:	16a00008 	bnez	s5,4080e4 <_fpmaxtostr+0x874>
  4080c4:	00000000 	nop
  4080c8:	24020067 	li	v0,103
  4080cc:	1202000d 	beq	s0,v0,408104 <_fpmaxtostr+0x894>
  4080d0:	00000000 	nop
  4080d4:	8fa200b0 	lw	v0,176(sp)
  4080d8:	00000000 	nop
  4080dc:	18400009 	blez	v0,408104 <_fpmaxtostr+0x894>
  4080e0:	24020070 	li	v0,112
  4080e4:	ae220000 	sw	v0,0(s1)
  4080e8:	24020001 	li	v0,1
  4080ec:	ae220004 	sw	v0,4(s1)
  4080f0:	8f82000c 	lw	v0,12(gp)
  4080f4:	00000000 	nop
  4080f8:	2442fb10 	addiu	v0,v0,-1264
  4080fc:	ae220008 	sw	v0,8(s1)
  408100:	2631000c 	addiu	s1,s1,12
  408104:	24840001 	addiu	a0,a0,1
  408108:	04810009 	bgez	a0,408130 <_fpmaxtostr+0x8c0>
  40810c:	00041023 	negu	v0,a0
  408110:	ae220004 	sw	v0,4(s1)
  408114:	240300b0 	li	v1,176
  408118:	8f82000c 	lw	v0,12(gp)
  40811c:	00000000 	nop
  408120:	2442fb03 	addiu	v0,v0,-1277
  408124:	ae230000 	sw	v1,0(s1)
  408128:	ae220008 	sw	v0,8(s1)
  40812c:	2631000c 	addiu	s1,s1,12
  408130:	12a00007 	beqz	s5,408150 <_fpmaxtostr+0x8e0>
  408134:	24020067 	li	v0,103
  408138:	24020070 	li	v0,112
  40813c:	ae220000 	sw	v0,0(s1)
  408140:	ae330008 	sw	s3,8(s1)
  408144:	ae350004 	sw	s5,4(s1)
  408148:	2631000c 	addiu	s1,s1,12
  40814c:	24020067 	li	v0,103
  408150:	16020008 	bne	s0,v0,408174 <_fpmaxtostr+0x904>
  408154:	00000000 	nop
  408158:	8fa300f8 	lw	v1,248(sp)
  40815c:	00000000 	nop
  408160:	8c62000c 	lw	v0,12(v1)
  408164:	00000000 	nop
  408168:	30420010 	andi	v0,v0,0x10
  40816c:	10400011 	beqz	v0,4081b4 <_fpmaxtostr+0x944>
  408170:	24020066 	li	v0,102
  408174:	02a4a823 	subu	s5,s5,a0
  408178:	8fa400b0 	lw	a0,176(sp)
  40817c:	00000000 	nop
  408180:	02a4102a 	slt	v0,s5,a0
  408184:	1040000b 	beqz	v0,4081b4 <_fpmaxtostr+0x944>
  408188:	24020066 	li	v0,102
  40818c:	240200b0 	li	v0,176
  408190:	ae220000 	sw	v0,0(s1)
  408194:	0095a823 	subu	s5,a0,s5
  408198:	8f82000c 	lw	v0,12(gp)
  40819c:	00000000 	nop
  4081a0:	2442fb03 	addiu	v0,v0,-1277
  4081a4:	ae350004 	sw	s5,4(s1)
  4081a8:	ae220008 	sw	v0,8(s1)
  4081ac:	2631000c 	addiu	s1,s1,12
  4081b0:	24020066 	li	v0,102
  4081b4:	13c20027 	beq	s8,v0,408254 <_fpmaxtostr+0x9e4>
  4081b8:	02208021 	move	s0,s1
  4081bc:	83a60078 	lb	a2,120(sp)
  4081c0:	06c10003 	bgez	s6,4081d0 <_fpmaxtostr+0x960>
  4081c4:	2407002b 	li	a3,43
  4081c8:	2407002d 	li	a3,45
  4081cc:	0016b023 	negu	s6,s6
  4081d0:	a3a00087 	sb	zero,135(sp)
  4081d4:	27a50087 	addiu	a1,sp,135
  4081d8:	24140002 	li	s4,2
  4081dc:	3c026666 	lui	v0,0x6666
  4081e0:	34426667 	ori	v0,v0,0x6667
  4081e4:	02c20018 	mult	s6,v0
  4081e8:	00161fc3 	sra	v1,s6,0x1f
  4081ec:	26940001 	addiu	s4,s4,1
  4081f0:	24a5ffff 	addiu	a1,a1,-1
  4081f4:	2a840004 	slti	a0,s4,4
  4081f8:	00001010 	mfhi	v0
  4081fc:	00021083 	sra	v0,v0,0x2
  408200:	00431823 	subu	v1,v0,v1
  408204:	00031080 	sll	v0,v1,0x2
  408208:	00431021 	addu	v0,v0,v1
  40820c:	00021040 	sll	v0,v0,0x1
  408210:	02c21023 	subu	v0,s6,v0
  408214:	24420030 	addiu	v0,v0,48
  408218:	a0a20000 	sb	v0,0(a1)
  40821c:	1480ffef 	bnez	a0,4081dc <_fpmaxtostr+0x96c>
  408220:	0060b021 	move	s6,v1
  408224:	1460ffee 	bnez	v1,4081e0 <_fpmaxtostr+0x970>
  408228:	3c026666 	lui	v0,0x6666
  40822c:	24a5ffff 	addiu	a1,a1,-1
  408230:	a0a70000 	sb	a3,0(a1)
  408234:	24020070 	li	v0,112
  408238:	24a5ffff 	addiu	a1,a1,-1
  40823c:	a0a60000 	sb	a2,0(a1)
  408240:	ae220000 	sw	v0,0(s1)
  408244:	ae340004 	sw	s4,4(s1)
  408248:	ae250008 	sw	a1,8(s1)
  40824c:	2631000c 	addiu	s1,s1,12
  408250:	02208021 	move	s0,s1
  408254:	27b10028 	addiu	s1,sp,40
  408258:	8e230000 	lw	v1,0(s1)
  40825c:	8fa400ac 	lw	a0,172(sp)
  408260:	2631000c 	addiu	s1,s1,12
  408264:	00832023 	subu	a0,a0,v1
  408268:	0230102b 	sltu	v0,s1,s0
  40826c:	1440fffa 	bnez	v0,408258 <_fpmaxtostr+0x9e8>
  408270:	afa400ac 	sw	a0,172(sp)
  408274:	83a200a0 	lb	v0,160(sp)
  408278:	240300a0 	li	v1,160
  40827c:	0002a82b 	sltu	s5,zero,v0
  408280:	00952023 	subu	a0,a0,s5
  408284:	27a200a0 	addiu	v0,sp,160
  408288:	afa400ac 	sw	a0,172(sp)
  40828c:	afa20020 	sw	v0,32(sp)
  408290:	afa30018 	sw	v1,24(sp)
  408294:	afb5001c 	sw	s5,28(sp)
  408298:	18800020 	blez	a0,40831c <_fpmaxtostr+0xaac>
  40829c:	27b10018 	addiu	s1,sp,24
  4082a0:	8fa400f8 	lw	a0,248(sp)
  4082a4:	00000000 	nop
  4082a8:	8c82000c 	lw	v0,12(a0)
  4082ac:	00000000 	nop
  4082b0:	30420008 	andi	v0,v0,0x8
  4082b4:	1040000b 	beqz	v0,4082e4 <_fpmaxtostr+0xa74>
  4082b8:	24020030 	li	v0,48
  4082bc:	ae030000 	sw	v1,0(s0)
  4082c0:	8fa200ac 	lw	v0,172(sp)
  4082c4:	00000000 	nop
  4082c8:	ae020004 	sw	v0,4(s0)
  4082cc:	8f82000c 	lw	v0,12(gp)
  4082d0:	00000000 	nop
  4082d4:	2442fb03 	addiu	v0,v0,-1277
  4082d8:	ae020008 	sw	v0,8(s0)
  4082dc:	1000000f 	b	40831c <_fpmaxtostr+0xaac>
  4082e0:	2610000c 	addiu	s0,s0,12
  4082e4:	8c830010 	lw	v1,16(a0)
  4082e8:	00000000 	nop
  4082ec:	14620007 	bne	v1,v0,40830c <_fpmaxtostr+0xa9c>
  4082f0:	00000000 	nop
  4082f4:	8fa20028 	lw	v0,40(sp)
  4082f8:	8fa300ac 	lw	v1,172(sp)
  4082fc:	00000000 	nop
  408300:	00431021 	addu	v0,v0,v1
  408304:	10000005 	b	40831c <_fpmaxtostr+0xaac>
  408308:	afa20028 	sw	v0,40(sp)
  40830c:	8fa400ac 	lw	a0,172(sp)
  408310:	00000000 	nop
  408314:	02a41021 	addu	v0,s5,a0
  408318:	afa2001c 	sw	v0,28(sp)
  40831c:	00009021 	move	s2,zero
  408320:	8e250000 	lw	a1,0(s1)
  408324:	8e260004 	lw	a2,4(s1)
  408328:	8e270008 	lw	a3,8(s1)
  40832c:	8fa200fc 	lw	v0,252(sp)
  408330:	8fa400e8 	lw	a0,232(sp)
  408334:	0040c821 	move	t9,v0
  408338:	0320f809 	jalr	t9
  40833c:	00000000 	nop
  408340:	8fbc0010 	lw	gp,16(sp)
  408344:	8e230004 	lw	v1,4(s1)
  408348:	2631000c 	addiu	s1,s1,12
  40834c:	0230102b 	sltu	v0,s1,s0
  408350:	1440fff3 	bnez	v0,408320 <_fpmaxtostr+0xab0>
  408354:	02439021 	addu	s2,s2,v1
  408358:	02401021 	move	v0,s2
  40835c:	8fbf00e0 	lw	ra,224(sp)
  408360:	8fbe00dc 	lw	s8,220(sp)
  408364:	8fb700d4 	lw	s7,212(sp)
  408368:	8fb600d0 	lw	s6,208(sp)
  40836c:	8fb500cc 	lw	s5,204(sp)
  408370:	8fb400c8 	lw	s4,200(sp)
  408374:	8fb300c4 	lw	s3,196(sp)
  408378:	8fb200c0 	lw	s2,192(sp)
  40837c:	8fb100bc 	lw	s1,188(sp)
  408380:	8fb000b8 	lw	s0,184(sp)
  408384:	03e00008 	jr	ra
  408388:	27bd00e8 	addiu	sp,sp,232
  40838c:	00000000 	nop

00408390 <memcmp>:
  408390:	3c1c0000 	lui	gp,0x0
  408394:	279c66d0 	addiu	gp,gp,26320
  408398:	0399e021 	addu	gp,gp,t9
  40839c:	00001821 	move	v1,zero
  4083a0:	24c6ffff 	addiu	a2,a2,-1
  4083a4:	2402ffff 	li	v0,-1
  4083a8:	10c20007 	beq	a2,v0,4083c8 <memcmp+0x38>
  4083ac:	00000000 	nop
  4083b0:	90830000 	lbu	v1,0(a0)
  4083b4:	90a20000 	lbu	v0,0(a1)
  4083b8:	24840001 	addiu	a0,a0,1
  4083bc:	00621823 	subu	v1,v1,v0
  4083c0:	1060fff7 	beqz	v1,4083a0 <memcmp+0x10>
  4083c4:	24a50001 	addiu	a1,a1,1
  4083c8:	03e00008 	jr	ra
  4083cc:	00601021 	move	v0,v1

004083d0 <memcpy>:
  4083d0:	3c1c0000 	lui	gp,0x0
  4083d4:	279c6690 	addiu	gp,gp,26256
  4083d8:	0399e021 	addu	gp,gp,t9
  4083dc:	10c00007 	beqz	a2,4083fc <memcpy+0x2c>
  4083e0:	00801821 	move	v1,a0
  4083e4:	90a20000 	lbu	v0,0(a1)
  4083e8:	24c6ffff 	addiu	a2,a2,-1
  4083ec:	a0620000 	sb	v0,0(v1)
  4083f0:	24a50001 	addiu	a1,a1,1
  4083f4:	14c0fffb 	bnez	a2,4083e4 <memcpy+0x14>
  4083f8:	24630001 	addiu	v1,v1,1
  4083fc:	03e00008 	jr	ra
  408400:	00801021 	move	v0,a0
	...

00408410 <memmove>:
  408410:	3c1c0000 	lui	gp,0x0
  408414:	279c6650 	addiu	gp,gp,26192
  408418:	0399e021 	addu	gp,gp,t9
  40841c:	00a4102b 	sltu	v0,a1,a0
  408420:	00803821 	move	a3,a0
  408424:	1440000b 	bnez	v0,408454 <memmove+0x44>
  408428:	00a01821 	move	v1,a1
  40842c:	10c00012 	beqz	a2,408478 <memmove+0x68>
  408430:	00801021 	move	v0,a0
  408434:	90620000 	lbu	v0,0(v1)
  408438:	24c6ffff 	addiu	a2,a2,-1
  40843c:	a0e20000 	sb	v0,0(a3)
  408440:	24630001 	addiu	v1,v1,1
  408444:	14c0fffb 	bnez	a2,408434 <memmove+0x24>
  408448:	24e70001 	addiu	a3,a3,1
  40844c:	03e00008 	jr	ra
  408450:	00801021 	move	v0,a0
  408454:	10c00008 	beqz	a2,408478 <memmove+0x68>
  408458:	00801021 	move	v0,a0
  40845c:	24c6ffff 	addiu	a2,a2,-1
  408460:	00a61021 	addu	v0,a1,a2
  408464:	90430000 	lbu	v1,0(v0)
  408468:	00861021 	addu	v0,a0,a2
  40846c:	14c0fffb 	bnez	a2,40845c <memmove+0x4c>
  408470:	a0430000 	sb	v1,0(v0)
  408474:	00801021 	move	v0,a0
  408478:	03e00008 	jr	ra
  40847c:	00000000 	nop

00408480 <memset>:
  408480:	3c1c0000 	lui	gp,0x0
  408484:	279c65e0 	addiu	gp,gp,26080
  408488:	0399e021 	addu	gp,gp,t9
  40848c:	00801021 	move	v0,a0
  408490:	10c00005 	beqz	a2,4084a8 <memset+0x28>
  408494:	00801821 	move	v1,a0
  408498:	24c6ffff 	addiu	a2,a2,-1
  40849c:	a0650000 	sb	a1,0(v1)
  4084a0:	14c0fffd 	bnez	a2,408498 <memset+0x18>
  4084a4:	24630001 	addiu	v1,v1,1
  4084a8:	03e00008 	jr	ra
  4084ac:	00000000 	nop

004084b0 <strcasecmp>:
  4084b0:	3c1c0000 	lui	gp,0x0
  4084b4:	279c65b0 	addiu	gp,gp,26032
  4084b8:	0399e021 	addu	gp,gp,t9
  4084bc:	27bdffe0 	addiu	sp,sp,-32
  4084c0:	afbc0010 	sw	gp,16(sp)
  4084c4:	8f870044 	lw	a3,68(gp)
  4084c8:	00000000 	nop
  4084cc:	8ce70000 	lw	a3,0(a3)
  4084d0:	00803021 	move	a2,a0
  4084d4:	afbc0018 	sw	gp,24(sp)
  4084d8:	00002021 	move	a0,zero
  4084dc:	10c5000d 	beq	a2,a1,408514 <strcasecmp+0x64>
  4084e0:	00000000 	nop
  4084e4:	90c20000 	lbu	v0,0(a2)
  4084e8:	90a30000 	lbu	v1,0(a1)
  4084ec:	00021040 	sll	v0,v0,0x1
  4084f0:	00031840 	sll	v1,v1,0x1
  4084f4:	00471021 	addu	v0,v0,a3
  4084f8:	00671821 	addu	v1,v1,a3
  4084fc:	84440000 	lh	a0,0(v0)
  408500:	84620000 	lh	v0,0(v1)
  408504:	00000000 	nop
  408508:	00822023 	subu	a0,a0,v0
  40850c:	14800007 	bnez	a0,40852c <strcasecmp+0x7c>
  408510:	00801021 	move	v0,a0
  408514:	90c20000 	lbu	v0,0(a2)
  408518:	24a50001 	addiu	a1,a1,1
  40851c:	00021600 	sll	v0,v0,0x18
  408520:	1440ffee 	bnez	v0,4084dc <strcasecmp+0x2c>
  408524:	24c60001 	addiu	a2,a2,1
  408528:	00801021 	move	v0,a0
  40852c:	03e00008 	jr	ra
  408530:	27bd0020 	addiu	sp,sp,32
	...

00408540 <strchr>:
  408540:	3c1c0000 	lui	gp,0x0
  408544:	279c6520 	addiu	gp,gp,25888
  408548:	0399e021 	addu	gp,gp,t9
  40854c:	80860000 	lb	a2,0(a0)
  408550:	00051600 	sll	v0,a1,0x18
  408554:	00021603 	sra	v0,v0,0x18
  408558:	00801821 	move	v1,a0
  40855c:	10c20003 	beq	a2,v0,40856c <strchr+0x2c>
  408560:	24840001 	addiu	a0,a0,1
  408564:	14c0fff9 	bnez	a2,40854c <strchr+0xc>
  408568:	00001821 	move	v1,zero
  40856c:	03e00008 	jr	ra
  408570:	00601021 	move	v0,v1
	...

00408580 <strcpy>:
  408580:	3c1c0000 	lui	gp,0x0
  408584:	279c64e0 	addiu	gp,gp,25824
  408588:	0399e021 	addu	gp,gp,t9
  40858c:	00803021 	move	a2,a0
  408590:	90a20000 	lbu	v0,0(a1)
  408594:	24a50001 	addiu	a1,a1,1
  408598:	00021e00 	sll	v1,v0,0x18
  40859c:	a0c20000 	sb	v0,0(a2)
  4085a0:	1460fffb 	bnez	v1,408590 <strcpy+0x10>
  4085a4:	24c60001 	addiu	a2,a2,1
  4085a8:	03e00008 	jr	ra
  4085ac:	00801021 	move	v0,a0

004085b0 <strlen>:
  4085b0:	3c1c0000 	lui	gp,0x0
  4085b4:	279c64b0 	addiu	gp,gp,25776
  4085b8:	0399e021 	addu	gp,gp,t9
  4085bc:	80820000 	lb	v0,0(a0)
  4085c0:	00000000 	nop
  4085c4:	10400006 	beqz	v0,4085e0 <strlen+0x30>
  4085c8:	00801821 	move	v1,a0
  4085cc:	24630001 	addiu	v1,v1,1
  4085d0:	80620000 	lb	v0,0(v1)
  4085d4:	00000000 	nop
  4085d8:	1440fffc 	bnez	v0,4085cc <strlen+0x1c>
  4085dc:	00000000 	nop
  4085e0:	03e00008 	jr	ra
  4085e4:	00641023 	subu	v0,v1,a0
	...

004085f0 <strncasecmp>:
  4085f0:	3c1c0000 	lui	gp,0x0
  4085f4:	279c6470 	addiu	gp,gp,25712
  4085f8:	0399e021 	addu	gp,gp,t9
  4085fc:	27bdffe0 	addiu	sp,sp,-32
  408600:	afbc0010 	sw	gp,16(sp)
  408604:	8f880044 	lw	t0,68(gp)
  408608:	00000000 	nop
  40860c:	8d080000 	lw	t0,0(t0)
  408610:	00803821 	move	a3,a0
  408614:	afbc0018 	sw	gp,24(sp)
  408618:	00002021 	move	a0,zero
  40861c:	10c00015 	beqz	a2,408674 <strncasecmp+0x84>
  408620:	00801021 	move	v0,a0
  408624:	10e5000d 	beq	a3,a1,40865c <strncasecmp+0x6c>
  408628:	24c6ffff 	addiu	a2,a2,-1
  40862c:	90e20000 	lbu	v0,0(a3)
  408630:	90a30000 	lbu	v1,0(a1)
  408634:	00021040 	sll	v0,v0,0x1
  408638:	00031840 	sll	v1,v1,0x1
  40863c:	00481021 	addu	v0,v0,t0
  408640:	00681821 	addu	v1,v1,t0
  408644:	84440000 	lh	a0,0(v0)
  408648:	84620000 	lh	v0,0(v1)
  40864c:	00000000 	nop
  408650:	00822023 	subu	a0,a0,v0
  408654:	14800007 	bnez	a0,408674 <strncasecmp+0x84>
  408658:	00801021 	move	v0,a0
  40865c:	90e20000 	lbu	v0,0(a3)
  408660:	24a50001 	addiu	a1,a1,1
  408664:	00021600 	sll	v0,v0,0x18
  408668:	1440ffec 	bnez	v0,40861c <strncasecmp+0x2c>
  40866c:	24e70001 	addiu	a3,a3,1
  408670:	00801021 	move	v0,a0
  408674:	03e00008 	jr	ra
  408678:	27bd0020 	addiu	sp,sp,32
  40867c:	00000000 	nop

00408680 <strncpy>:
  408680:	3c1c0000 	lui	gp,0x0
  408684:	279c63e0 	addiu	gp,gp,25568
  408688:	0399e021 	addu	gp,gp,t9
  40868c:	10c0000a 	beqz	a2,4086b8 <strncpy+0x38>
  408690:	00803821 	move	a3,a0
  408694:	90a20000 	lbu	v0,0(a1)
  408698:	24c6ffff 	addiu	a2,a2,-1
  40869c:	00021e00 	sll	v1,v0,0x18
  4086a0:	a0e20000 	sb	v0,0(a3)
  4086a4:	10600002 	beqz	v1,4086b0 <strncpy+0x30>
  4086a8:	24e70001 	addiu	a3,a3,1
  4086ac:	24a50001 	addiu	a1,a1,1
  4086b0:	14c0fff8 	bnez	a2,408694 <strncpy+0x14>
  4086b4:	00000000 	nop
  4086b8:	03e00008 	jr	ra
  4086bc:	00801021 	move	v0,a0

004086c0 <strnlen>:
  4086c0:	3c1c0000 	lui	gp,0x0
  4086c4:	279c63a0 	addiu	gp,gp,25504
  4086c8:	0399e021 	addu	gp,gp,t9
  4086cc:	10a0000c 	beqz	a1,408700 <strnlen+0x40>
  4086d0:	00801821 	move	v1,a0
  4086d4:	80820000 	lb	v0,0(a0)
  4086d8:	00000000 	nop
  4086dc:	10400008 	beqz	v0,408700 <strnlen+0x40>
  4086e0:	00000000 	nop
  4086e4:	24a5ffff 	addiu	a1,a1,-1
  4086e8:	10a00005 	beqz	a1,408700 <strnlen+0x40>
  4086ec:	24630001 	addiu	v1,v1,1
  4086f0:	80620000 	lb	v0,0(v1)
  4086f4:	00000000 	nop
  4086f8:	1440fffa 	bnez	v0,4086e4 <strnlen+0x24>
  4086fc:	00000000 	nop
  408700:	03e00008 	jr	ra
  408704:	00641023 	subu	v0,v1,a0
	...

00408710 <strtok>:
  408710:	3c1c0000 	lui	gp,0x0
  408714:	279c6350 	addiu	gp,gp,25424
  408718:	0399e021 	addu	gp,gp,t9
  40871c:	27bdffe0 	addiu	sp,sp,-32
  408720:	afbc0010 	sw	gp,16(sp)
  408724:	8f86000c 	lw	a2,12(gp)
  408728:	00000000 	nop
  40872c:	24c63e50 	addiu	a2,a2,15952
  408730:	afbf001c 	sw	ra,28(sp)
  408734:	afbc0018 	sw	gp,24(sp)
  408738:	8f990370 	lw	t9,880(gp)
  40873c:	00000000 	nop
  408740:	0320f809 	jalr	t9
  408744:	00000000 	nop
  408748:	8fbc0010 	lw	gp,16(sp)
  40874c:	8fbf001c 	lw	ra,28(sp)
  408750:	00000000 	nop
  408754:	03e00008 	jr	ra
  408758:	27bd0020 	addiu	sp,sp,32
  40875c:	00000000 	nop

00408760 <strtok_r>:
  408760:	3c1c0000 	lui	gp,0x0
  408764:	279c6300 	addiu	gp,gp,25344
  408768:	0399e021 	addu	gp,gp,t9
  40876c:	27bdffd0 	addiu	sp,sp,-48
  408770:	afbc0010 	sw	gp,16(sp)
  408774:	afb20020 	sw	s2,32(sp)
  408778:	afb1001c 	sw	s1,28(sp)
  40877c:	afb00018 	sw	s0,24(sp)
  408780:	afbf0028 	sw	ra,40(sp)
  408784:	afbc0024 	sw	gp,36(sp)
  408788:	00808021 	move	s0,a0
  40878c:	00c09021 	move	s2,a2
  408790:	14800005 	bnez	a0,4087a8 <strtok_r+0x48>
  408794:	00a08821 	move	s1,a1
  408798:	8cd00000 	lw	s0,0(a2)
  40879c:	00000000 	nop
  4087a0:	1200001a 	beqz	s0,40880c <strtok_r+0xac>
  4087a4:	02001021 	move	v0,s0
  4087a8:	02002021 	move	a0,s0
  4087ac:	8f990084 	lw	t9,132(gp)
  4087b0:	00000000 	nop
  4087b4:	0320f809 	jalr	t9
  4087b8:	00000000 	nop
  4087bc:	8fbc0010 	lw	gp,16(sp)
  4087c0:	02028021 	addu	s0,s0,v0
  4087c4:	82020000 	lb	v0,0(s0)
  4087c8:	02202821 	move	a1,s1
  4087cc:	1040000b 	beqz	v0,4087fc <strtok_r+0x9c>
  4087d0:	02002021 	move	a0,s0
  4087d4:	8f990028 	lw	t9,40(gp)
  4087d8:	00000000 	nop
  4087dc:	0320f809 	jalr	t9
  4087e0:	00000000 	nop
  4087e4:	8fbc0010 	lw	gp,16(sp)
  4087e8:	10400006 	beqz	v0,408804 <strtok_r+0xa4>
  4087ec:	00000000 	nop
  4087f0:	a0400000 	sb	zero,0(v0)
  4087f4:	10000003 	b	408804 <strtok_r+0xa4>
  4087f8:	24420001 	addiu	v0,v0,1
  4087fc:	00008021 	move	s0,zero
  408800:	00001021 	move	v0,zero
  408804:	ae420000 	sw	v0,0(s2)
  408808:	02001021 	move	v0,s0
  40880c:	8fbf0028 	lw	ra,40(sp)
  408810:	8fb20020 	lw	s2,32(sp)
  408814:	8fb1001c 	lw	s1,28(sp)
  408818:	8fb00018 	lw	s0,24(sp)
  40881c:	03e00008 	jr	ra
  408820:	27bd0030 	addiu	sp,sp,48
	...

00408830 <strerror>:
  408830:	3c1c0000 	lui	gp,0x0
  408834:	279c6230 	addiu	gp,gp,25136
  408838:	0399e021 	addu	gp,gp,t9
  40883c:	27bdffd8 	addiu	sp,sp,-40
  408840:	afbc0010 	sw	gp,16(sp)
  408844:	afb00018 	sw	s0,24(sp)
  408848:	8f90000c 	lw	s0,12(gp)
  40884c:	00000000 	nop
  408850:	26103e60 	addiu	s0,s0,15968
  408854:	00000000 	nop
  408858:	02002821 	move	a1,s0
  40885c:	24060032 	li	a2,50
  408860:	afbf0020 	sw	ra,32(sp)
  408864:	afbc001c 	sw	gp,28(sp)
  408868:	8f990134 	lw	t9,308(gp)
  40886c:	00000000 	nop
  408870:	0320f809 	jalr	t9
  408874:	00000000 	nop
  408878:	8fbc0010 	lw	gp,16(sp)
  40887c:	02001021 	move	v0,s0
  408880:	8fbf0020 	lw	ra,32(sp)
  408884:	8fb00018 	lw	s0,24(sp)
  408888:	03e00008 	jr	ra
  40888c:	27bd0028 	addiu	sp,sp,40

00408890 <_susv3_strerror_r>:
  408890:	3c1c0000 	lui	gp,0x0
  408894:	279c61d0 	addiu	gp,gp,25040
  408898:	0399e021 	addu	gp,gp,t9
  40889c:	27bdff88 	addiu	sp,sp,-120
  4088a0:	afbc0018 	sw	gp,24(sp)
  4088a4:	afb40068 	sw	s4,104(sp)
  4088a8:	afb30064 	sw	s3,100(sp)
  4088ac:	afb20060 	sw	s2,96(sp)
  4088b0:	afb00058 	sw	s0,88(sp)
  4088b4:	afbf0070 	sw	ra,112(sp)
  4088b8:	afbc006c 	sw	gp,108(sp)
  4088bc:	afb1005c 	sw	s1,92(sp)
  4088c0:	00a0a021 	move	s4,a1
  4088c4:	00c09021 	move	s2,a2
  4088c8:	24130016 	li	s3,22
  4088cc:	00008021 	move	s0,zero
  4088d0:	8f82000c 	lw	v0,12(gp)
  4088d4:	00000000 	nop
  4088d8:	2442fb60 	addiu	v0,v0,-1184
  4088dc:	00501021 	addu	v0,v0,s0
  4088e0:	90420000 	lbu	v0,0(v0)
  4088e4:	00000000 	nop
  4088e8:	10440009 	beq	v0,a0,408910 <_susv3_strerror_r+0x80>
  4088ec:	2e02007e 	sltiu	v0,s0,126
  4088f0:	26100001 	addiu	s0,s0,1
  4088f4:	2e02007e 	sltiu	v0,s0,126
  4088f8:	1440fff5 	bnez	v0,4088d0 <_susv3_strerror_r+0x40>
  4088fc:	2402046d 	li	v0,1133
  408900:	14820015 	bne	a0,v0,408958 <_susv3_strerror_r+0xc8>
  408904:	000437c3 	sra	a2,a0,0x1f
  408908:	2410007a 	li	s0,122
  40890c:	2e02007e 	sltiu	v0,s0,126
  408910:	10400011 	beqz	v0,408958 <_susv3_strerror_r+0xc8>
  408914:	000437c3 	sra	a2,a0,0x1f
  408918:	8f91029c 	lw	s1,668(gp)
  40891c:	12000008 	beqz	s0,408940 <_susv3_strerror_r+0xb0>
  408920:	00000000 	nop
  408924:	82220000 	lb	v0,0(s1)
  408928:	00000000 	nop
  40892c:	14400002 	bnez	v0,408938 <_susv3_strerror_r+0xa8>
  408930:	26310001 	addiu	s1,s1,1
  408934:	2610ffff 	addiu	s0,s0,-1
  408938:	1600fffa 	bnez	s0,408924 <_susv3_strerror_r+0x94>
  40893c:	00000000 	nop
  408940:	82220000 	lb	v0,0(s1)
  408944:	00000000 	nop
  408948:	10400003 	beqz	v0,408958 <_susv3_strerror_r+0xc8>
  40894c:	000437c3 	sra	a2,a0,0x1f
  408950:	10000016 	b	4089ac <_susv3_strerror_r+0x11c>
  408954:	00009821 	move	s3,zero
  408958:	00803821 	move	a3,a0
  40895c:	2402fff6 	li	v0,-10
  408960:	27a40051 	addiu	a0,sp,81
  408964:	afa20010 	sw	v0,16(sp)
  408968:	afa00014 	sw	zero,20(sp)
  40896c:	8f990330 	lw	t9,816(gp)
  408970:	00000000 	nop
  408974:	0320f809 	jalr	t9
  408978:	00000000 	nop
  40897c:	8fbc0018 	lw	gp,24(sp)
  408980:	2451fff2 	addiu	s1,v0,-14
  408984:	02202021 	move	a0,s1
  408988:	8f85000c 	lw	a1,12(gp)
  40898c:	00000000 	nop
  408990:	24a5fbe0 	addiu	a1,a1,-1056
  408994:	2406000e 	li	a2,14
  408998:	8f9902fc 	lw	t9,764(gp)
  40899c:	00000000 	nop
  4089a0:	0320f809 	jalr	t9
  4089a4:	00000000 	nop
  4089a8:	8fbc0018 	lw	gp,24(sp)
  4089ac:	16800002 	bnez	s4,4089b8 <_susv3_strerror_r+0x128>
  4089b0:	02202021 	move	a0,s1
  4089b4:	00009021 	move	s2,zero
  4089b8:	8f99007c 	lw	t9,124(gp)
  4089bc:	00000000 	nop
  4089c0:	0320f809 	jalr	t9
  4089c4:	00000000 	nop
  4089c8:	8fbc0018 	lw	gp,24(sp)
  4089cc:	24500001 	addiu	s0,v0,1
  4089d0:	0250102b 	sltu	v0,s2,s0
  4089d4:	10400003 	beqz	v0,4089e4 <_susv3_strerror_r+0x154>
  4089d8:	00000000 	nop
  4089dc:	02408021 	move	s0,s2
  4089e0:	24130022 	li	s3,34
  4089e4:	1200000a 	beqz	s0,408a10 <_susv3_strerror_r+0x180>
  4089e8:	02202821 	move	a1,s1
  4089ec:	02802021 	move	a0,s4
  4089f0:	02003021 	move	a2,s0
  4089f4:	8f9902fc 	lw	t9,764(gp)
  4089f8:	00000000 	nop
  4089fc:	0320f809 	jalr	t9
  408a00:	00000000 	nop
  408a04:	8fbc0018 	lw	gp,24(sp)
  408a08:	02901021 	addu	v0,s4,s0
  408a0c:	a040ffff 	sb	zero,-1(v0)
  408a10:	12600008 	beqz	s3,408a34 <_susv3_strerror_r+0x1a4>
  408a14:	02601021 	move	v0,s3
  408a18:	8f9900bc 	lw	t9,188(gp)
  408a1c:	00000000 	nop
  408a20:	0320f809 	jalr	t9
  408a24:	00000000 	nop
  408a28:	8fbc0018 	lw	gp,24(sp)
  408a2c:	ac530000 	sw	s3,0(v0)
  408a30:	02601021 	move	v0,s3
  408a34:	8fbf0070 	lw	ra,112(sp)
  408a38:	8fb40068 	lw	s4,104(sp)
  408a3c:	8fb30064 	lw	s3,100(sp)
  408a40:	8fb20060 	lw	s2,96(sp)
  408a44:	8fb1005c 	lw	s1,92(sp)
  408a48:	8fb00058 	lw	s0,88(sp)
  408a4c:	03e00008 	jr	ra
  408a50:	27bd0078 	addiu	sp,sp,120
	...

00408a60 <_glibc_strerror_r>:
  408a60:	3c1c0000 	lui	gp,0x0
  408a64:	279c6000 	addiu	gp,gp,24576
  408a68:	0399e021 	addu	gp,gp,t9
  408a6c:	27bdffd8 	addiu	sp,sp,-40
  408a70:	afbc0010 	sw	gp,16(sp)
  408a74:	afb00018 	sw	s0,24(sp)
  408a78:	00a08021 	move	s0,a1
  408a7c:	afbf0020 	sw	ra,32(sp)
  408a80:	afbc001c 	sw	gp,28(sp)
  408a84:	8f990134 	lw	t9,308(gp)
  408a88:	00000000 	nop
  408a8c:	0320f809 	jalr	t9
  408a90:	00000000 	nop
  408a94:	8fbc0010 	lw	gp,16(sp)
  408a98:	02001021 	move	v0,s0
  408a9c:	8fbf0020 	lw	ra,32(sp)
  408aa0:	8fb00018 	lw	s0,24(sp)
  408aa4:	03e00008 	jr	ra
  408aa8:	27bd0028 	addiu	sp,sp,40
  408aac:	00000000 	nop

00408ab0 <isatty>:
  408ab0:	3c1c0000 	lui	gp,0x0
  408ab4:	279c5fb0 	addiu	gp,gp,24496
  408ab8:	0399e021 	addu	gp,gp,t9
  408abc:	27bdffa8 	addiu	sp,sp,-88
  408ac0:	afbc0010 	sw	gp,16(sp)
  408ac4:	27a50018 	addiu	a1,sp,24
  408ac8:	afbf0054 	sw	ra,84(sp)
  408acc:	afbc0050 	sw	gp,80(sp)
  408ad0:	8f990150 	lw	t9,336(gp)
  408ad4:	00000000 	nop
  408ad8:	0320f809 	jalr	t9
  408adc:	00000000 	nop
  408ae0:	8fbc0010 	lw	gp,16(sp)
  408ae4:	8fbf0054 	lw	ra,84(sp)
  408ae8:	2c420001 	sltiu	v0,v0,1
  408aec:	03e00008 	jr	ra
  408af0:	27bd0058 	addiu	sp,sp,88
	...

00408b00 <tcgetattr>:
  408b00:	3c1c0000 	lui	gp,0x0
  408b04:	279c5f60 	addiu	gp,gp,24416
  408b08:	0399e021 	addu	gp,gp,t9
  408b0c:	27bdffb0 	addiu	sp,sp,-80
  408b10:	afbc0010 	sw	gp,16(sp)
  408b14:	afb00040 	sw	s0,64(sp)
  408b18:	27a60018 	addiu	a2,sp,24
  408b1c:	00a08021 	move	s0,a1
  408b20:	2405540d 	li	a1,21517
  408b24:	afbf004c 	sw	ra,76(sp)
  408b28:	afb10044 	sw	s1,68(sp)
  408b2c:	afbc0048 	sw	gp,72(sp)
  408b30:	8f990374 	lw	t9,884(gp)
  408b34:	00000000 	nop
  408b38:	0320f809 	jalr	t9
  408b3c:	00000000 	nop
  408b40:	8fbc0010 	lw	gp,16(sp)
  408b44:	00408821 	move	s1,v0
  408b48:	8fa3001c 	lw	v1,28(sp)
  408b4c:	8fa50020 	lw	a1,32(sp)
  408b50:	8fa60024 	lw	a2,36(sp)
  408b54:	93a70028 	lbu	a3,40(sp)
  408b58:	8fa20018 	lw	v0,24(sp)
  408b5c:	26040011 	addiu	a0,s0,17
  408b60:	ae030004 	sw	v1,4(s0)
  408b64:	ae050008 	sw	a1,8(s0)
  408b68:	ae06000c 	sw	a2,12(s0)
  408b6c:	a2070010 	sb	a3,16(s0)
  408b70:	27a50029 	addiu	a1,sp,41
  408b74:	ae020000 	sw	v0,0(s0)
  408b78:	24060017 	li	a2,23
  408b7c:	8f9902a8 	lw	t9,680(gp)
  408b80:	00000000 	nop
  408b84:	0320f809 	jalr	t9
  408b88:	00000000 	nop
  408b8c:	8fbc0010 	lw	gp,16(sp)
  408b90:	00402021 	move	a0,v0
  408b94:	00002821 	move	a1,zero
  408b98:	24060009 	li	a2,9
  408b9c:	8f990164 	lw	t9,356(gp)
  408ba0:	00000000 	nop
  408ba4:	0320f809 	jalr	t9
  408ba8:	00000000 	nop
  408bac:	8fbc0010 	lw	gp,16(sp)
  408bb0:	02201021 	move	v0,s1
  408bb4:	8fbf004c 	lw	ra,76(sp)
  408bb8:	8fb10044 	lw	s1,68(sp)
  408bbc:	8fb00040 	lw	s0,64(sp)
  408bc0:	03e00008 	jr	ra
  408bc4:	27bd0050 	addiu	sp,sp,80
	...

00408bd0 <inet_aton>:
  408bd0:	3c1c0000 	lui	gp,0x0
  408bd4:	279c5e90 	addiu	gp,gp,24208
  408bd8:	0399e021 	addu	gp,gp,t9
  408bdc:	00004821 	move	t1,zero
  408be0:	240a0001 	li	t2,1
  408be4:	80820000 	lb	v0,0(a0)
  408be8:	8f880324 	lw	t0,804(gp)
  408bec:	00000000 	nop
  408bf0:	8d080000 	lw	t0,0(t0)
  408bf4:	00021040 	sll	v0,v0,0x1
  408bf8:	00481021 	addu	v0,v0,t0
  408bfc:	94420000 	lhu	v0,0(v0)
  408c00:	00000000 	nop
  408c04:	30420008 	andi	v0,v0,0x8
  408c08:	10400029 	beqz	v0,408cb0 <inet_aton+0xe0>
  408c0c:	00003821 	move	a3,zero
  408c10:	00003021 	move	a2,zero
  408c14:	00061080 	sll	v0,a2,0x2
  408c18:	00461021 	addu	v0,v0,a2
  408c1c:	80830000 	lb	v1,0(a0)
  408c20:	00023040 	sll	a2,v0,0x1
  408c24:	00c31821 	addu	v1,a2,v1
  408c28:	2466ffd0 	addiu	a2,v1,-48
  408c2c:	28c20100 	slti	v0,a2,256
  408c30:	24840001 	addiu	a0,a0,1
  408c34:	1040001e 	beqz	v0,408cb0 <inet_aton+0xe0>
  408c38:	00003821 	move	a3,zero
  408c3c:	80830000 	lb	v1,0(a0)
  408c40:	00000000 	nop
  408c44:	00031040 	sll	v0,v1,0x1
  408c48:	00481021 	addu	v0,v0,t0
  408c4c:	94470000 	lhu	a3,0(v0)
  408c50:	00000000 	nop
  408c54:	30e20008 	andi	v0,a3,0x8
  408c58:	1440ffef 	bnez	v0,408c18 <inet_aton+0x48>
  408c5c:	00061080 	sll	v0,a2,0x2
  408c60:	29420004 	slti	v0,t2,4
  408c64:	10400006 	beqz	v0,408c80 <inet_aton+0xb0>
  408c68:	24840001 	addiu	a0,a0,1
  408c6c:	2402002e 	li	v0,46
  408c70:	1462000f 	bne	v1,v0,408cb0 <inet_aton+0xe0>
  408c74:	00003821 	move	a3,zero
  408c78:	10000006 	b	408c94 <inet_aton+0xc4>
  408c7c:	254a0001 	addiu	t2,t2,1
  408c80:	10600003 	beqz	v1,408c90 <inet_aton+0xc0>
  408c84:	30e20020 	andi	v0,a3,0x20
  408c88:	10400009 	beqz	v0,408cb0 <inet_aton+0xe0>
  408c8c:	00003821 	move	a3,zero
  408c90:	254a0001 	addiu	t2,t2,1
  408c94:	00094a00 	sll	t1,t1,0x8
  408c98:	29420005 	slti	v0,t2,5
  408c9c:	1440ffd1 	bnez	v0,408be4 <inet_aton+0x14>
  408ca0:	01264825 	or	t1,t1,a2
  408ca4:	10a00002 	beqz	a1,408cb0 <inet_aton+0xe0>
  408ca8:	24070001 	li	a3,1
  408cac:	aca90000 	sw	t1,0(a1)
  408cb0:	03e00008 	jr	ra
  408cb4:	00e01021 	move	v0,a3
	...

00408cc0 <inet_ntoa_r>:
  408cc0:	3c1c0000 	lui	gp,0x0
  408cc4:	279c5da0 	addiu	gp,gp,23968
  408cc8:	0399e021 	addu	gp,gp,t9
  408ccc:	27bdffc8 	addiu	sp,sp,-56
  408cd0:	afbc0018 	sw	gp,24(sp)
  408cd4:	afb20028 	sw	s2,40(sp)
  408cd8:	afb10024 	sw	s1,36(sp)
  408cdc:	afb00020 	sw	s0,32(sp)
  408ce0:	afbf0030 	sw	ra,48(sp)
  408ce4:	00808021 	move	s0,a0
  408ce8:	afbc002c 	sw	gp,44(sp)
  408cec:	24a4000f 	addiu	a0,a1,15
  408cf0:	00009021 	move	s2,zero
  408cf4:	24110003 	li	s1,3
  408cf8:	24020000 	li	v0,0
  408cfc:	240300ff 	li	v1,255
  408d00:	00003021 	move	a2,zero
  408d04:	00c23024 	and	a2,a2,v0
  408d08:	02033824 	and	a3,s0,v1
  408d0c:	2402fff6 	li	v0,-10
  408d10:	afa20010 	sw	v0,16(sp)
  408d14:	afa00014 	sw	zero,20(sp)
  408d18:	8f990330 	lw	t9,816(gp)
  408d1c:	00000000 	nop
  408d20:	0320f809 	jalr	t9
  408d24:	00000000 	nop
  408d28:	8fbc0018 	lw	gp,24(sp)
  408d2c:	2631ffff 	addiu	s1,s1,-1
  408d30:	2444ffff 	addiu	a0,v0,-1
  408d34:	12400003 	beqz	s2,408d44 <inet_ntoa_r+0x84>
  408d38:	00108202 	srl	s0,s0,0x8
  408d3c:	2403002e 	li	v1,46
  408d40:	a2430000 	sb	v1,0(s2)
  408d44:	0621ffec 	bgez	s1,408cf8 <inet_ntoa_r+0x38>
  408d48:	00809021 	move	s2,a0
  408d4c:	8fbf0030 	lw	ra,48(sp)
  408d50:	8fb20028 	lw	s2,40(sp)
  408d54:	8fb10024 	lw	s1,36(sp)
  408d58:	8fb00020 	lw	s0,32(sp)
  408d5c:	03e00008 	jr	ra
  408d60:	27bd0038 	addiu	sp,sp,56

00408d64 <inet_ntoa>:
  408d64:	3c1c0000 	lui	gp,0x0
  408d68:	279c5cfc 	addiu	gp,gp,23804
  408d6c:	0399e021 	addu	gp,gp,t9
  408d70:	27bdffe0 	addiu	sp,sp,-32
  408d74:	afbc0010 	sw	gp,16(sp)
  408d78:	8f85000c 	lw	a1,12(gp)
  408d7c:	00000000 	nop
  408d80:	24a53ea0 	addiu	a1,a1,16032
  408d84:	afbf001c 	sw	ra,28(sp)
  408d88:	afbc0018 	sw	gp,24(sp)
  408d8c:	8f9900e8 	lw	t9,232(gp)
  408d90:	00000000 	nop
  408d94:	0320f809 	jalr	t9
  408d98:	00000000 	nop
  408d9c:	8fbc0010 	lw	gp,16(sp)
  408da0:	8fbf001c 	lw	ra,28(sp)
  408da4:	00000000 	nop
  408da8:	03e00008 	jr	ra
  408dac:	27bd0020 	addiu	sp,sp,32

00408db0 <bind>:
  408db0:	3c1c0000 	lui	gp,0x0
  408db4:	279c5cb0 	addiu	gp,gp,23728
  408db8:	0399e021 	addu	gp,gp,t9
  408dbc:	27bdffd0 	addiu	sp,sp,-48
  408dc0:	afbc0010 	sw	gp,16(sp)
  408dc4:	00a01821 	move	v1,a1
  408dc8:	00801021 	move	v0,a0
  408dcc:	27a50018 	addiu	a1,sp,24
  408dd0:	24040002 	li	a0,2
  408dd4:	afbf002c 	sw	ra,44(sp)
  408dd8:	afbc0028 	sw	gp,40(sp)
  408ddc:	afa20018 	sw	v0,24(sp)
  408de0:	afa3001c 	sw	v1,28(sp)
  408de4:	afa60020 	sw	a2,32(sp)
  408de8:	8f990378 	lw	t9,888(gp)
  408dec:	00000000 	nop
  408df0:	0320f809 	jalr	t9
  408df4:	00000000 	nop
  408df8:	8fbc0010 	lw	gp,16(sp)
  408dfc:	8fbf002c 	lw	ra,44(sp)
  408e00:	00000000 	nop
  408e04:	03e00008 	jr	ra
  408e08:	27bd0030 	addiu	sp,sp,48
  408e0c:	00000000 	nop

00408e10 <__libc_connect>:
  408e10:	3c1c0000 	lui	gp,0x0
  408e14:	279c5c50 	addiu	gp,gp,23632
  408e18:	0399e021 	addu	gp,gp,t9
  408e1c:	27bdffd0 	addiu	sp,sp,-48
  408e20:	afbc0010 	sw	gp,16(sp)
  408e24:	00a01821 	move	v1,a1
  408e28:	00801021 	move	v0,a0
  408e2c:	27a50018 	addiu	a1,sp,24
  408e30:	24040003 	li	a0,3
  408e34:	afbf002c 	sw	ra,44(sp)
  408e38:	afbc0028 	sw	gp,40(sp)
  408e3c:	afa20018 	sw	v0,24(sp)
  408e40:	afa3001c 	sw	v1,28(sp)
  408e44:	afa60020 	sw	a2,32(sp)
  408e48:	8f990378 	lw	t9,888(gp)
  408e4c:	00000000 	nop
  408e50:	0320f809 	jalr	t9
  408e54:	00000000 	nop
  408e58:	8fbc0010 	lw	gp,16(sp)
  408e5c:	8fbf002c 	lw	ra,44(sp)
  408e60:	00000000 	nop
  408e64:	03e00008 	jr	ra
  408e68:	27bd0030 	addiu	sp,sp,48
  408e6c:	00000000 	nop

00408e70 <__libc_recvfrom>:
  408e70:	3c1c0000 	lui	gp,0x0
  408e74:	279c5bf0 	addiu	gp,gp,23536
  408e78:	0399e021 	addu	gp,gp,t9
  408e7c:	27bdffc8 	addiu	sp,sp,-56
  408e80:	afbc0010 	sw	gp,16(sp)
  408e84:	00801021 	move	v0,a0
  408e88:	afa20018 	sw	v0,24(sp)
  408e8c:	8fa20048 	lw	v0,72(sp)
  408e90:	00a01821 	move	v1,a1
  408e94:	afa20028 	sw	v0,40(sp)
  408e98:	8fa2004c 	lw	v0,76(sp)
  408e9c:	2404000c 	li	a0,12
  408ea0:	27a50018 	addiu	a1,sp,24
  408ea4:	afbf0034 	sw	ra,52(sp)
  408ea8:	afbc0030 	sw	gp,48(sp)
  408eac:	afa3001c 	sw	v1,28(sp)
  408eb0:	afa60020 	sw	a2,32(sp)
  408eb4:	afa70024 	sw	a3,36(sp)
  408eb8:	afa2002c 	sw	v0,44(sp)
  408ebc:	8f990378 	lw	t9,888(gp)
  408ec0:	00000000 	nop
  408ec4:	0320f809 	jalr	t9
  408ec8:	00000000 	nop
  408ecc:	8fbc0010 	lw	gp,16(sp)
  408ed0:	8fbf0034 	lw	ra,52(sp)
  408ed4:	00000000 	nop
  408ed8:	03e00008 	jr	ra
  408edc:	27bd0038 	addiu	sp,sp,56

00408ee0 <__libc_sendto>:
  408ee0:	3c1c0000 	lui	gp,0x0
  408ee4:	279c5b80 	addiu	gp,gp,23424
  408ee8:	0399e021 	addu	gp,gp,t9
  408eec:	27bdffc8 	addiu	sp,sp,-56
  408ef0:	afbc0010 	sw	gp,16(sp)
  408ef4:	00801021 	move	v0,a0
  408ef8:	afa20018 	sw	v0,24(sp)
  408efc:	8fa20048 	lw	v0,72(sp)
  408f00:	00a01821 	move	v1,a1
  408f04:	afa20028 	sw	v0,40(sp)
  408f08:	8fa2004c 	lw	v0,76(sp)
  408f0c:	2404000b 	li	a0,11
  408f10:	27a50018 	addiu	a1,sp,24
  408f14:	afbf0034 	sw	ra,52(sp)
  408f18:	afbc0030 	sw	gp,48(sp)
  408f1c:	afa3001c 	sw	v1,28(sp)
  408f20:	afa60020 	sw	a2,32(sp)
  408f24:	afa70024 	sw	a3,36(sp)
  408f28:	afa2002c 	sw	v0,44(sp)
  408f2c:	8f990378 	lw	t9,888(gp)
  408f30:	00000000 	nop
  408f34:	0320f809 	jalr	t9
  408f38:	00000000 	nop
  408f3c:	8fbc0010 	lw	gp,16(sp)
  408f40:	8fbf0034 	lw	ra,52(sp)
  408f44:	00000000 	nop
  408f48:	03e00008 	jr	ra
  408f4c:	27bd0038 	addiu	sp,sp,56

00408f50 <socket>:
  408f50:	3c1c0000 	lui	gp,0x0
  408f54:	279c5b10 	addiu	gp,gp,23312
  408f58:	0399e021 	addu	gp,gp,t9
  408f5c:	27bdffd0 	addiu	sp,sp,-48
  408f60:	afbc0010 	sw	gp,16(sp)
  408f64:	00a01821 	move	v1,a1
  408f68:	00801021 	move	v0,a0
  408f6c:	27a50018 	addiu	a1,sp,24
  408f70:	24040001 	li	a0,1
  408f74:	afbf002c 	sw	ra,44(sp)
  408f78:	afbc0028 	sw	gp,40(sp)
  408f7c:	afa20018 	sw	v0,24(sp)
  408f80:	afa3001c 	sw	v1,28(sp)
  408f84:	afa60020 	sw	a2,32(sp)
  408f88:	8f990378 	lw	t9,888(gp)
  408f8c:	00000000 	nop
  408f90:	0320f809 	jalr	t9
  408f94:	00000000 	nop
  408f98:	8fbc0010 	lw	gp,16(sp)
  408f9c:	8fbf002c 	lw	ra,44(sp)
  408fa0:	00000000 	nop
  408fa4:	03e00008 	jr	ra
  408fa8:	27bd0030 	addiu	sp,sp,48
  408fac:	00000000 	nop

00408fb0 <__libc_sigaction>:
  408fb0:	3c1c0000 	lui	gp,0x0
  408fb4:	279c5ab0 	addiu	gp,gp,23216
  408fb8:	0399e021 	addu	gp,gp,t9
  408fbc:	27bdff90 	addiu	sp,sp,-112
  408fc0:	afbc0010 	sw	gp,16(sp)
  408fc4:	afb00058 	sw	s0,88(sp)
  408fc8:	00a08021 	move	s0,a1
  408fcc:	afb20060 	sw	s2,96(sp)
  408fd0:	afb1005c 	sw	s1,92(sp)
  408fd4:	00809021 	move	s2,a0
  408fd8:	00c08821 	move	s1,a2
  408fdc:	afbf0068 	sw	ra,104(sp)
  408fe0:	afbc0064 	sw	gp,100(sp)
  408fe4:	24a50008 	addiu	a1,a1,8
  408fe8:	24060010 	li	a2,16
  408fec:	27a40020 	addiu	a0,sp,32
  408ff0:	1200000c 	beqz	s0,409024 <__libc_sigaction+0x74>
  408ff4:	00001821 	move	v1,zero
  408ff8:	8e020004 	lw	v0,4(s0)
  408ffc:	00000000 	nop
  409000:	afa2001c 	sw	v0,28(sp)
  409004:	8f9902fc 	lw	t9,764(gp)
  409008:	00000000 	nop
  40900c:	0320f809 	jalr	t9
  409010:	00000000 	nop
  409014:	8fbc0010 	lw	gp,16(sp)
  409018:	8e020000 	lw	v0,0(s0)
  40901c:	27a30018 	addiu	v1,sp,24
  409020:	afa20018 	sw	v0,24(sp)
  409024:	02402021 	move	a0,s2
  409028:	00602821 	move	a1,v1
  40902c:	24070010 	li	a3,16
  409030:	16200002 	bnez	s1,40903c <__libc_sigaction+0x8c>
  409034:	27a60038 	addiu	a2,sp,56
  409038:	00003021 	move	a2,zero
  40903c:	8f990158 	lw	t9,344(gp)
  409040:	00000000 	nop
  409044:	0320f809 	jalr	t9
  409048:	00000000 	nop
  40904c:	8fbc0010 	lw	gp,16(sp)
  409050:	1220000f 	beqz	s1,409090 <__libc_sigaction+0xe0>
  409054:	00408021 	move	s0,v0
  409058:	26240008 	addiu	a0,s1,8
  40905c:	0440000c 	bltz	v0,409090 <__libc_sigaction+0xe0>
  409060:	24060080 	li	a2,128
  409064:	8fa2003c 	lw	v0,60(sp)
  409068:	27a50040 	addiu	a1,sp,64
  40906c:	ae220004 	sw	v0,4(s1)
  409070:	8f9902fc 	lw	t9,764(gp)
  409074:	00000000 	nop
  409078:	0320f809 	jalr	t9
  40907c:	00000000 	nop
  409080:	8fbc0010 	lw	gp,16(sp)
  409084:	8fa20038 	lw	v0,56(sp)
  409088:	00000000 	nop
  40908c:	ae220000 	sw	v0,0(s1)
  409090:	02001021 	move	v0,s0
  409094:	8fbf0068 	lw	ra,104(sp)
  409098:	8fb20060 	lw	s2,96(sp)
  40909c:	8fb1005c 	lw	s1,92(sp)
  4090a0:	8fb00058 	lw	s0,88(sp)
  4090a4:	03e00008 	jr	ra
  4090a8:	27bd0070 	addiu	sp,sp,112
  4090ac:	00000000 	nop

004090b0 <sigemptyset>:
  4090b0:	3c1c0000 	lui	gp,0x0
  4090b4:	279c59b0 	addiu	gp,gp,22960
  4090b8:	0399e021 	addu	gp,gp,t9
  4090bc:	27bdffe0 	addiu	sp,sp,-32
  4090c0:	afbc0010 	sw	gp,16(sp)
  4090c4:	afbf001c 	sw	ra,28(sp)
  4090c8:	afbc0018 	sw	gp,24(sp)
  4090cc:	00002821 	move	a1,zero
  4090d0:	1480000a 	bnez	a0,4090fc <sigemptyset+0x4c>
  4090d4:	24060080 	li	a2,128
  4090d8:	8f9900bc 	lw	t9,188(gp)
  4090dc:	00000000 	nop
  4090e0:	0320f809 	jalr	t9
  4090e4:	00000000 	nop
  4090e8:	8fbc0010 	lw	gp,16(sp)
  4090ec:	24030016 	li	v1,22
  4090f0:	2404ffff 	li	a0,-1
  4090f4:	10000007 	b	409114 <sigemptyset+0x64>
  4090f8:	ac430000 	sw	v1,0(v0)
  4090fc:	8f990164 	lw	t9,356(gp)
  409100:	00000000 	nop
  409104:	0320f809 	jalr	t9
  409108:	00000000 	nop
  40910c:	8fbc0010 	lw	gp,16(sp)
  409110:	00002021 	move	a0,zero
  409114:	8fbf001c 	lw	ra,28(sp)
  409118:	00801021 	move	v0,a0
  40911c:	03e00008 	jr	ra
  409120:	27bd0020 	addiu	sp,sp,32
	...

00409130 <bsd_signal>:
  409130:	3c1c0000 	lui	gp,0x0
  409134:	279c5930 	addiu	gp,gp,22832
  409138:	0399e021 	addu	gp,gp,t9
  40913c:	27bdfec8 	addiu	sp,sp,-312
  409140:	afbc0010 	sw	gp,16(sp)
  409144:	2402ffff 	li	v0,-1
  409148:	afb00128 	sw	s0,296(sp)
  40914c:	afbf0130 	sw	ra,304(sp)
  409150:	afbc012c 	sw	gp,300(sp)
  409154:	10a20005 	beq	a1,v0,40916c <bsd_signal+0x3c>
  409158:	00808021 	move	s0,a0
  40915c:	18800003 	blez	a0,40916c <bsd_signal+0x3c>
  409160:	28820080 	slti	v0,a0,128
  409164:	1440000a 	bnez	v0,409190 <bsd_signal+0x60>
  409168:	2403001f 	li	v1,31
  40916c:	8f9900bc 	lw	t9,188(gp)
  409170:	00000000 	nop
  409174:	0320f809 	jalr	t9
  409178:	00000000 	nop
  40917c:	8fbc0010 	lw	gp,16(sp)
  409180:	24030016 	li	v1,22
  409184:	2404ffff 	li	a0,-1
  409188:	10000025 	b	409220 <bsd_signal+0xf0>
  40918c:	ac430000 	sw	v1,0(v0)
  409190:	afa5001c 	sw	a1,28(sp)
  409194:	27a2009c 	addiu	v0,sp,156
  409198:	2463ffff 	addiu	v1,v1,-1
  40919c:	ac400000 	sw	zero,0(v0)
  4091a0:	0461fffd 	bgez	v1,409198 <bsd_signal+0x68>
  4091a4:	2442fffc 	addiu	v0,v0,-4
  4091a8:	27a40020 	addiu	a0,sp,32
  4091ac:	02002821 	move	a1,s0
  4091b0:	8f990248 	lw	t9,584(gp)
  4091b4:	00000000 	nop
  4091b8:	0320f809 	jalr	t9
  4091bc:	00000000 	nop
  4091c0:	8fbc0010 	lw	gp,16(sp)
  4091c4:	04400016 	bltz	v0,409220 <bsd_signal+0xf0>
  4091c8:	2404ffff 	li	a0,-1
  4091cc:	8f8400d4 	lw	a0,212(gp)
  4091d0:	02002821 	move	a1,s0
  4091d4:	8f99017c 	lw	t9,380(gp)
  4091d8:	00000000 	nop
  4091dc:	0320f809 	jalr	t9
  4091e0:	00000000 	nop
  4091e4:	8fbc0010 	lw	gp,16(sp)
  4091e8:	2c420001 	sltiu	v0,v0,1
  4091ec:	02002021 	move	a0,s0
  4091f0:	00021700 	sll	v0,v0,0x1c
  4091f4:	27a600a0 	addiu	a2,sp,160
  4091f8:	27a50018 	addiu	a1,sp,24
  4091fc:	afa20018 	sw	v0,24(sp)
  409200:	8f990194 	lw	t9,404(gp)
  409204:	00000000 	nop
  409208:	0320f809 	jalr	t9
  40920c:	00000000 	nop
  409210:	8fbc0010 	lw	gp,16(sp)
  409214:	04400002 	bltz	v0,409220 <bsd_signal+0xf0>
  409218:	2404ffff 	li	a0,-1
  40921c:	8fa400a4 	lw	a0,164(sp)
  409220:	8fbf0130 	lw	ra,304(sp)
  409224:	8fb00128 	lw	s0,296(sp)
  409228:	00801021 	move	v0,a0
  40922c:	03e00008 	jr	ra
  409230:	27bd0138 	addiu	sp,sp,312
	...

00409240 <__sigismember>:
  409240:	3c1c0000 	lui	gp,0x0
  409244:	279c5820 	addiu	gp,gp,22560
  409248:	0399e021 	addu	gp,gp,t9
  40924c:	24a5ffff 	addiu	a1,a1,-1
  409250:	00051142 	srl	v0,a1,0x5
  409254:	00021080 	sll	v0,v0,0x2
  409258:	00441021 	addu	v0,v0,a0
  40925c:	8c420000 	lw	v0,0(v0)
  409260:	30a5001f 	andi	a1,a1,0x1f
  409264:	24030001 	li	v1,1
  409268:	00a31804 	sllv	v1,v1,a1
  40926c:	00431024 	and	v0,v0,v1
  409270:	03e00008 	jr	ra
  409274:	0002102b 	sltu	v0,zero,v0

00409278 <__sigaddset>:
  409278:	3c1c0000 	lui	gp,0x0
  40927c:	279c57e8 	addiu	gp,gp,22504
  409280:	0399e021 	addu	gp,gp,t9
  409284:	24a5ffff 	addiu	a1,a1,-1
  409288:	00053142 	srl	a2,a1,0x5
  40928c:	00063080 	sll	a2,a2,0x2
  409290:	00c43021 	addu	a2,a2,a0
  409294:	8cc30000 	lw	v1,0(a2)
  409298:	30a5001f 	andi	a1,a1,0x1f
  40929c:	24020001 	li	v0,1
  4092a0:	00a21004 	sllv	v0,v0,a1
  4092a4:	00621825 	or	v1,v1,v0
  4092a8:	00001021 	move	v0,zero
  4092ac:	03e00008 	jr	ra
  4092b0:	acc30000 	sw	v1,0(a2)

004092b4 <__sigdelset>:
  4092b4:	3c1c0000 	lui	gp,0x0
  4092b8:	279c57ac 	addiu	gp,gp,22444
  4092bc:	0399e021 	addu	gp,gp,t9
  4092c0:	24a5ffff 	addiu	a1,a1,-1
  4092c4:	00053142 	srl	a2,a1,0x5
  4092c8:	00063080 	sll	a2,a2,0x2
  4092cc:	00c43021 	addu	a2,a2,a0
  4092d0:	30a5001f 	andi	a1,a1,0x1f
  4092d4:	24020001 	li	v0,1
  4092d8:	8cc30000 	lw	v1,0(a2)
  4092dc:	00a21004 	sllv	v0,v0,a1
  4092e0:	00021027 	nor	v0,zero,v0
  4092e4:	00621824 	and	v1,v1,v0
  4092e8:	00001021 	move	v0,zero
  4092ec:	03e00008 	jr	ra
  4092f0:	acc30000 	sw	v1,0(a2)
	...

00409300 <atoi>:
  409300:	3c1c0000 	lui	gp,0x0
  409304:	279c5760 	addiu	gp,gp,22368
  409308:	0399e021 	addu	gp,gp,t9
  40930c:	27bdffe0 	addiu	sp,sp,-32
  409310:	afbc0010 	sw	gp,16(sp)
  409314:	00002821 	move	a1,zero
  409318:	2406000a 	li	a2,10
  40931c:	afbf001c 	sw	ra,28(sp)
  409320:	afbc0018 	sw	gp,24(sp)
  409324:	8f990260 	lw	t9,608(gp)
  409328:	00000000 	nop
  40932c:	0320f809 	jalr	t9
  409330:	00000000 	nop
  409334:	8fbc0010 	lw	gp,16(sp)
  409338:	8fbf001c 	lw	ra,28(sp)
  40933c:	00000000 	nop
  409340:	03e00008 	jr	ra
  409344:	27bd0020 	addiu	sp,sp,32
	...

00409350 <strtol>:
  409350:	3c1c0000 	lui	gp,0x0
  409354:	279c5710 	addiu	gp,gp,22288
  409358:	0399e021 	addu	gp,gp,t9
  40935c:	27bdffe0 	addiu	sp,sp,-32
  409360:	afbc0010 	sw	gp,16(sp)
  409364:	24070001 	li	a3,1
  409368:	afbf001c 	sw	ra,28(sp)
  40936c:	afbc0018 	sw	gp,24(sp)
  409370:	8f9900b8 	lw	t9,184(gp)
  409374:	00000000 	nop
  409378:	0320f809 	jalr	t9
  40937c:	00000000 	nop
  409380:	8fbc0010 	lw	gp,16(sp)
  409384:	8fbf001c 	lw	ra,28(sp)
  409388:	00000000 	nop
  40938c:	03e00008 	jr	ra
  409390:	27bd0020 	addiu	sp,sp,32
	...

004093a0 <_stdlib_strto_l>:
  4093a0:	3c1c0000 	lui	gp,0x0
  4093a4:	279c56c0 	addiu	gp,gp,22208
  4093a8:	0399e021 	addu	gp,gp,t9
  4093ac:	27bdffb8 	addiu	sp,sp,-72
  4093b0:	afbc0010 	sw	gp,16(sp)
  4093b4:	afbe003c 	sw	s8,60(sp)
  4093b8:	afb70034 	sw	s7,52(sp)
  4093bc:	afb20020 	sw	s2,32(sp)
  4093c0:	afb1001c 	sw	s1,28(sp)
  4093c4:	afb00018 	sw	s0,24(sp)
  4093c8:	afbf0040 	sw	ra,64(sp)
  4093cc:	afbc0038 	sw	gp,56(sp)
  4093d0:	afb60030 	sw	s6,48(sp)
  4093d4:	afb5002c 	sw	s5,44(sp)
  4093d8:	afb40028 	sw	s4,40(sp)
  4093dc:	afb30024 	sw	s3,36(sp)
  4093e0:	80820000 	lb	v0,0(a0)
  4093e4:	8f830324 	lw	v1,804(gp)
  4093e8:	00000000 	nop
  4093ec:	8c630000 	lw	v1,0(v1)
  4093f0:	00021040 	sll	v0,v0,0x1
  4093f4:	00431021 	addu	v0,v0,v1
  4093f8:	94420000 	lhu	v0,0(v0)
  4093fc:	00808821 	move	s1,a0
  409400:	30420020 	andi	v0,v0,0x20
  409404:	00809021 	move	s2,a0
  409408:	00a0b821 	move	s7,a1
  40940c:	00c08021 	move	s0,a2
  409410:	1040000b 	beqz	v0,409440 <_stdlib_strto_l+0xa0>
  409414:	00e0f021 	move	s8,a3
  409418:	26310001 	addiu	s1,s1,1
  40941c:	82220000 	lb	v0,0(s1)
  409420:	00000000 	nop
  409424:	00021040 	sll	v0,v0,0x1
  409428:	00431021 	addu	v0,v0,v1
  40942c:	94420000 	lhu	v0,0(v0)
  409430:	00000000 	nop
  409434:	30420020 	andi	v0,v0,0x20
  409438:	1440fff7 	bnez	v0,409418 <_stdlib_strto_l+0x78>
  40943c:	00000000 	nop
  409440:	82230000 	lb	v1,0(s1)
  409444:	2402002b 	li	v0,43
  409448:	10620005 	beq	v1,v0,409460 <_stdlib_strto_l+0xc0>
  40944c:	0000a821 	move	s5,zero
  409450:	2402002d 	li	v0,45
  409454:	14620004 	bne	v1,v0,409468 <_stdlib_strto_l+0xc8>
  409458:	2402ffef 	li	v0,-17
  40945c:	24150001 	li	s5,1
  409460:	26310001 	addiu	s1,s1,1
  409464:	2402ffef 	li	v0,-17
  409468:	02021024 	and	v0,s0,v0
  40946c:	14400015 	bnez	v0,4094c4 <_stdlib_strto_l+0x124>
  409470:	2602fffe 	addiu	v0,s0,-2
  409474:	82230000 	lb	v1,0(s1)
  409478:	24020030 	li	v0,48
  40947c:	1462000c 	bne	v1,v0,4094b0 <_stdlib_strto_l+0x110>
  409480:	2610000a 	addiu	s0,s0,10
  409484:	26320001 	addiu	s2,s1,1
  409488:	92420000 	lbu	v0,0(s2)
  40948c:	24030078 	li	v1,120
  409490:	34420020 	ori	v0,v0,0x20
  409494:	00021600 	sll	v0,v0,0x18
  409498:	00021603 	sra	v0,v0,0x18
  40949c:	02408821 	move	s1,s2
  4094a0:	14430003 	bne	v0,v1,4094b0 <_stdlib_strto_l+0x110>
  4094a4:	2610fffe 	addiu	s0,s0,-2
  4094a8:	26510001 	addiu	s1,s2,1
  4094ac:	00108040 	sll	s0,s0,0x1
  4094b0:	2a020011 	slti	v0,s0,17
  4094b4:	14400003 	bnez	v0,4094c4 <_stdlib_strto_l+0x124>
  4094b8:	2602fffe 	addiu	v0,s0,-2
  4094bc:	24100010 	li	s0,16
  4094c0:	2602fffe 	addiu	v0,s0,-2
  4094c4:	2c420023 	sltiu	v0,v0,35
  4094c8:	10400030 	beqz	v0,40958c <_stdlib_strto_l+0x1ec>
  4094cc:	00009821 	move	s3,zero
  4094d0:	2402ffff 	li	v0,-1
  4094d4:	0050001b 	divu	zero,v0,s0
  4094d8:	16000002 	bnez	s0,4094e4 <_stdlib_strto_l+0x144>
  4094dc:	00000000 	nop
  4094e0:	0007000d 	break	0x7
  4094e4:	00001010 	mfhi	v0
  4094e8:	305600ff 	andi	s6,v0,0xff
  4094ec:	0000a012 	mflo	s4
  4094f0:	92250000 	lbu	a1,0(s1)
  4094f4:	0293382b 	sltu	a3,s4,s3
  4094f8:	24a2ffd0 	addiu	v0,a1,-48
  4094fc:	00051e00 	sll	v1,a1,0x18
  409500:	304200ff 	andi	v0,v0,0xff
  409504:	00031e03 	sra	v1,v1,0x18
  409508:	28660041 	slti	a2,v1,65
  40950c:	2c43000a 	sltiu	v1,v0,10
  409510:	14600006 	bnez	v1,40952c <_stdlib_strto_l+0x18c>
  409514:	00402021 	move	a0,v0
  409518:	34a20020 	ori	v0,a1,0x20
  40951c:	2442ffa9 	addiu	v0,v0,-87
  409520:	14c00002 	bnez	a2,40952c <_stdlib_strto_l+0x18c>
  409524:	24040028 	li	a0,40
  409528:	304400ff 	andi	a0,v0,0xff
  40952c:	0090102a 	slt	v0,a0,s0
  409530:	10400016 	beqz	v0,40958c <_stdlib_strto_l+0x1ec>
  409534:	00000000 	nop
  409538:	26320001 	addiu	s2,s1,1
  40953c:	14e00005 	bnez	a3,409554 <_stdlib_strto_l+0x1b4>
  409540:	02408821 	move	s1,s2
  409544:	1674000d 	bne	s3,s4,40957c <_stdlib_strto_l+0x1dc>
  409548:	02c4102b 	sltu	v0,s6,a0
  40954c:	1040000c 	beqz	v0,409580 <_stdlib_strto_l+0x1e0>
  409550:	02700018 	mult	s3,s0
  409554:	8f9900bc 	lw	t9,188(gp)
  409558:	00000000 	nop
  40955c:	0320f809 	jalr	t9
  409560:	00000000 	nop
  409564:	8fbc0010 	lw	gp,16(sp)
  409568:	2413ffff 	li	s3,-1
  40956c:	24030022 	li	v1,34
  409570:	02bea824 	and	s5,s5,s8
  409574:	1000ffde 	b	4094f0 <_stdlib_strto_l+0x150>
  409578:	ac430000 	sw	v1,0(v0)
  40957c:	02700018 	mult	s3,s0
  409580:	00001012 	mflo	v0
  409584:	1000ffda 	b	4094f0 <_stdlib_strto_l+0x150>
  409588:	00449821 	addu	s3,v0,a0
  40958c:	12e00002 	beqz	s7,409598 <_stdlib_strto_l+0x1f8>
  409590:	00000000 	nop
  409594:	aef20000 	sw	s2,0(s7)
  409598:	2ea30001 	sltiu	v1,s5,1
  40959c:	3c028000 	lui	v0,0x8000
  4095a0:	13c0000c 	beqz	s8,4095d4 <_stdlib_strto_l+0x234>
  4095a4:	00431823 	subu	v1,v0,v1
  4095a8:	0073102b 	sltu	v0,v1,s3
  4095ac:	10400009 	beqz	v0,4095d4 <_stdlib_strto_l+0x234>
  4095b0:	00000000 	nop
  4095b4:	00609821 	move	s3,v1
  4095b8:	8f9900bc 	lw	t9,188(gp)
  4095bc:	00000000 	nop
  4095c0:	0320f809 	jalr	t9
  4095c4:	00000000 	nop
  4095c8:	8fbc0010 	lw	gp,16(sp)
  4095cc:	24030022 	li	v1,34
  4095d0:	ac430000 	sw	v1,0(v0)
  4095d4:	16a00002 	bnez	s5,4095e0 <_stdlib_strto_l+0x240>
  4095d8:	00131023 	negu	v0,s3
  4095dc:	02601021 	move	v0,s3
  4095e0:	8fbf0040 	lw	ra,64(sp)
  4095e4:	8fbe003c 	lw	s8,60(sp)
  4095e8:	8fb70034 	lw	s7,52(sp)
  4095ec:	8fb60030 	lw	s6,48(sp)
  4095f0:	8fb5002c 	lw	s5,44(sp)
  4095f4:	8fb40028 	lw	s4,40(sp)
  4095f8:	8fb30024 	lw	s3,36(sp)
  4095fc:	8fb20020 	lw	s2,32(sp)
  409600:	8fb1001c 	lw	s1,28(sp)
  409604:	8fb00018 	lw	s0,24(sp)
  409608:	03e00008 	jr	ra
  40960c:	27bd0048 	addiu	sp,sp,72

00409610 <exit>:
  409610:	3c1c0000 	lui	gp,0x0
  409614:	279c5450 	addiu	gp,gp,21584
  409618:	0399e021 	addu	gp,gp,t9
  40961c:	27bdffd8 	addiu	sp,sp,-40
  409620:	afbc0010 	sw	gp,16(sp)
  409624:	afb00018 	sw	s0,24(sp)
  409628:	00808021 	move	s0,a0
  40962c:	8f8401a8 	lw	a0,424(gp)
  409630:	afbf0020 	sw	ra,32(sp)
  409634:	afbc001c 	sw	gp,28(sp)
  409638:	8f990344 	lw	t9,836(gp)
  40963c:	00000000 	nop
  409640:	0320f809 	jalr	t9
  409644:	00000000 	nop
  409648:	8fbc0010 	lw	gp,16(sp)
  40964c:	00000000 	nop
  409650:	8f820230 	lw	v0,560(gp)
  409654:	00000000 	nop
  409658:	8c420000 	lw	v0,0(v0)
  40965c:	00000000 	nop
  409660:	10400006 	beqz	v0,40967c <exit+0x6c>
  409664:	02002021 	move	a0,s0
  409668:	0040c821 	move	t9,v0
  40966c:	0320f809 	jalr	t9
  409670:	00000000 	nop
  409674:	8fbc0010 	lw	gp,16(sp)
  409678:	00000000 	nop
  40967c:	8f8401a8 	lw	a0,424(gp)
  409680:	8f990234 	lw	t9,564(gp)
  409684:	00000000 	nop
  409688:	0320f809 	jalr	t9
  40968c:	00000000 	nop
  409690:	8fbc0010 	lw	gp,16(sp)
  409694:	00000000 	nop
  409698:	8f820114 	lw	v0,276(gp)
  40969c:	00000000 	nop
  4096a0:	10400006 	beqz	v0,4096bc <exit+0xac>
  4096a4:	02002021 	move	a0,s0
  4096a8:	0040c821 	move	t9,v0
  4096ac:	0320f809 	jalr	t9
  4096b0:	00000000 	nop
  4096b4:	8fbc0010 	lw	gp,16(sp)
  4096b8:	02002021 	move	a0,s0
  4096bc:	8f990088 	lw	t9,136(gp)
  4096c0:	00000000 	nop
  4096c4:	0320f809 	jalr	t9
  4096c8:	00000000 	nop
  4096cc:	8fbc0010 	lw	gp,16(sp)
	...

004096e0 <getenv>:
  4096e0:	3c1c0000 	lui	gp,0x0
  4096e4:	279c5380 	addiu	gp,gp,21376
  4096e8:	0399e021 	addu	gp,gp,t9
  4096ec:	27bdffd0 	addiu	sp,sp,-48
  4096f0:	afbc0010 	sw	gp,16(sp)
  4096f4:	afb00018 	sw	s0,24(sp)
  4096f8:	8f900288 	lw	s0,648(gp)
  4096fc:	00000000 	nop
  409700:	8e100000 	lw	s0,0(s0)
  409704:	afb20020 	sw	s2,32(sp)
  409708:	afbf0028 	sw	ra,40(sp)
  40970c:	afbc0024 	sw	gp,36(sp)
  409710:	afb1001c 	sw	s1,28(sp)
  409714:	00809021 	move	s2,a0
  409718:	12000022 	beqz	s0,4097a4 <getenv+0xc4>
  40971c:	00002821 	move	a1,zero
  409720:	8f99007c 	lw	t9,124(gp)
  409724:	00000000 	nop
  409728:	0320f809 	jalr	t9
  40972c:	00000000 	nop
  409730:	8fbc0010 	lw	gp,16(sp)
  409734:	00408821 	move	s1,v0
  409738:	8e020000 	lw	v0,0(s0)
  40973c:	00000000 	nop
  409740:	10400018 	beqz	v0,4097a4 <getenv+0xc4>
  409744:	00002821 	move	a1,zero
  409748:	8e050000 	lw	a1,0(s0)
  40974c:	02402021 	move	a0,s2
  409750:	02203021 	move	a2,s1
  409754:	8f9901a0 	lw	t9,416(gp)
  409758:	00000000 	nop
  40975c:	0320f809 	jalr	t9
  409760:	00000000 	nop
  409764:	8fbc0010 	lw	gp,16(sp)
  409768:	14400009 	bnez	v0,409790 <getenv+0xb0>
  40976c:	00000000 	nop
  409770:	8e020000 	lw	v0,0(s0)
  409774:	00000000 	nop
  409778:	00511021 	addu	v0,v0,s1
  40977c:	80430000 	lb	v1,0(v0)
  409780:	24450001 	addiu	a1,v0,1
  409784:	2402003d 	li	v0,61
  409788:	10620006 	beq	v1,v0,4097a4 <getenv+0xc4>
  40978c:	00000000 	nop
  409790:	26100004 	addiu	s0,s0,4
  409794:	8e020000 	lw	v0,0(s0)
  409798:	00000000 	nop
  40979c:	1440ffea 	bnez	v0,409748 <getenv+0x68>
  4097a0:	00002821 	move	a1,zero
  4097a4:	8fbf0028 	lw	ra,40(sp)
  4097a8:	8fb20020 	lw	s2,32(sp)
  4097ac:	8fb1001c 	lw	s1,28(sp)
  4097b0:	8fb00018 	lw	s0,24(sp)
  4097b4:	00a01021 	move	v0,a1
  4097b8:	03e00008 	jr	ra
  4097bc:	27bd0030 	addiu	sp,sp,48
  4097c0:	3c1c0000 	lui	gp,0x0
  4097c4:	279c52a0 	addiu	gp,gp,21152
  4097c8:	0399e021 	addu	gp,gp,t9
  4097cc:	27bdffc0 	addiu	sp,sp,-64
  4097d0:	afbc0018 	sw	gp,24(sp)
  4097d4:	afb00020 	sw	s0,32(sp)
  4097d8:	24b00004 	addiu	s0,a1,4
  4097dc:	24820008 	addiu	v0,a0,8
  4097e0:	afb3002c 	sw	s3,44(sp)
  4097e4:	02002021 	move	a0,s0
  4097e8:	00a09821 	move	s3,a1
  4097ec:	afbf0038 	sw	ra,56(sp)
  4097f0:	afb10024 	sw	s1,36(sp)
  4097f4:	afbc0034 	sw	gp,52(sp)
  4097f8:	afb40030 	sw	s4,48(sp)
  4097fc:	afb20028 	sw	s2,40(sp)
  409800:	afa20040 	sw	v0,64(sp)
  409804:	8f990344 	lw	t9,836(gp)
  409808:	00000000 	nop
  40980c:	0320f809 	jalr	t9
  409810:	00000000 	nop
  409814:	8fbc0018 	lw	gp,24(sp)
  409818:	02602021 	move	a0,s3
  40981c:	27a50040 	addiu	a1,sp,64
  409820:	8f9900a8 	lw	t9,168(gp)
  409824:	00000000 	nop
  409828:	0320f809 	jalr	t9
  40982c:	00000000 	nop
  409830:	8fbc0018 	lw	gp,24(sp)
  409834:	00408821 	move	s1,v0
  409838:	02002021 	move	a0,s0
  40983c:	8f990234 	lw	t9,564(gp)
  409840:	00000000 	nop
  409844:	0320f809 	jalr	t9
  409848:	00000000 	nop
  40984c:	8fbc0018 	lw	gp,24(sp)
  409850:	16200058 	bnez	s1,4099b4 <getenv+0x2d4>
  409854:	00000000 	nop
  409858:	8fa30040 	lw	v1,64(sp)
  40985c:	00000000 	nop
  409860:	2c621000 	sltiu	v0,v1,4096
  409864:	14400004 	bnez	v0,409878 <getenv+0x198>
  409868:	24141000 	li	s4,4096
  40986c:	24630fff 	addiu	v1,v1,4095
  409870:	2402f000 	li	v0,-4096
  409874:	0062a024 	and	s4,v1,v0
  409878:	00002021 	move	a0,zero
  40987c:	02802821 	move	a1,s4
  409880:	24060003 	li	a2,3
  409884:	24070801 	li	a3,2049
  409888:	afa00010 	sw	zero,16(sp)
  40988c:	afa00014 	sw	zero,20(sp)
  409890:	8f990284 	lw	t9,644(gp)
  409894:	00000000 	nop
  409898:	0320f809 	jalr	t9
  40989c:	00000000 	nop
  4098a0:	8fbc0018 	lw	gp,24(sp)
  4098a4:	00409021 	move	s2,v0
  4098a8:	2402ffff 	li	v0,-1
  4098ac:	1242003f 	beq	s2,v0,4099ac <getenv+0x2cc>
  4098b0:	02002021 	move	a0,s0
  4098b4:	8f990344 	lw	t9,836(gp)
  4098b8:	00000000 	nop
  4098bc:	0320f809 	jalr	t9
  4098c0:	00000000 	nop
  4098c4:	8fbc0018 	lw	gp,24(sp)
  4098c8:	02602021 	move	a0,s3
  4098cc:	02803021 	move	a2,s4
  4098d0:	02402821 	move	a1,s2
  4098d4:	8f990304 	lw	t9,772(gp)
  4098d8:	00000000 	nop
  4098dc:	0320f809 	jalr	t9
  4098e0:	00000000 	nop
  4098e4:	8fbc0018 	lw	gp,24(sp)
  4098e8:	02602021 	move	a0,s3
  4098ec:	27a50040 	addiu	a1,sp,64
  4098f0:	8f9900a8 	lw	t9,168(gp)
  4098f4:	00000000 	nop
  4098f8:	0320f809 	jalr	t9
  4098fc:	00000000 	nop
  409900:	8fbc0018 	lw	gp,24(sp)
  409904:	02002021 	move	a0,s0
  409908:	00408821 	move	s1,v0
  40990c:	8f990234 	lw	t9,564(gp)
  409910:	00000000 	nop
  409914:	0320f809 	jalr	t9
  409918:	00000000 	nop
  40991c:	8fbc0018 	lw	gp,24(sp)
  409920:	00000000 	nop
  409924:	8f900244 	lw	s0,580(gp)
  409928:	00000000 	nop
  40992c:	8e100000 	lw	s0,0(s0)
  409930:	00000000 	nop
  409934:	1200000b 	beqz	s0,409964 <getenv+0x284>
  409938:	00009821 	move	s3,zero
  40993c:	8e020000 	lw	v0,0(s0)
  409940:	00000000 	nop
  409944:	0242102b 	sltu	v0,s2,v0
  409948:	14400007 	bnez	v0,409968 <getenv+0x288>
  40994c:	2404000c 	li	a0,12
  409950:	02009821 	move	s3,s0
  409954:	8e100008 	lw	s0,8(s0)
  409958:	00000000 	nop
  40995c:	1600fff7 	bnez	s0,40993c <getenv+0x25c>
  409960:	00000000 	nop
  409964:	2404000c 	li	a0,12
  409968:	8f8500ac 	lw	a1,172(gp)
  40996c:	8f99000c 	lw	t9,12(gp)
  409970:	00000000 	nop
  409974:	273997c0 	addiu	t9,t9,-26688
  409978:	00000000 	nop
  40997c:	0320f809 	jalr	t9
  409980:	00000000 	nop
  409984:	8fbc0018 	lw	gp,24(sp)
  409988:	ac500008 	sw	s0,8(v0)
  40998c:	ac520000 	sw	s2,0(v0)
  409990:	12600003 	beqz	s3,4099a0 <getenv+0x2c0>
  409994:	ac540004 	sw	s4,4(v0)
  409998:	10000004 	b	4099ac <getenv+0x2cc>
  40999c:	ae620008 	sw	v0,8(s3)
  4099a0:	8f810244 	lw	at,580(gp)
  4099a4:	00000000 	nop
  4099a8:	ac220000 	sw	v0,0(at)
  4099ac:	12200006 	beqz	s1,4099c8 <getenv+0x2e8>
  4099b0:	02201021 	move	v0,s1
  4099b4:	8fa20040 	lw	v0,64(sp)
  4099b8:	00000000 	nop
  4099bc:	ae220000 	sw	v0,0(s1)
  4099c0:	26310008 	addiu	s1,s1,8
  4099c4:	02201021 	move	v0,s1
  4099c8:	8fbf0038 	lw	ra,56(sp)
  4099cc:	8fb40030 	lw	s4,48(sp)
  4099d0:	8fb3002c 	lw	s3,44(sp)
  4099d4:	8fb20028 	lw	s2,40(sp)
  4099d8:	8fb10024 	lw	s1,36(sp)
  4099dc:	8fb00020 	lw	s0,32(sp)
  4099e0:	03e00008 	jr	ra
  4099e4:	27bd0040 	addiu	sp,sp,64

004099e8 <malloc>:
  4099e8:	3c1c0000 	lui	gp,0x0
  4099ec:	279c5078 	addiu	gp,gp,20600
  4099f0:	0399e021 	addu	gp,gp,t9
  4099f4:	27bdffe0 	addiu	sp,sp,-32
  4099f8:	afbc0010 	sw	gp,16(sp)
  4099fc:	afbf001c 	sw	ra,28(sp)
  409a00:	afbc0018 	sw	gp,24(sp)
  409a04:	8f85028c 	lw	a1,652(gp)
  409a08:	14800002 	bnez	a0,409a14 <malloc+0x2c>
  409a0c:	00801021 	move	v0,a0
  409a10:	24020001 	li	v0,1
  409a14:	00402021 	move	a0,v0
  409a18:	2c42fff1 	sltiu	v0,v0,-15
  409a1c:	1040000a 	beqz	v0,409a48 <malloc+0x60>
  409a20:	00000000 	nop
  409a24:	8f99000c 	lw	t9,12(gp)
  409a28:	00000000 	nop
  409a2c:	273997c0 	addiu	t9,t9,-26688
  409a30:	00000000 	nop
  409a34:	0320f809 	jalr	t9
  409a38:	00000000 	nop
  409a3c:	8fbc0010 	lw	gp,16(sp)
  409a40:	14400009 	bnez	v0,409a68 <malloc+0x80>
  409a44:	00401821 	move	v1,v0
  409a48:	8f9900bc 	lw	t9,188(gp)
  409a4c:	00000000 	nop
  409a50:	0320f809 	jalr	t9
  409a54:	00000000 	nop
  409a58:	8fbc0010 	lw	gp,16(sp)
  409a5c:	2403000c 	li	v1,12
  409a60:	ac430000 	sw	v1,0(v0)
  409a64:	00001821 	move	v1,zero
  409a68:	8fbf001c 	lw	ra,28(sp)
  409a6c:	00601021 	move	v0,v1
  409a70:	03e00008 	jr	ra
  409a74:	27bd0020 	addiu	sp,sp,32
	...
  409a80:	3c1c0000 	lui	gp,0x0
  409a84:	279c4fe0 	addiu	gp,gp,20448
  409a88:	0399e021 	addu	gp,gp,t9
  409a8c:	27bdffb8 	addiu	sp,sp,-72
  409a90:	afbc0010 	sw	gp,16(sp)
  409a94:	afb60030 	sw	s6,48(sp)
  409a98:	afbf0040 	sw	ra,64(sp)
  409a9c:	afbe003c 	sw	s8,60(sp)
  409aa0:	afbc0038 	sw	gp,56(sp)
  409aa4:	afb70034 	sw	s7,52(sp)
  409aa8:	afb5002c 	sw	s5,44(sp)
  409aac:	afb40028 	sw	s4,40(sp)
  409ab0:	afb30024 	sw	s3,36(sp)
  409ab4:	afb20020 	sw	s2,32(sp)
  409ab8:	afb1001c 	sw	s1,28(sp)
  409abc:	afb00018 	sw	s0,24(sp)
  409ac0:	1080009b 	beqz	a0,409d30 <malloc+0x348>
  409ac4:	00a0b021 	move	s6,a1
  409ac8:	24b70004 	addiu	s7,a1,4
  409acc:	8c90fff8 	lw	s0,-8(a0)
  409ad0:	2491fff8 	addiu	s1,a0,-8
  409ad4:	02e02021 	move	a0,s7
  409ad8:	8f990344 	lw	t9,836(gp)
  409adc:	00000000 	nop
  409ae0:	0320f809 	jalr	t9
  409ae4:	00000000 	nop
  409ae8:	8fbc0010 	lw	gp,16(sp)
  409aec:	02c02021 	move	a0,s6
  409af0:	02202821 	move	a1,s1
  409af4:	02003021 	move	a2,s0
  409af8:	8f990304 	lw	t9,772(gp)
  409afc:	00000000 	nop
  409b00:	0320f809 	jalr	t9
  409b04:	00000000 	nop
  409b08:	8fbc0010 	lw	gp,16(sp)
  409b0c:	8c450000 	lw	a1,0(v0)
  409b10:	00401821 	move	v1,v0
  409b14:	24027fff 	li	v0,32767
  409b18:	0045102b 	sltu	v0,v0,a1
  409b1c:	1040007f 	beqz	v0,409d1c <malloc+0x334>
  409b20:	02e02021 	move	a0,s7
  409b24:	8c640004 	lw	a0,4(v1)
  409b28:	00651023 	subu	v0,v1,a1
  409b2c:	2452000c 	addiu	s2,v0,12
  409b30:	10800004 	beqz	a0,409b44 <malloc+0x15c>
  409b34:	2475000c 	addiu	s5,v1,12
  409b38:	8c620008 	lw	v0,8(v1)
  409b3c:	00000000 	nop
  409b40:	ac820008 	sw	v0,8(a0)
  409b44:	8c620008 	lw	v0,8(v1)
  409b48:	00000000 	nop
  409b4c:	10400003 	beqz	v0,409b5c <malloc+0x174>
  409b50:	00000000 	nop
  409b54:	10000002 	b	409b60 <malloc+0x178>
  409b58:	ac440004 	sw	a0,4(v0)
  409b5c:	aec40000 	sw	a0,0(s6)
  409b60:	8ec20000 	lw	v0,0(s6)
  409b64:	00000000 	nop
  409b68:	14400009 	bnez	v0,409b90 <malloc+0x1a8>
  409b6c:	02402821 	move	a1,s2
  409b70:	02c02021 	move	a0,s6
  409b74:	24062000 	li	a2,8192
  409b78:	8f990304 	lw	t9,772(gp)
  409b7c:	00000000 	nop
  409b80:	0320f809 	jalr	t9
  409b84:	00000000 	nop
  409b88:	8fbc0010 	lw	gp,16(sp)
  409b8c:	26522000 	addiu	s2,s2,8192
  409b90:	8f900244 	lw	s0,580(gp)
  409b94:	00000000 	nop
  409b98:	8e100000 	lw	s0,0(s0)
  409b9c:	00000000 	nop
  409ba0:	12000054 	beqz	s0,409cf4 <malloc+0x30c>
  409ba4:	0000f021 	move	s8,zero
  409ba8:	8e020004 	lw	v0,4(s0)
  409bac:	8e110000 	lw	s1,0(s0)
  409bb0:	00000000 	nop
  409bb4:	02229821 	addu	s3,s1,v0
  409bb8:	02b3102b 	sltu	v0,s5,s3
  409bbc:	1440004d 	bnez	v0,409cf4 <malloc+0x30c>
  409bc0:	0232102b 	sltu	v0,s1,s2
  409bc4:	1440003f 	bnez	v0,409cc4 <malloc+0x2dc>
  409bc8:	00000000 	nop
  409bcc:	12510004 	beq	s2,s1,409be0 <malloc+0x1f8>
  409bd0:	02321023 	subu	v0,s1,s2
  409bd4:	2c420031 	sltiu	v0,v0,49
  409bd8:	1440003a 	bnez	v0,409cc4 <malloc+0x2dc>
  409bdc:	00000000 	nop
  409be0:	8e140008 	lw	s4,8(s0)
  409be4:	12750004 	beq	s3,s5,409bf8 <malloc+0x210>
  409be8:	26620030 	addiu	v0,s3,48
  409bec:	02a2102b 	sltu	v0,s5,v0
  409bf0:	14400040 	bnez	v0,409cf4 <malloc+0x30c>
  409bf4:	00000000 	nop
  409bf8:	12320008 	beq	s1,s2,409c1c <malloc+0x234>
  409bfc:	02323023 	subu	a2,s1,s2
  409c00:	02402821 	move	a1,s2
  409c04:	02c02021 	move	a0,s6
  409c08:	8f990304 	lw	t9,772(gp)
  409c0c:	00000000 	nop
  409c10:	0320f809 	jalr	t9
  409c14:	00000000 	nop
  409c18:	8fbc0010 	lw	gp,16(sp)
  409c1c:	13c00003 	beqz	s8,409c2c <malloc+0x244>
  409c20:	00000000 	nop
  409c24:	10000004 	b	409c38 <malloc+0x250>
  409c28:	afd40008 	sw	s4,8(s8)
  409c2c:	8f810244 	lw	at,580(gp)
  409c30:	00000000 	nop
  409c34:	ac340000 	sw	s4,0(at)
  409c38:	02e02021 	move	a0,s7
  409c3c:	8f990234 	lw	t9,564(gp)
  409c40:	00000000 	nop
  409c44:	0320f809 	jalr	t9
  409c48:	00000000 	nop
  409c4c:	8fbc0010 	lw	gp,16(sp)
  409c50:	02002021 	move	a0,s0
  409c54:	8f8500ac 	lw	a1,172(gp)
  409c58:	8f99000c 	lw	t9,12(gp)
  409c5c:	00000000 	nop
  409c60:	27399a80 	addiu	t9,t9,-25984
  409c64:	00000000 	nop
  409c68:	0320f809 	jalr	t9
  409c6c:	00000000 	nop
  409c70:	8fbc0010 	lw	gp,16(sp)
  409c74:	02712823 	subu	a1,s3,s1
  409c78:	02202021 	move	a0,s1
  409c7c:	8f990334 	lw	t9,820(gp)
  409c80:	00000000 	nop
  409c84:	0320f809 	jalr	t9
  409c88:	00000000 	nop
  409c8c:	8fbc0010 	lw	gp,16(sp)
  409c90:	02e02021 	move	a0,s7
  409c94:	8f990344 	lw	t9,836(gp)
  409c98:	00000000 	nop
  409c9c:	0320f809 	jalr	t9
  409ca0:	00000000 	nop
  409ca4:	8fbc0010 	lw	gp,16(sp)
  409ca8:	00000000 	nop
  409cac:	8f900244 	lw	s0,580(gp)
  409cb0:	00000000 	nop
  409cb4:	8e100000 	lw	s0,0(s0)
  409cb8:	02609021 	move	s2,s3
  409cbc:	10000004 	b	409cd0 <malloc+0x2e8>
  409cc0:	0000f021 	move	s8,zero
  409cc4:	0200f021 	move	s8,s0
  409cc8:	8e100008 	lw	s0,8(s0)
  409ccc:	00000000 	nop
  409cd0:	12000008 	beqz	s0,409cf4 <malloc+0x30c>
  409cd4:	00000000 	nop
  409cd8:	8e020004 	lw	v0,4(s0)
  409cdc:	8e110000 	lw	s1,0(s0)
  409ce0:	00000000 	nop
  409ce4:	02229821 	addu	s3,s1,v0
  409ce8:	02b3102b 	sltu	v0,s5,s3
  409cec:	1040ffb5 	beqz	v0,409bc4 <malloc+0x1dc>
  409cf0:	0232102b 	sltu	v0,s1,s2
  409cf4:	12550008 	beq	s2,s5,409d18 <malloc+0x330>
  409cf8:	02b23023 	subu	a2,s5,s2
  409cfc:	02402821 	move	a1,s2
  409d00:	02c02021 	move	a0,s6
  409d04:	8f990304 	lw	t9,772(gp)
  409d08:	00000000 	nop
  409d0c:	0320f809 	jalr	t9
  409d10:	00000000 	nop
  409d14:	8fbc0010 	lw	gp,16(sp)
  409d18:	26c40004 	addiu	a0,s6,4
  409d1c:	8f990234 	lw	t9,564(gp)
  409d20:	00000000 	nop
  409d24:	0320f809 	jalr	t9
  409d28:	00000000 	nop
  409d2c:	8fbc0010 	lw	gp,16(sp)
  409d30:	8fbf0040 	lw	ra,64(sp)
  409d34:	8fbe003c 	lw	s8,60(sp)
  409d38:	8fb70034 	lw	s7,52(sp)
  409d3c:	8fb60030 	lw	s6,48(sp)
  409d40:	8fb5002c 	lw	s5,44(sp)
  409d44:	8fb40028 	lw	s4,40(sp)
  409d48:	8fb30024 	lw	s3,36(sp)
  409d4c:	8fb20020 	lw	s2,32(sp)
  409d50:	8fb1001c 	lw	s1,28(sp)
  409d54:	8fb00018 	lw	s0,24(sp)
  409d58:	03e00008 	jr	ra
  409d5c:	27bd0048 	addiu	sp,sp,72

00409d60 <free>:
  409d60:	3c1c0000 	lui	gp,0x0
  409d64:	279c4d00 	addiu	gp,gp,19712
  409d68:	0399e021 	addu	gp,gp,t9
  409d6c:	27bdffe0 	addiu	sp,sp,-32
  409d70:	afbc0010 	sw	gp,16(sp)
  409d74:	8f85028c 	lw	a1,652(gp)
  409d78:	afbf001c 	sw	ra,28(sp)
  409d7c:	afbc0018 	sw	gp,24(sp)
  409d80:	8f99000c 	lw	t9,12(gp)
  409d84:	00000000 	nop
  409d88:	27399a80 	addiu	t9,t9,-25984
  409d8c:	00000000 	nop
  409d90:	0320f809 	jalr	t9
  409d94:	00000000 	nop
  409d98:	8fbc0010 	lw	gp,16(sp)
  409d9c:	8fbf001c 	lw	ra,28(sp)
  409da0:	00000000 	nop
  409da4:	03e00008 	jr	ra
  409da8:	27bd0020 	addiu	sp,sp,32
  409dac:	00000000 	nop

00409db0 <__heap_alloc>:
  409db0:	3c1c0000 	lui	gp,0x0
  409db4:	279c4cb0 	addiu	gp,gp,19632
  409db8:	0399e021 	addu	gp,gp,t9
  409dbc:	8ca70000 	lw	a3,0(a1)
  409dc0:	2403fff8 	li	v1,-8
  409dc4:	24e20007 	addiu	v0,a3,7
  409dc8:	00433824 	and	a3,v0,v1
  409dcc:	2ce2000c 	sltiu	v0,a3,12
  409dd0:	10400002 	beqz	v0,409ddc <__heap_alloc+0x2c>
  409dd4:	00004821 	move	t1,zero
  409dd8:	24070010 	li	a3,16
  409ddc:	8c860000 	lw	a2,0(a0)
  409de0:	00000000 	nop
  409de4:	10c00022 	beqz	a2,409e70 <__heap_alloc+0xc0>
  409de8:	00000000 	nop
  409dec:	8cc80000 	lw	t0,0(a2)
  409df0:	00000000 	nop
  409df4:	0107102b 	sltu	v0,t0,a3
  409df8:	14400019 	bnez	v0,409e60 <__heap_alloc+0xb0>
  409dfc:	24e20030 	addiu	v0,a3,48
  409e00:	00c81823 	subu	v1,a2,t0
  409e04:	0102102b 	sltu	v0,t0,v0
  409e08:	10400011 	beqz	v0,409e50 <__heap_alloc+0xa0>
  409e0c:	2469000c 	addiu	t1,v1,12
  409e10:	8cc70004 	lw	a3,4(a2)
  409e14:	00000000 	nop
  409e18:	10e00004 	beqz	a3,409e2c <__heap_alloc+0x7c>
  409e1c:	00000000 	nop
  409e20:	8cc20008 	lw	v0,8(a2)
  409e24:	00000000 	nop
  409e28:	ace20008 	sw	v0,8(a3)
  409e2c:	8cc30008 	lw	v1,8(a2)
  409e30:	00000000 	nop
  409e34:	10600003 	beqz	v1,409e44 <__heap_alloc+0x94>
  409e38:	00000000 	nop
  409e3c:	10000002 	b	409e48 <__heap_alloc+0x98>
  409e40:	ac670004 	sw	a3,4(v1)
  409e44:	ac870000 	sw	a3,0(a0)
  409e48:	10000003 	b	409e58 <__heap_alloc+0xa8>
  409e4c:	01003821 	move	a3,t0
  409e50:	01071023 	subu	v0,t0,a3
  409e54:	acc20000 	sw	v0,0(a2)
  409e58:	10000005 	b	409e70 <__heap_alloc+0xc0>
  409e5c:	aca70000 	sw	a3,0(a1)
  409e60:	8cc60004 	lw	a2,4(a2)
  409e64:	00000000 	nop
  409e68:	14c0ffe0 	bnez	a2,409dec <__heap_alloc+0x3c>
  409e6c:	00000000 	nop
  409e70:	03e00008 	jr	ra
  409e74:	01201021 	move	v0,t1
	...

00409e80 <__heap_free>:
  409e80:	3c1c0000 	lui	gp,0x0
  409e84:	279c4be0 	addiu	gp,gp,19424
  409e88:	0399e021 	addu	gp,gp,t9
  409e8c:	8c830000 	lw	v1,0(a0)
  409e90:	00a65021 	addu	t2,a1,a2
  409e94:	10600044 	beqz	v1,409fa8 <__heap_free+0x128>
  409e98:	00004821 	move	t1,zero
  409e9c:	2462000c 	addiu	v0,v1,12
  409ea0:	0045102b 	sltu	v0,v0,a1
  409ea4:	10400008 	beqz	v0,409ec8 <__heap_free+0x48>
  409ea8:	00000000 	nop
  409eac:	00604821 	move	t1,v1
  409eb0:	8c630004 	lw	v1,4(v1)
  409eb4:	00000000 	nop
  409eb8:	1460fff8 	bnez	v1,409e9c <__heap_free+0x1c>
  409ebc:	2542fff4 	addiu	v0,t2,-12
  409ec0:	1000003b 	b	409fb0 <__heap_free+0x130>
  409ec4:	ad46fff4 	sw	a2,-12(t2)
  409ec8:	10600038 	beqz	v1,409fac <__heap_free+0x12c>
  409ecc:	2542fff4 	addiu	v0,t2,-12
  409ed0:	8c680000 	lw	t0,0(v1)
  409ed4:	00000000 	nop
  409ed8:	00681023 	subu	v0,v1,t0
  409edc:	2447000c 	addiu	a3,v0,12
  409ee0:	0147102b 	sltu	v0,t2,a3
  409ee4:	14400030 	bnez	v0,409fa8 <__heap_free+0x128>
  409ee8:	00000000 	nop
  409eec:	14ea0010 	bne	a3,t2,409f30 <__heap_free+0xb0>
  409ef0:	01064021 	addu	t0,t0,a2
  409ef4:	1120002a 	beqz	t1,409fa0 <__heap_free+0x120>
  409ef8:	00000000 	nop
  409efc:	2522000c 	addiu	v0,t1,12
  409f00:	14a20027 	bne	a1,v0,409fa0 <__heap_free+0x120>
  409f04:	00000000 	nop
  409f08:	8d220000 	lw	v0,0(t1)
  409f0c:	8d250008 	lw	a1,8(t1)
  409f10:	00000000 	nop
  409f14:	10a00003 	beqz	a1,409f24 <__heap_free+0xa4>
  409f18:	01024021 	addu	t0,t0,v0
  409f1c:	10000002 	b	409f28 <__heap_free+0xa8>
  409f20:	aca30004 	sw	v1,4(a1)
  409f24:	ac830000 	sw	v1,0(a0)
  409f28:	1000001d 	b	409fa0 <__heap_free+0x120>
  409f2c:	ac650008 	sw	a1,8(v1)
  409f30:	8c650004 	lw	a1,4(v1)
  409f34:	00000000 	nop
  409f38:	10a0000f 	beqz	a1,409f78 <__heap_free+0xf8>
  409f3c:	00000000 	nop
  409f40:	8ca70000 	lw	a3,0(a1)
  409f44:	00000000 	nop
  409f48:	00a71023 	subu	v0,a1,a3
  409f4c:	2442000c 	addiu	v0,v0,12
  409f50:	1542000a 	bne	t2,v0,409f7c <__heap_free+0xfc>
  409f54:	00661821 	addu	v1,v1,a2
  409f58:	11200003 	beqz	t1,409f68 <__heap_free+0xe8>
  409f5c:	01074021 	addu	t0,t0,a3
  409f60:	10000002 	b	409f6c <__heap_free+0xec>
  409f64:	ad250004 	sw	a1,4(t1)
  409f68:	ac850000 	sw	a1,0(a0)
  409f6c:	00a01821 	move	v1,a1
  409f70:	1000000b 	b	409fa0 <__heap_free+0x120>
  409f74:	aca90008 	sw	t1,8(a1)
  409f78:	00661821 	addu	v1,v1,a2
  409f7c:	ac650004 	sw	a1,4(v1)
  409f80:	11200003 	beqz	t1,409f90 <__heap_free+0x110>
  409f84:	ac690008 	sw	t1,8(v1)
  409f88:	10000002 	b	409f94 <__heap_free+0x114>
  409f8c:	ad230004 	sw	v1,4(t1)
  409f90:	ac830000 	sw	v1,0(a0)
  409f94:	10a00002 	beqz	a1,409fa0 <__heap_free+0x120>
  409f98:	00000000 	nop
  409f9c:	aca30008 	sw	v1,8(a1)
  409fa0:	1000000d 	b	409fd8 <__heap_free+0x158>
  409fa4:	ac680000 	sw	t0,0(v1)
  409fa8:	2542fff4 	addiu	v0,t2,-12
  409fac:	ad46fff4 	sw	a2,-12(t2)
  409fb0:	ac430004 	sw	v1,4(v0)
  409fb4:	11200003 	beqz	t1,409fc4 <__heap_free+0x144>
  409fb8:	ac490008 	sw	t1,8(v0)
  409fbc:	10000002 	b	409fc8 <__heap_free+0x148>
  409fc0:	ad220004 	sw	v0,4(t1)
  409fc4:	ac820000 	sw	v0,0(a0)
  409fc8:	10600002 	beqz	v1,409fd4 <__heap_free+0x154>
  409fcc:	00000000 	nop
  409fd0:	ac620008 	sw	v0,8(v1)
  409fd4:	00401821 	move	v1,v0
  409fd8:	03e00008 	jr	ra
  409fdc:	00601021 	move	v0,v1

00409fe0 <_exit>:
  409fe0:	3c1c0000 	lui	gp,0x0
  409fe4:	279c4a80 	addiu	gp,gp,19072
  409fe8:	0399e021 	addu	gp,gp,t9
  409fec:	27bdffd8 	addiu	sp,sp,-40
  409ff0:	afbc0010 	sw	gp,16(sp)
  409ff4:	afbf0020 	sw	ra,32(sp)
  409ff8:	afbc001c 	sw	gp,28(sp)
  409ffc:	afb00018 	sw	s0,24(sp)
  40a000:	00801821 	move	v1,a0
  40a004:	00602021 	move	a0,v1
  40a008:	24020001 	li	v0,1
  40a00c:	0000000c 	syscall
  40a010:	00408021 	move	s0,v0
  40a014:	00e01821 	move	v1,a3
  40a018:	10600007 	beqz	v1,40a038 <_exit+0x58>
  40a01c:	00000000 	nop
  40a020:	8f9900bc 	lw	t9,188(gp)
  40a024:	00000000 	nop
  40a028:	0320f809 	jalr	t9
  40a02c:	00000000 	nop
  40a030:	8fbc0010 	lw	gp,16(sp)
  40a034:	ac500000 	sw	s0,0(v0)
  40a038:	8fbf0020 	lw	ra,32(sp)
  40a03c:	8fb00018 	lw	s0,24(sp)
  40a040:	03e00008 	jr	ra
  40a044:	27bd0028 	addiu	sp,sp,40
	...

0040a050 <__libc_fork>:
  40a050:	3c1c0000 	lui	gp,0x0
  40a054:	279c4a10 	addiu	gp,gp,18960
  40a058:	0399e021 	addu	gp,gp,t9
  40a05c:	27bdffe0 	addiu	sp,sp,-32
  40a060:	afbc0010 	sw	gp,16(sp)
  40a064:	afbf001c 	sw	ra,28(sp)
  40a068:	afbc0018 	sw	gp,24(sp)
  40a06c:	8f9900bc 	lw	t9,188(gp)
  40a070:	00000000 	nop
  40a074:	0320f809 	jalr	t9
  40a078:	00000000 	nop
  40a07c:	8fbc0010 	lw	gp,16(sp)
  40a080:	24030059 	li	v1,89
  40a084:	8fbf001c 	lw	ra,28(sp)
  40a088:	ac430000 	sw	v1,0(v0)
  40a08c:	2402ffff 	li	v0,-1
  40a090:	03e00008 	jr	ra
  40a094:	27bd0020 	addiu	sp,sp,32
	...

0040a0a0 <__libc_write>:
  40a0a0:	3c1c0000 	lui	gp,0x0
  40a0a4:	279c49c0 	addiu	gp,gp,18880
  40a0a8:	0399e021 	addu	gp,gp,t9
  40a0ac:	27bdffd8 	addiu	sp,sp,-40
  40a0b0:	afbc0010 	sw	gp,16(sp)
  40a0b4:	afb1001c 	sw	s1,28(sp)
  40a0b8:	afb00018 	sw	s0,24(sp)
  40a0bc:	afbf0024 	sw	ra,36(sp)
  40a0c0:	afbc0020 	sw	gp,32(sp)
  40a0c4:	00808821 	move	s1,a0
  40a0c8:	00a08021 	move	s0,a1
  40a0cc:	00c01821 	move	v1,a2
  40a0d0:	02202021 	move	a0,s1
  40a0d4:	02002821 	move	a1,s0
  40a0d8:	00603021 	move	a2,v1
  40a0dc:	24020004 	li	v0,4
  40a0e0:	0000000c 	syscall
  40a0e4:	00408021 	move	s0,v0
  40a0e8:	00e01821 	move	v1,a3
  40a0ec:	10600008 	beqz	v1,40a110 <__libc_write+0x70>
  40a0f0:	02001021 	move	v0,s0
  40a0f4:	8f9900bc 	lw	t9,188(gp)
  40a0f8:	00000000 	nop
  40a0fc:	0320f809 	jalr	t9
  40a100:	00000000 	nop
  40a104:	8fbc0010 	lw	gp,16(sp)
  40a108:	ac500000 	sw	s0,0(v0)
  40a10c:	2402ffff 	li	v0,-1
  40a110:	8fbf0024 	lw	ra,36(sp)
  40a114:	8fb1001c 	lw	s1,28(sp)
  40a118:	8fb00018 	lw	s0,24(sp)
  40a11c:	03e00008 	jr	ra
  40a120:	27bd0028 	addiu	sp,sp,40
	...

0040a130 <__libc_open>:
  40a130:	3c1c0000 	lui	gp,0x0
  40a134:	279c4930 	addiu	gp,gp,18736
  40a138:	0399e021 	addu	gp,gp,t9
  40a13c:	27bdffd8 	addiu	sp,sp,-40
  40a140:	afbc0010 	sw	gp,16(sp)
  40a144:	30a20100 	andi	v0,a1,0x100
  40a148:	afb00018 	sw	s0,24(sp)
  40a14c:	afa60030 	sw	a2,48(sp)
  40a150:	afa70034 	sw	a3,52(sp)
  40a154:	afbf0020 	sw	ra,32(sp)
  40a158:	afbc001c 	sw	gp,28(sp)
  40a15c:	00a08021 	move	s0,a1
  40a160:	10400002 	beqz	v0,40a16c <__libc_open+0x3c>
  40a164:	0080c821 	move	t9,a0
  40a168:	8fa30030 	lw	v1,48(sp)
  40a16c:	03202021 	move	a0,t9
  40a170:	02002821 	move	a1,s0
  40a174:	00603021 	move	a2,v1
  40a178:	24020005 	li	v0,5
  40a17c:	0000000c 	syscall
  40a180:	00408021 	move	s0,v0
  40a184:	00e01821 	move	v1,a3
  40a188:	10600008 	beqz	v1,40a1ac <__libc_open+0x7c>
  40a18c:	02001021 	move	v0,s0
  40a190:	8f9900bc 	lw	t9,188(gp)
  40a194:	00000000 	nop
  40a198:	0320f809 	jalr	t9
  40a19c:	00000000 	nop
  40a1a0:	8fbc0010 	lw	gp,16(sp)
  40a1a4:	ac500000 	sw	s0,0(v0)
  40a1a8:	2402ffff 	li	v0,-1
  40a1ac:	8fbf0020 	lw	ra,32(sp)
  40a1b0:	8fb00018 	lw	s0,24(sp)
  40a1b4:	03e00008 	jr	ra
  40a1b8:	27bd0028 	addiu	sp,sp,40

0040a1bc <creat>:
  40a1bc:	3c1c0000 	lui	gp,0x0
  40a1c0:	279c48a4 	addiu	gp,gp,18596
  40a1c4:	0399e021 	addu	gp,gp,t9
  40a1c8:	27bdffe0 	addiu	sp,sp,-32
  40a1cc:	afbc0010 	sw	gp,16(sp)
  40a1d0:	00a03021 	move	a2,a1
  40a1d4:	24050301 	li	a1,769
  40a1d8:	afbf001c 	sw	ra,28(sp)
  40a1dc:	afbc0018 	sw	gp,24(sp)
  40a1e0:	8f99016c 	lw	t9,364(gp)
  40a1e4:	00000000 	nop
  40a1e8:	0320f809 	jalr	t9
  40a1ec:	00000000 	nop
  40a1f0:	8fbc0010 	lw	gp,16(sp)
  40a1f4:	8fbf001c 	lw	ra,28(sp)
  40a1f8:	00000000 	nop
  40a1fc:	03e00008 	jr	ra
  40a200:	27bd0020 	addiu	sp,sp,32
	...

0040a210 <__libc_close>:
  40a210:	3c1c0000 	lui	gp,0x0
  40a214:	279c4850 	addiu	gp,gp,18512
  40a218:	0399e021 	addu	gp,gp,t9
  40a21c:	27bdffd8 	addiu	sp,sp,-40
  40a220:	afbc0010 	sw	gp,16(sp)
  40a224:	afbf0020 	sw	ra,32(sp)
  40a228:	afbc001c 	sw	gp,28(sp)
  40a22c:	afb00018 	sw	s0,24(sp)
  40a230:	00801821 	move	v1,a0
  40a234:	00602021 	move	a0,v1
  40a238:	24020006 	li	v0,6
  40a23c:	0000000c 	syscall
  40a240:	00408021 	move	s0,v0
  40a244:	00e01821 	move	v1,a3
  40a248:	10600008 	beqz	v1,40a26c <__libc_close+0x5c>
  40a24c:	02001021 	move	v0,s0
  40a250:	8f9900bc 	lw	t9,188(gp)
  40a254:	00000000 	nop
  40a258:	0320f809 	jalr	t9
  40a25c:	00000000 	nop
  40a260:	8fbc0010 	lw	gp,16(sp)
  40a264:	ac500000 	sw	s0,0(v0)
  40a268:	2402ffff 	li	v0,-1
  40a26c:	8fbf0020 	lw	ra,32(sp)
  40a270:	8fb00018 	lw	s0,24(sp)
  40a274:	03e00008 	jr	ra
  40a278:	27bd0028 	addiu	sp,sp,40
  40a27c:	00000000 	nop

0040a280 <unlink>:
  40a280:	3c1c0000 	lui	gp,0x0
  40a284:	279c47e0 	addiu	gp,gp,18400
  40a288:	0399e021 	addu	gp,gp,t9
  40a28c:	27bdffd8 	addiu	sp,sp,-40
  40a290:	afbc0010 	sw	gp,16(sp)
  40a294:	afbf0020 	sw	ra,32(sp)
  40a298:	afbc001c 	sw	gp,28(sp)
  40a29c:	afb00018 	sw	s0,24(sp)
  40a2a0:	00801821 	move	v1,a0
  40a2a4:	00602021 	move	a0,v1
  40a2a8:	2402000a 	li	v0,10
  40a2ac:	0000000c 	syscall
  40a2b0:	00408021 	move	s0,v0
  40a2b4:	00e01821 	move	v1,a3
  40a2b8:	10600008 	beqz	v1,40a2dc <unlink+0x5c>
  40a2bc:	02001021 	move	v0,s0
  40a2c0:	8f9900bc 	lw	t9,188(gp)
  40a2c4:	00000000 	nop
  40a2c8:	0320f809 	jalr	t9
  40a2cc:	00000000 	nop
  40a2d0:	8fbc0010 	lw	gp,16(sp)
  40a2d4:	ac500000 	sw	s0,0(v0)
  40a2d8:	2402ffff 	li	v0,-1
  40a2dc:	8fbf0020 	lw	ra,32(sp)
  40a2e0:	8fb00018 	lw	s0,24(sp)
  40a2e4:	03e00008 	jr	ra
  40a2e8:	27bd0028 	addiu	sp,sp,40
  40a2ec:	00000000 	nop

0040a2f0 <time>:
  40a2f0:	3c1c0000 	lui	gp,0x0
  40a2f4:	279c4770 	addiu	gp,gp,18288
  40a2f8:	0399e021 	addu	gp,gp,t9
  40a2fc:	27bdffd8 	addiu	sp,sp,-40
  40a300:	afbc0010 	sw	gp,16(sp)
  40a304:	afbf0020 	sw	ra,32(sp)
  40a308:	afbc001c 	sw	gp,28(sp)
  40a30c:	afb00018 	sw	s0,24(sp)
  40a310:	00801821 	move	v1,a0
  40a314:	00602021 	move	a0,v1
  40a318:	2402000d 	li	v0,13
  40a31c:	0000000c 	syscall
  40a320:	00408021 	move	s0,v0
  40a324:	00e01821 	move	v1,a3
  40a328:	10600008 	beqz	v1,40a34c <time+0x5c>
  40a32c:	02001021 	move	v0,s0
  40a330:	8f9900bc 	lw	t9,188(gp)
  40a334:	00000000 	nop
  40a338:	0320f809 	jalr	t9
  40a33c:	00000000 	nop
  40a340:	8fbc0010 	lw	gp,16(sp)
  40a344:	ac500000 	sw	s0,0(v0)
  40a348:	2402ffff 	li	v0,-1
  40a34c:	8fbf0020 	lw	ra,32(sp)
  40a350:	8fb00018 	lw	s0,24(sp)
  40a354:	03e00008 	jr	ra
  40a358:	27bd0028 	addiu	sp,sp,40
  40a35c:	00000000 	nop

0040a360 <__libc_lseek>:
  40a360:	3c1c0000 	lui	gp,0x0
  40a364:	279c4700 	addiu	gp,gp,18176
  40a368:	0399e021 	addu	gp,gp,t9
  40a36c:	27bdffd8 	addiu	sp,sp,-40
  40a370:	afbc0010 	sw	gp,16(sp)
  40a374:	afb1001c 	sw	s1,28(sp)
  40a378:	afb00018 	sw	s0,24(sp)
  40a37c:	afbf0024 	sw	ra,36(sp)
  40a380:	afbc0020 	sw	gp,32(sp)
  40a384:	00808821 	move	s1,a0
  40a388:	00a08021 	move	s0,a1
  40a38c:	00c01821 	move	v1,a2
  40a390:	02202021 	move	a0,s1
  40a394:	02002821 	move	a1,s0
  40a398:	00603021 	move	a2,v1
  40a39c:	24020013 	li	v0,19
  40a3a0:	0000000c 	syscall
  40a3a4:	00408021 	move	s0,v0
  40a3a8:	00e01821 	move	v1,a3
  40a3ac:	10600008 	beqz	v1,40a3d0 <__libc_lseek+0x70>
  40a3b0:	02001021 	move	v0,s0
  40a3b4:	8f9900bc 	lw	t9,188(gp)
  40a3b8:	00000000 	nop
  40a3bc:	0320f809 	jalr	t9
  40a3c0:	00000000 	nop
  40a3c4:	8fbc0010 	lw	gp,16(sp)
  40a3c8:	ac500000 	sw	s0,0(v0)
  40a3cc:	2402ffff 	li	v0,-1
  40a3d0:	8fbf0024 	lw	ra,36(sp)
  40a3d4:	8fb1001c 	lw	s1,28(sp)
  40a3d8:	8fb00018 	lw	s0,24(sp)
  40a3dc:	03e00008 	jr	ra
  40a3e0:	27bd0028 	addiu	sp,sp,40
	...

0040a3f0 <__libc_getpid>:
  40a3f0:	3c1c0000 	lui	gp,0x0
  40a3f4:	279c4670 	addiu	gp,gp,18032
  40a3f8:	0399e021 	addu	gp,gp,t9
  40a3fc:	27bdffd8 	addiu	sp,sp,-40
  40a400:	afbc0010 	sw	gp,16(sp)
  40a404:	afbf0020 	sw	ra,32(sp)
  40a408:	afbc001c 	sw	gp,28(sp)
  40a40c:	afb00018 	sw	s0,24(sp)
  40a410:	24020014 	li	v0,20
  40a414:	0000000c 	syscall
  40a418:	00408021 	move	s0,v0
  40a41c:	00e01821 	move	v1,a3
  40a420:	10600008 	beqz	v1,40a444 <__libc_getpid+0x54>
  40a424:	02001021 	move	v0,s0
  40a428:	8f9900bc 	lw	t9,188(gp)
  40a42c:	00000000 	nop
  40a430:	0320f809 	jalr	t9
  40a434:	00000000 	nop
  40a438:	8fbc0010 	lw	gp,16(sp)
  40a43c:	ac500000 	sw	s0,0(v0)
  40a440:	2402ffff 	li	v0,-1
  40a444:	8fbf0020 	lw	ra,32(sp)
  40a448:	8fb00018 	lw	s0,24(sp)
  40a44c:	03e00008 	jr	ra
  40a450:	27bd0028 	addiu	sp,sp,40
	...

0040a460 <rename>:
  40a460:	3c1c0000 	lui	gp,0x0
  40a464:	279c4600 	addiu	gp,gp,17920
  40a468:	0399e021 	addu	gp,gp,t9
  40a46c:	27bdffd8 	addiu	sp,sp,-40
  40a470:	afbc0010 	sw	gp,16(sp)
  40a474:	afbf0020 	sw	ra,32(sp)
  40a478:	afbc001c 	sw	gp,28(sp)
  40a47c:	afb00018 	sw	s0,24(sp)
  40a480:	00801821 	move	v1,a0
  40a484:	00a03021 	move	a2,a1
  40a488:	00602021 	move	a0,v1
  40a48c:	00c02821 	move	a1,a2
  40a490:	24020026 	li	v0,38
  40a494:	0000000c 	syscall
  40a498:	00408021 	move	s0,v0
  40a49c:	00e01821 	move	v1,a3
  40a4a0:	10600008 	beqz	v1,40a4c4 <rename+0x64>
  40a4a4:	02001021 	move	v0,s0
  40a4a8:	8f9900bc 	lw	t9,188(gp)
  40a4ac:	00000000 	nop
  40a4b0:	0320f809 	jalr	t9
  40a4b4:	00000000 	nop
  40a4b8:	8fbc0010 	lw	gp,16(sp)
  40a4bc:	ac500000 	sw	s0,0(v0)
  40a4c0:	2402ffff 	li	v0,-1
  40a4c4:	8fbf0020 	lw	ra,32(sp)
  40a4c8:	8fb00018 	lw	s0,24(sp)
  40a4cc:	03e00008 	jr	ra
  40a4d0:	27bd0028 	addiu	sp,sp,40
	...

0040a4e0 <__syscall_ioctl>:
  40a4e0:	3c1c0000 	lui	gp,0x0
  40a4e4:	279c4580 	addiu	gp,gp,17792
  40a4e8:	0399e021 	addu	gp,gp,t9
  40a4ec:	27bdffd8 	addiu	sp,sp,-40
  40a4f0:	afbc0010 	sw	gp,16(sp)
  40a4f4:	afb1001c 	sw	s1,28(sp)
  40a4f8:	afb00018 	sw	s0,24(sp)
  40a4fc:	afbf0024 	sw	ra,36(sp)
  40a500:	afbc0020 	sw	gp,32(sp)
  40a504:	00808821 	move	s1,a0
  40a508:	00a08021 	move	s0,a1
  40a50c:	00c01821 	move	v1,a2
  40a510:	02202021 	move	a0,s1
  40a514:	02002821 	move	a1,s0
  40a518:	00603021 	move	a2,v1
  40a51c:	24020036 	li	v0,54
  40a520:	0000000c 	syscall
  40a524:	00408021 	move	s0,v0
  40a528:	00e01821 	move	v1,a3
  40a52c:	10600008 	beqz	v1,40a550 <__syscall_ioctl+0x70>
  40a530:	02001021 	move	v0,s0
  40a534:	8f9900bc 	lw	t9,188(gp)
  40a538:	00000000 	nop
  40a53c:	0320f809 	jalr	t9
  40a540:	00000000 	nop
  40a544:	8fbc0010 	lw	gp,16(sp)
  40a548:	ac500000 	sw	s0,0(v0)
  40a54c:	2402ffff 	li	v0,-1
  40a550:	8fbf0024 	lw	ra,36(sp)
  40a554:	8fb1001c 	lw	s1,28(sp)
  40a558:	8fb00018 	lw	s0,24(sp)
  40a55c:	03e00008 	jr	ra
  40a560:	27bd0028 	addiu	sp,sp,40

0040a564 <ioctl>:
  40a564:	3c1c0000 	lui	gp,0x0
  40a568:	279c44fc 	addiu	gp,gp,17660
  40a56c:	0399e021 	addu	gp,gp,t9
  40a570:	27bdffe0 	addiu	sp,sp,-32
  40a574:	afbc0010 	sw	gp,16(sp)
  40a578:	afa60028 	sw	a2,40(sp)
  40a57c:	8fa60028 	lw	a2,40(sp)
  40a580:	afbf001c 	sw	ra,28(sp)
  40a584:	afa7002c 	sw	a3,44(sp)
  40a588:	afbc0018 	sw	gp,24(sp)
  40a58c:	8f990240 	lw	t9,576(gp)
  40a590:	00000000 	nop
  40a594:	0320f809 	jalr	t9
  40a598:	00000000 	nop
  40a59c:	8fbc0010 	lw	gp,16(sp)
  40a5a0:	8fbf001c 	lw	ra,28(sp)
  40a5a4:	00000000 	nop
  40a5a8:	03e00008 	jr	ra
  40a5ac:	27bd0020 	addiu	sp,sp,32

0040a5b0 <__syscall_fcntl>:
  40a5b0:	3c1c0000 	lui	gp,0x0
  40a5b4:	279c44b0 	addiu	gp,gp,17584
  40a5b8:	0399e021 	addu	gp,gp,t9
  40a5bc:	27bdffd8 	addiu	sp,sp,-40
  40a5c0:	afbc0010 	sw	gp,16(sp)
  40a5c4:	afb1001c 	sw	s1,28(sp)
  40a5c8:	afb00018 	sw	s0,24(sp)
  40a5cc:	afbf0024 	sw	ra,36(sp)
  40a5d0:	afbc0020 	sw	gp,32(sp)
  40a5d4:	00808821 	move	s1,a0
  40a5d8:	00a08021 	move	s0,a1
  40a5dc:	00c01821 	move	v1,a2
  40a5e0:	02202021 	move	a0,s1
  40a5e4:	02002821 	move	a1,s0
  40a5e8:	00603021 	move	a2,v1
  40a5ec:	24020037 	li	v0,55
  40a5f0:	0000000c 	syscall
  40a5f4:	00408021 	move	s0,v0
  40a5f8:	00e01821 	move	v1,a3
  40a5fc:	10600008 	beqz	v1,40a620 <__syscall_fcntl+0x70>
  40a600:	02001021 	move	v0,s0
  40a604:	8f9900bc 	lw	t9,188(gp)
  40a608:	00000000 	nop
  40a60c:	0320f809 	jalr	t9
  40a610:	00000000 	nop
  40a614:	8fbc0010 	lw	gp,16(sp)
  40a618:	ac500000 	sw	s0,0(v0)
  40a61c:	2402ffff 	li	v0,-1
  40a620:	8fbf0024 	lw	ra,36(sp)
  40a624:	8fb1001c 	lw	s1,28(sp)
  40a628:	8fb00018 	lw	s0,24(sp)
  40a62c:	03e00008 	jr	ra
  40a630:	27bd0028 	addiu	sp,sp,40

0040a634 <__libc_fcntl>:
  40a634:	3c1c0000 	lui	gp,0x0
  40a638:	279c442c 	addiu	gp,gp,17452
  40a63c:	0399e021 	addu	gp,gp,t9
  40a640:	27bdffe0 	addiu	sp,sp,-32
  40a644:	afbc0010 	sw	gp,16(sp)
  40a648:	24a2ffdf 	addiu	v0,a1,-33
  40a64c:	2c420003 	sltiu	v0,v0,3
  40a650:	afa60028 	sw	a2,40(sp)
  40a654:	afa7002c 	sw	a3,44(sp)
  40a658:	afbf001c 	sw	ra,28(sp)
  40a65c:	1040000a 	beqz	v0,40a688 <__libc_fcntl+0x54>
  40a660:	afbc0018 	sw	gp,24(sp)
  40a664:	8f9900bc 	lw	t9,188(gp)
  40a668:	00000000 	nop
  40a66c:	0320f809 	jalr	t9
  40a670:	00000000 	nop
  40a674:	8fbc0010 	lw	gp,16(sp)
  40a678:	24030059 	li	v1,89
  40a67c:	2404ffff 	li	a0,-1
  40a680:	10000008 	b	40a6a4 <__libc_fcntl+0x70>
  40a684:	ac430000 	sw	v1,0(v0)
  40a688:	8fa60028 	lw	a2,40(sp)
  40a68c:	8f990258 	lw	t9,600(gp)
  40a690:	00000000 	nop
  40a694:	0320f809 	jalr	t9
  40a698:	00000000 	nop
  40a69c:	8fbc0010 	lw	gp,16(sp)
  40a6a0:	00402021 	move	a0,v0
  40a6a4:	8fbf001c 	lw	ra,28(sp)
  40a6a8:	00801021 	move	v0,a0
  40a6ac:	03e00008 	jr	ra
  40a6b0:	27bd0020 	addiu	sp,sp,32
	...

0040a6c0 <mmap>:
  40a6c0:	3c1c0000 	lui	gp,0x0
  40a6c4:	279c43a0 	addiu	gp,gp,17312
  40a6c8:	0399e021 	addu	gp,gp,t9
  40a6cc:	27bdffc8 	addiu	sp,sp,-56
  40a6d0:	afbc0010 	sw	gp,16(sp)
  40a6d4:	8fa20048 	lw	v0,72(sp)
  40a6d8:	afb3002c 	sw	s3,44(sp)
  40a6dc:	afb20028 	sw	s2,40(sp)
  40a6e0:	afb10024 	sw	s1,36(sp)
  40a6e4:	afb00020 	sw	s0,32(sp)
  40a6e8:	afbf0034 	sw	ra,52(sp)
  40a6ec:	afbc0030 	sw	gp,48(sp)
  40a6f0:	00809821 	move	s3,a0
  40a6f4:	afa20018 	sw	v0,24(sp)
  40a6f8:	00a09021 	move	s2,a1
  40a6fc:	00c08821 	move	s1,a2
  40a700:	00e08021 	move	s0,a3
  40a704:	02602021 	move	a0,s3
  40a708:	02402821 	move	a1,s2
  40a70c:	02203021 	move	a2,s1
  40a710:	8fa20018 	lw	v0,24(sp)
  40a714:	8fa3004c 	lw	v1,76(sp)
  40a718:	02003821 	move	a3,s0
  40a71c:	27bdffe8 	addiu	sp,sp,-24
  40a720:	afa20010 	sw	v0,16(sp)
  40a724:	afa30014 	sw	v1,20(sp)
  40a728:	2402005a 	li	v0,90
  40a72c:	0000000c 	syscall
  40a730:	00408821 	move	s1,v0
  40a734:	00e08021 	move	s0,a3
  40a738:	27bd0018 	addiu	sp,sp,24
  40a73c:	12000008 	beqz	s0,40a760 <mmap+0xa0>
  40a740:	02201021 	move	v0,s1
  40a744:	8f9900bc 	lw	t9,188(gp)
  40a748:	00000000 	nop
  40a74c:	0320f809 	jalr	t9
  40a750:	00000000 	nop
  40a754:	8fbc0010 	lw	gp,16(sp)
  40a758:	ac510000 	sw	s1,0(v0)
  40a75c:	2402ffff 	li	v0,-1
  40a760:	8fbf0034 	lw	ra,52(sp)
  40a764:	8fb3002c 	lw	s3,44(sp)
  40a768:	8fb20028 	lw	s2,40(sp)
  40a76c:	8fb10024 	lw	s1,36(sp)
  40a770:	8fb00020 	lw	s0,32(sp)
  40a774:	03e00008 	jr	ra
  40a778:	27bd0038 	addiu	sp,sp,56
  40a77c:	00000000 	nop

0040a780 <munmap>:
  40a780:	3c1c0000 	lui	gp,0x0
  40a784:	279c42e0 	addiu	gp,gp,17120
  40a788:	0399e021 	addu	gp,gp,t9
  40a78c:	27bdffd8 	addiu	sp,sp,-40
  40a790:	afbc0010 	sw	gp,16(sp)
  40a794:	afbf0020 	sw	ra,32(sp)
  40a798:	afbc001c 	sw	gp,28(sp)
  40a79c:	afb00018 	sw	s0,24(sp)
  40a7a0:	00801821 	move	v1,a0
  40a7a4:	00a03021 	move	a2,a1
  40a7a8:	00602021 	move	a0,v1
  40a7ac:	00c02821 	move	a1,a2
  40a7b0:	2402005b 	li	v0,91
  40a7b4:	0000000c 	syscall
  40a7b8:	00408021 	move	s0,v0
  40a7bc:	00e01821 	move	v1,a3
  40a7c0:	10600008 	beqz	v1,40a7e4 <munmap+0x64>
  40a7c4:	02001021 	move	v0,s0
  40a7c8:	8f9900bc 	lw	t9,188(gp)
  40a7cc:	00000000 	nop
  40a7d0:	0320f809 	jalr	t9
  40a7d4:	00000000 	nop
  40a7d8:	8fbc0010 	lw	gp,16(sp)
  40a7dc:	ac500000 	sw	s0,0(v0)
  40a7e0:	2402ffff 	li	v0,-1
  40a7e4:	8fbf0020 	lw	ra,32(sp)
  40a7e8:	8fb00018 	lw	s0,24(sp)
  40a7ec:	03e00008 	jr	ra
  40a7f0:	27bd0028 	addiu	sp,sp,40
	...

0040a800 <__socketcall>:
  40a800:	3c1c0000 	lui	gp,0x0
  40a804:	279c4260 	addiu	gp,gp,16992
  40a808:	0399e021 	addu	gp,gp,t9
  40a80c:	27bdffd8 	addiu	sp,sp,-40
  40a810:	afbc0010 	sw	gp,16(sp)
  40a814:	afbf0020 	sw	ra,32(sp)
  40a818:	afbc001c 	sw	gp,28(sp)
  40a81c:	afb00018 	sw	s0,24(sp)
  40a820:	00801821 	move	v1,a0
  40a824:	00a03021 	move	a2,a1
  40a828:	00602021 	move	a0,v1
  40a82c:	00c02821 	move	a1,a2
  40a830:	24020066 	li	v0,102
  40a834:	0000000c 	syscall
  40a838:	00408021 	move	s0,v0
  40a83c:	00e01821 	move	v1,a3
  40a840:	10600008 	beqz	v1,40a864 <__socketcall+0x64>
  40a844:	02001021 	move	v0,s0
  40a848:	8f9900bc 	lw	t9,188(gp)
  40a84c:	00000000 	nop
  40a850:	0320f809 	jalr	t9
  40a854:	00000000 	nop
  40a858:	8fbc0010 	lw	gp,16(sp)
  40a85c:	ac500000 	sw	s0,0(v0)
  40a860:	2402ffff 	li	v0,-1
  40a864:	8fbf0020 	lw	ra,32(sp)
  40a868:	8fb00018 	lw	s0,24(sp)
  40a86c:	03e00008 	jr	ra
  40a870:	27bd0028 	addiu	sp,sp,40
	...

0040a880 <_newselect>:
  40a880:	3c1c0000 	lui	gp,0x0
  40a884:	279c41e0 	addiu	gp,gp,16864
  40a888:	0399e021 	addu	gp,gp,t9
  40a88c:	27bdffc8 	addiu	sp,sp,-56
  40a890:	afbc0010 	sw	gp,16(sp)
  40a894:	8fa20048 	lw	v0,72(sp)
  40a898:	afb20028 	sw	s2,40(sp)
  40a89c:	afb10024 	sw	s1,36(sp)
  40a8a0:	afb00020 	sw	s0,32(sp)
  40a8a4:	afbf0030 	sw	ra,48(sp)
  40a8a8:	afbc002c 	sw	gp,44(sp)
  40a8ac:	00809021 	move	s2,a0
  40a8b0:	afa20018 	sw	v0,24(sp)
  40a8b4:	00a08821 	move	s1,a1
  40a8b8:	00c08021 	move	s0,a2
  40a8bc:	00e01821 	move	v1,a3
  40a8c0:	02402021 	move	a0,s2
  40a8c4:	02202821 	move	a1,s1
  40a8c8:	02003021 	move	a2,s0
  40a8cc:	8fa20018 	lw	v0,24(sp)
  40a8d0:	00603821 	move	a3,v1
  40a8d4:	27bdffe8 	addiu	sp,sp,-24
  40a8d8:	afa20010 	sw	v0,16(sp)
  40a8dc:	2402008e 	li	v0,142
  40a8e0:	0000000c 	syscall
  40a8e4:	00408021 	move	s0,v0
  40a8e8:	00e01821 	move	v1,a3
  40a8ec:	27bd0018 	addiu	sp,sp,24
  40a8f0:	10600008 	beqz	v1,40a914 <_newselect+0x94>
  40a8f4:	02001021 	move	v0,s0
  40a8f8:	8f9900bc 	lw	t9,188(gp)
  40a8fc:	00000000 	nop
  40a900:	0320f809 	jalr	t9
  40a904:	00000000 	nop
  40a908:	8fbc0010 	lw	gp,16(sp)
  40a90c:	ac500000 	sw	s0,0(v0)
  40a910:	2402ffff 	li	v0,-1
  40a914:	8fbf0030 	lw	ra,48(sp)
  40a918:	8fb20028 	lw	s2,40(sp)
  40a91c:	8fb10024 	lw	s1,36(sp)
  40a920:	8fb00020 	lw	s0,32(sp)
  40a924:	03e00008 	jr	ra
  40a928:	27bd0038 	addiu	sp,sp,56
  40a92c:	00000000 	nop

0040a930 <__syscall_rt_sigaction>:
  40a930:	3c1c0000 	lui	gp,0x0
  40a934:	279c4130 	addiu	gp,gp,16688
  40a938:	0399e021 	addu	gp,gp,t9
  40a93c:	27bdffd0 	addiu	sp,sp,-48
  40a940:	afbc0010 	sw	gp,16(sp)
  40a944:	afb20020 	sw	s2,32(sp)
  40a948:	afb1001c 	sw	s1,28(sp)
  40a94c:	afb00018 	sw	s0,24(sp)
  40a950:	afbf0028 	sw	ra,40(sp)
  40a954:	afbc0024 	sw	gp,36(sp)
  40a958:	00809021 	move	s2,a0
  40a95c:	00a08821 	move	s1,a1
  40a960:	00c08021 	move	s0,a2
  40a964:	00e01821 	move	v1,a3
  40a968:	02402021 	move	a0,s2
  40a96c:	02202821 	move	a1,s1
  40a970:	02003021 	move	a2,s0
  40a974:	00603821 	move	a3,v1
  40a978:	240200ae 	li	v0,174
  40a97c:	0000000c 	syscall
  40a980:	00408021 	move	s0,v0
  40a984:	00e01821 	move	v1,a3
  40a988:	10600008 	beqz	v1,40a9ac <__syscall_rt_sigaction+0x7c>
  40a98c:	02001021 	move	v0,s0
  40a990:	8f9900bc 	lw	t9,188(gp)
  40a994:	00000000 	nop
  40a998:	0320f809 	jalr	t9
  40a99c:	00000000 	nop
  40a9a0:	8fbc0010 	lw	gp,16(sp)
  40a9a4:	ac500000 	sw	s0,0(v0)
  40a9a8:	2402ffff 	li	v0,-1
  40a9ac:	8fbf0028 	lw	ra,40(sp)
  40a9b0:	8fb20020 	lw	s2,32(sp)
  40a9b4:	8fb1001c 	lw	s1,28(sp)
  40a9b8:	8fb00018 	lw	s0,24(sp)
  40a9bc:	03e00008 	jr	ra
  40a9c0:	27bd0030 	addiu	sp,sp,48
	...

0040a9d0 <usleep>:
  40a9d0:	3c1c0000 	lui	gp,0x0
  40a9d4:	279c4090 	addiu	gp,gp,16528
  40a9d8:	0399e021 	addu	gp,gp,t9
  40a9dc:	27bdffd8 	addiu	sp,sp,-40
  40a9e0:	afbc0010 	sw	gp,16(sp)
  40a9e4:	3c06431b 	lui	a2,0x431b
  40a9e8:	34c6de83 	ori	a2,a2,0xde83
  40a9ec:	00860019 	multu	a0,a2
  40a9f0:	00803821 	move	a3,a0
  40a9f4:	00002821 	move	a1,zero
  40a9f8:	27a40018 	addiu	a0,sp,24
  40a9fc:	afbf0024 	sw	ra,36(sp)
  40aa00:	afbc0020 	sw	gp,32(sp)
  40aa04:	00003010 	mfhi	a2
  40aa08:	00063482 	srl	a2,a2,0x12
  40aa0c:	00061940 	sll	v1,a2,0x5
  40aa10:	00661823 	subu	v1,v1,a2
  40aa14:	00031180 	sll	v0,v1,0x6
  40aa18:	00431023 	subu	v0,v0,v1
  40aa1c:	000210c0 	sll	v0,v0,0x3
  40aa20:	00461021 	addu	v0,v0,a2
  40aa24:	00021180 	sll	v0,v0,0x6
  40aa28:	00e23823 	subu	a3,a3,v0
  40aa2c:	00071140 	sll	v0,a3,0x5
  40aa30:	00471023 	subu	v0,v0,a3
  40aa34:	00021080 	sll	v0,v0,0x2
  40aa38:	00471021 	addu	v0,v0,a3
  40aa3c:	000210c0 	sll	v0,v0,0x3
  40aa40:	afa2001c 	sw	v0,28(sp)
  40aa44:	afa60018 	sw	a2,24(sp)
  40aa48:	8f99023c 	lw	t9,572(gp)
  40aa4c:	00000000 	nop
  40aa50:	0320f809 	jalr	t9
  40aa54:	00000000 	nop
  40aa58:	8fbc0010 	lw	gp,16(sp)
  40aa5c:	8fbf0024 	lw	ra,36(sp)
  40aa60:	00000000 	nop
  40aa64:	03e00008 	jr	ra
  40aa68:	27bd0028 	addiu	sp,sp,40
  40aa6c:	00000000 	nop
  40aa70:	3c1c0000 	lui	gp,0x0
  40aa74:	279c3ff0 	addiu	gp,gp,16368
  40aa78:	0399e021 	addu	gp,gp,t9
  40aa7c:	8f8a000c 	lw	t2,12(gp)
  40aa80:	00000000 	nop
  40aa84:	254a3ee4 	addiu	t2,t2,16100
  40aa88:	8d4a0000 	lw	t2,0(t2)
  40aa8c:	8f8b01f4 	lw	t3,500(gp)
  40aa90:	00000000 	nop
  40aa94:	8d6b0000 	lw	t3,0(t3)
  40aa98:	00000000 	nop
  40aa9c:	014b102a 	slt	v0,t2,t3
  40aaa0:	8f89000c 	lw	t1,12(gp)
  40aaa4:	00000000 	nop
  40aaa8:	25293ee0 	addiu	t1,t1,16096
  40aaac:	8d290000 	lw	t1,0(t1)
  40aab0:	1040002e 	beqz	v0,40ab6c <usleep+0x19c>
  40aab4:	00806021 	move	t4,a0
  40aab8:	012a102a 	slt	v0,t1,t2
  40aabc:	1040002b 	beqz	v0,40ab6c <usleep+0x19c>
  40aac0:	016a4023 	subu	t0,t3,t2
  40aac4:	01493823 	subu	a3,t2,t1
  40aac8:	00e8102a 	slt	v0,a3,t0
  40aacc:	10400013 	beqz	v0,40ab1c <usleep+0x14c>
  40aad0:	00000000 	nop
  40aad4:	18e0000f 	blez	a3,40ab14 <usleep+0x144>
  40aad8:	00004021 	move	t0,zero
  40aadc:	00091080 	sll	v0,t1,0x2
  40aae0:	004c2821 	addu	a1,v0,t4
  40aae4:	01671023 	subu	v0,t3,a3
  40aae8:	00481021 	addu	v0,v0,t0
  40aaec:	00021080 	sll	v0,v0,0x2
  40aaf0:	004c1021 	addu	v0,v0,t4
  40aaf4:	8ca60000 	lw	a2,0(a1)
  40aaf8:	8c430000 	lw	v1,0(v0)
  40aafc:	25080001 	addiu	t0,t0,1
  40ab00:	0107202a 	slt	a0,t0,a3
  40ab04:	aca30000 	sw	v1,0(a1)
  40ab08:	ac460000 	sw	a2,0(v0)
  40ab0c:	1480fff5 	bnez	a0,40aae4 <usleep+0x114>
  40ab10:	24a50004 	addiu	a1,a1,4
  40ab14:	10000010 	b	40ab58 <usleep+0x188>
  40ab18:	01675823 	subu	t3,t3,a3
  40ab1c:	1900000d 	blez	t0,40ab54 <usleep+0x184>
  40ab20:	000a1080 	sll	v0,t2,0x2
  40ab24:	00091880 	sll	v1,t1,0x2
  40ab28:	004c2021 	addu	a0,v0,t4
  40ab2c:	006c1821 	addu	v1,v1,t4
  40ab30:	01002821 	move	a1,t0
  40ab34:	8c660000 	lw	a2,0(v1)
  40ab38:	8c820000 	lw	v0,0(a0)
  40ab3c:	24a5ffff 	addiu	a1,a1,-1
  40ab40:	ac620000 	sw	v0,0(v1)
  40ab44:	ac860000 	sw	a2,0(a0)
  40ab48:	24630004 	addiu	v1,v1,4
  40ab4c:	14a0fff9 	bnez	a1,40ab34 <usleep+0x164>
  40ab50:	24840004 	addiu	a0,a0,4
  40ab54:	01284821 	addu	t1,t1,t0
  40ab58:	014b102a 	slt	v0,t2,t3
  40ab5c:	10400003 	beqz	v0,40ab6c <usleep+0x19c>
  40ab60:	012a102a 	slt	v0,t1,t2
  40ab64:	1440ffd7 	bnez	v0,40aac4 <usleep+0xf4>
  40ab68:	016a4023 	subu	t0,t3,t2
  40ab6c:	8f8401f4 	lw	a0,500(gp)
  40ab70:	00000000 	nop
  40ab74:	8c840000 	lw	a0,0(a0)
  40ab78:	8f83000c 	lw	v1,12(gp)
  40ab7c:	00000000 	nop
  40ab80:	24633ee4 	addiu	v1,v1,16100
  40ab84:	8c630000 	lw	v1,0(v1)
  40ab88:	8f82000c 	lw	v0,12(gp)
  40ab8c:	00000000 	nop
  40ab90:	24423ee0 	addiu	v0,v0,16096
  40ab94:	8c420000 	lw	v0,0(v0)
  40ab98:	00831823 	subu	v1,a0,v1
  40ab9c:	00431021 	addu	v0,v0,v1
  40aba0:	8f81000c 	lw	at,12(gp)
  40aba4:	00000000 	nop
  40aba8:	24213ee0 	addiu	at,at,16096
  40abac:	ac220000 	sw	v0,0(at)
  40abb0:	8f81000c 	lw	at,12(gp)
  40abb4:	00000000 	nop
  40abb8:	24213ee4 	addiu	at,at,16100
  40abbc:	03e00008 	jr	ra
  40abc0:	ac240000 	sw	a0,0(at)
  40abc4:	3c1c0000 	lui	gp,0x0
  40abc8:	279c3e9c 	addiu	gp,gp,16028
  40abcc:	0399e021 	addu	gp,gp,t9
  40abd0:	27bdffd8 	addiu	sp,sp,-40
  40abd4:	afbc0010 	sw	gp,16(sp)
  40abd8:	8f8201f4 	lw	v0,500(gp)
  40abdc:	00000000 	nop
  40abe0:	8c420000 	lw	v0,0(v0)
  40abe4:	8f81000c 	lw	at,12(gp)
  40abe8:	00000000 	nop
  40abec:	24213ed4 	addiu	at,at,16084
  40abf0:	ac200000 	sw	zero,0(at)
  40abf4:	8f81000c 	lw	at,12(gp)
  40abf8:	00000000 	nop
  40abfc:	24213ee0 	addiu	at,at,16096
  40ac00:	ac220000 	sw	v0,0(at)
  40ac04:	8f81000c 	lw	at,12(gp)
  40ac08:	00000000 	nop
  40ac0c:	24213ee4 	addiu	at,at,16100
  40ac10:	ac220000 	sw	v0,0(at)
  40ac14:	80c30000 	lb	v1,0(a2)
  40ac18:	2402002d 	li	v0,45
  40ac1c:	afb00018 	sw	s0,24(sp)
  40ac20:	afbf0020 	sw	ra,32(sp)
  40ac24:	afbc001c 	sw	gp,28(sp)
  40ac28:	14620004 	bne	v1,v0,40ac3c <usleep+0x26c>
  40ac2c:	00c08021 	move	s0,a2
  40ac30:	24d00001 	addiu	s0,a2,1
  40ac34:	10000017 	b	40ac94 <usleep+0x2c4>
  40ac38:	24020002 	li	v0,2
  40ac3c:	2402002b 	li	v0,43
  40ac40:	8f84000c 	lw	a0,12(gp)
  40ac44:	00000000 	nop
  40ac48:	24840770 	addiu	a0,a0,1904
  40ac4c:	14620003 	bne	v1,v0,40ac5c <usleep+0x28c>
  40ac50:	00000000 	nop
  40ac54:	10000008 	b	40ac78 <usleep+0x2a8>
  40ac58:	24d00001 	addiu	s0,a2,1
  40ac5c:	8f99031c 	lw	t9,796(gp)
  40ac60:	00000000 	nop
  40ac64:	0320f809 	jalr	t9
  40ac68:	00000000 	nop
  40ac6c:	8fbc0010 	lw	gp,16(sp)
  40ac70:	10400007 	beqz	v0,40ac90 <usleep+0x2c0>
  40ac74:	00000000 	nop
  40ac78:	8f81000c 	lw	at,12(gp)
  40ac7c:	00000000 	nop
  40ac80:	24213edc 	addiu	at,at,16092
  40ac84:	ac200000 	sw	zero,0(at)
  40ac88:	10000007 	b	40aca8 <usleep+0x2d8>
  40ac8c:	02001021 	move	v0,s0
  40ac90:	24020001 	li	v0,1
  40ac94:	8f81000c 	lw	at,12(gp)
  40ac98:	00000000 	nop
  40ac9c:	24213edc 	addiu	at,at,16092
  40aca0:	ac220000 	sw	v0,0(at)
  40aca4:	02001021 	move	v0,s0
  40aca8:	8fbf0020 	lw	ra,32(sp)
  40acac:	8fb00018 	lw	s0,24(sp)
  40acb0:	03e00008 	jr	ra
  40acb4:	27bd0028 	addiu	sp,sp,40

0040acb8 <_getopt_internal>:
  40acb8:	3c1c0000 	lui	gp,0x0
  40acbc:	279c3da8 	addiu	gp,gp,15784
  40acc0:	0399e021 	addu	gp,gp,t9
  40acc4:	27bdffa0 	addiu	sp,sp,-96
  40acc8:	afbc0018 	sw	gp,24(sp)
  40accc:	afb7004c 	sw	s7,76(sp)
  40acd0:	afb40040 	sw	s4,64(sp)
  40acd4:	afb3003c 	sw	s3,60(sp)
  40acd8:	afbf0058 	sw	ra,88(sp)
  40acdc:	afbe0054 	sw	s8,84(sp)
  40ace0:	afbc0050 	sw	gp,80(sp)
  40ace4:	afb60048 	sw	s6,72(sp)
  40ace8:	afb50044 	sw	s5,68(sp)
  40acec:	afb20038 	sw	s2,56(sp)
  40acf0:	afb10034 	sw	s1,52(sp)
  40acf4:	afb00030 	sw	s0,48(sp)
  40acf8:	afa60068 	sw	a2,104(sp)
  40acfc:	80c30000 	lb	v1,0(a2)
  40ad00:	2402003a 	li	v0,58
  40ad04:	00e09821 	move	s3,a3
  40ad08:	afa40060 	sw	a0,96(sp)
  40ad0c:	8f9702c0 	lw	s7,704(gp)
  40ad10:	00000000 	nop
  40ad14:	8ef70000 	lw	s7,0(s7)
  40ad18:	14620002 	bne	v1,v0,40ad24 <_getopt_internal+0x6c>
  40ad1c:	00a0a021 	move	s4,a1
  40ad20:	0000b821 	move	s7,zero
  40ad24:	8fa20060 	lw	v0,96(sp)
  40ad28:	00000000 	nop
  40ad2c:	18400313 	blez	v0,40b97c <_getopt_internal+0xcc4>
  40ad30:	2407ffff 	li	a3,-1
  40ad34:	8f8201f4 	lw	v0,500(gp)
  40ad38:	00000000 	nop
  40ad3c:	8c420000 	lw	v0,0(v0)
  40ad40:	8f8102cc 	lw	at,716(gp)
  40ad44:	00000000 	nop
  40ad48:	ac200000 	sw	zero,0(at)
  40ad4c:	1040000a 	beqz	v0,40ad78 <_getopt_internal+0xc0>
  40ad50:	24020001 	li	v0,1
  40ad54:	8f82000c 	lw	v0,12(gp)
  40ad58:	00000000 	nop
  40ad5c:	24423ed8 	addiu	v0,v0,16088
  40ad60:	8c420000 	lw	v0,0(v0)
  40ad64:	00000000 	nop
  40ad68:	14400013 	bnez	v0,40adb8 <_getopt_internal+0x100>
  40ad6c:	00000000 	nop
  40ad70:	10000004 	b	40ad84 <_getopt_internal+0xcc>
  40ad74:	00000000 	nop
  40ad78:	8f8101f4 	lw	at,500(gp)
  40ad7c:	00000000 	nop
  40ad80:	ac220000 	sw	v0,0(at)
  40ad84:	8f99000c 	lw	t9,12(gp)
  40ad88:	00000000 	nop
  40ad8c:	2739abc4 	addiu	t9,t9,-21564
  40ad90:	00000000 	nop
  40ad94:	0320f809 	jalr	t9
  40ad98:	00000000 	nop
  40ad9c:	8fbc0018 	lw	gp,24(sp)
  40ada0:	afa20068 	sw	v0,104(sp)
  40ada4:	24020001 	li	v0,1
  40ada8:	8f81000c 	lw	at,12(gp)
  40adac:	00000000 	nop
  40adb0:	24213ed8 	addiu	at,at,16088
  40adb4:	ac220000 	sw	v0,0(at)
  40adb8:	8f82000c 	lw	v0,12(gp)
  40adbc:	00000000 	nop
  40adc0:	24423ed4 	addiu	v0,v0,16084
  40adc4:	8c420000 	lw	v0,0(v0)
  40adc8:	00000000 	nop
  40adcc:	10400005 	beqz	v0,40ade4 <_getopt_internal+0x12c>
  40add0:	00000000 	nop
  40add4:	80420000 	lb	v0,0(v0)
  40add8:	00000000 	nop
  40addc:	144000d1 	bnez	v0,40b124 <_getopt_internal+0x46c>
  40ade0:	00000000 	nop
  40ade4:	8f8401f4 	lw	a0,500(gp)
  40ade8:	00000000 	nop
  40adec:	8c840000 	lw	a0,0(a0)
  40adf0:	8f82000c 	lw	v0,12(gp)
  40adf4:	00000000 	nop
  40adf8:	24423ee4 	addiu	v0,v0,16100
  40adfc:	8c420000 	lw	v0,0(v0)
  40ae00:	00000000 	nop
  40ae04:	0082102a 	slt	v0,a0,v0
  40ae08:	10400005 	beqz	v0,40ae20 <_getopt_internal+0x168>
  40ae0c:	00000000 	nop
  40ae10:	8f81000c 	lw	at,12(gp)
  40ae14:	00000000 	nop
  40ae18:	24213ee4 	addiu	at,at,16100
  40ae1c:	ac240000 	sw	a0,0(at)
  40ae20:	8f82000c 	lw	v0,12(gp)
  40ae24:	00000000 	nop
  40ae28:	24423ee0 	addiu	v0,v0,16096
  40ae2c:	8c420000 	lw	v0,0(v0)
  40ae30:	00000000 	nop
  40ae34:	0082102a 	slt	v0,a0,v0
  40ae38:	10400005 	beqz	v0,40ae50 <_getopt_internal+0x198>
  40ae3c:	00000000 	nop
  40ae40:	8f81000c 	lw	at,12(gp)
  40ae44:	00000000 	nop
  40ae48:	24213ee0 	addiu	at,at,16096
  40ae4c:	ac240000 	sw	a0,0(at)
  40ae50:	8f83000c 	lw	v1,12(gp)
  40ae54:	00000000 	nop
  40ae58:	24633edc 	addiu	v1,v1,16092
  40ae5c:	8c630000 	lw	v1,0(v1)
  40ae60:	24020001 	li	v0,1
  40ae64:	14620038 	bne	v1,v0,40af48 <_getopt_internal+0x290>
  40ae68:	00000000 	nop
  40ae6c:	8f83000c 	lw	v1,12(gp)
  40ae70:	00000000 	nop
  40ae74:	24633ee0 	addiu	v1,v1,16096
  40ae78:	8c630000 	lw	v1,0(v1)
  40ae7c:	8f82000c 	lw	v0,12(gp)
  40ae80:	00000000 	nop
  40ae84:	24423ee4 	addiu	v0,v0,16100
  40ae88:	8c420000 	lw	v0,0(v0)
  40ae8c:	00000000 	nop
  40ae90:	1062000c 	beq	v1,v0,40aec4 <_getopt_internal+0x20c>
  40ae94:	00000000 	nop
  40ae98:	10440014 	beq	v0,a0,40aeec <_getopt_internal+0x234>
  40ae9c:	02802021 	move	a0,s4
  40aea0:	8f99000c 	lw	t9,12(gp)
  40aea4:	00000000 	nop
  40aea8:	2739aa70 	addiu	t9,t9,-21904
  40aeac:	00000000 	nop
  40aeb0:	0320f809 	jalr	t9
  40aeb4:	00000000 	nop
  40aeb8:	8fbc0018 	lw	gp,24(sp)
  40aebc:	1000000b 	b	40aeec <_getopt_internal+0x234>
  40aec0:	00000000 	nop
  40aec4:	10640009 	beq	v1,a0,40aeec <_getopt_internal+0x234>
  40aec8:	00000000 	nop
  40aecc:	8f81000c 	lw	at,12(gp)
  40aed0:	00000000 	nop
  40aed4:	24213ee0 	addiu	at,at,16096
  40aed8:	10000004 	b	40aeec <_getopt_internal+0x234>
  40aedc:	ac240000 	sw	a0,0(at)
  40aee0:	8f8101f4 	lw	at,500(gp)
  40aee4:	00000000 	nop
  40aee8:	ac260000 	sw	a2,0(at)
  40aeec:	8f8401f4 	lw	a0,500(gp)
  40aef0:	00000000 	nop
  40aef4:	8c840000 	lw	a0,0(a0)
  40aef8:	8fa50060 	lw	a1,96(sp)
  40aefc:	00041080 	sll	v0,a0,0x2
  40af00:	00541821 	addu	v1,v0,s4
  40af04:	0085102a 	slt	v0,a0,a1
  40af08:	1040000b 	beqz	v0,40af38 <_getopt_internal+0x280>
  40af0c:	24860001 	addiu	a2,a0,1
  40af10:	8c650000 	lw	a1,0(v1)
  40af14:	2402002d 	li	v0,45
  40af18:	80a30000 	lb	v1,0(a1)
  40af1c:	00000000 	nop
  40af20:	1462ffef 	bne	v1,v0,40aee0 <_getopt_internal+0x228>
  40af24:	00000000 	nop
  40af28:	80a20001 	lb	v0,1(a1)
  40af2c:	00000000 	nop
  40af30:	1040ffeb 	beqz	v0,40aee0 <_getopt_internal+0x228>
  40af34:	00000000 	nop
  40af38:	8f81000c 	lw	at,12(gp)
  40af3c:	00000000 	nop
  40af40:	24213ee4 	addiu	at,at,16100
  40af44:	ac240000 	sw	a0,0(at)
  40af48:	8f9001f4 	lw	s0,500(gp)
  40af4c:	00000000 	nop
  40af50:	8e100000 	lw	s0,0(s0)
  40af54:	8fa20060 	lw	v0,96(sp)
  40af58:	00000000 	nop
  40af5c:	12020030 	beq	s0,v0,40b020 <_getopt_internal+0x368>
  40af60:	00101080 	sll	v0,s0,0x2
  40af64:	00541021 	addu	v0,v0,s4
  40af68:	8c440000 	lw	a0,0(v0)
  40af6c:	8f85000c 	lw	a1,12(gp)
  40af70:	00000000 	nop
  40af74:	24a50780 	addiu	a1,a1,1920
  40af78:	8f990130 	lw	t9,304(gp)
  40af7c:	00000000 	nop
  40af80:	0320f809 	jalr	t9
  40af84:	00000000 	nop
  40af88:	8fbc0018 	lw	gp,24(sp)
  40af8c:	14400024 	bnez	v0,40b020 <_getopt_internal+0x368>
  40af90:	26030001 	addiu	v1,s0,1
  40af94:	8f84000c 	lw	a0,12(gp)
  40af98:	00000000 	nop
  40af9c:	24843ee4 	addiu	a0,a0,16100
  40afa0:	8c840000 	lw	a0,0(a0)
  40afa4:	8f82000c 	lw	v0,12(gp)
  40afa8:	00000000 	nop
  40afac:	24423ee0 	addiu	v0,v0,16096
  40afb0:	8c420000 	lw	v0,0(v0)
  40afb4:	8f8101f4 	lw	at,500(gp)
  40afb8:	00000000 	nop
  40afbc:	1044000c 	beq	v0,a0,40aff0 <_getopt_internal+0x338>
  40afc0:	ac230000 	sw	v1,0(at)
  40afc4:	1083000e 	beq	a0,v1,40b000 <_getopt_internal+0x348>
  40afc8:	02802021 	move	a0,s4
  40afcc:	8f99000c 	lw	t9,12(gp)
  40afd0:	00000000 	nop
  40afd4:	2739aa70 	addiu	t9,t9,-21904
  40afd8:	00000000 	nop
  40afdc:	0320f809 	jalr	t9
  40afe0:	00000000 	nop
  40afe4:	8fbc0018 	lw	gp,24(sp)
  40afe8:	10000005 	b	40b000 <_getopt_internal+0x348>
  40afec:	00000000 	nop
  40aff0:	8f81000c 	lw	at,12(gp)
  40aff4:	00000000 	nop
  40aff8:	24213ee0 	addiu	at,at,16096
  40affc:	ac230000 	sw	v1,0(at)
  40b000:	8fa30060 	lw	v1,96(sp)
  40b004:	8f81000c 	lw	at,12(gp)
  40b008:	00000000 	nop
  40b00c:	24213ee4 	addiu	at,at,16100
  40b010:	ac230000 	sw	v1,0(at)
  40b014:	8f8101f4 	lw	at,500(gp)
  40b018:	00000000 	nop
  40b01c:	ac230000 	sw	v1,0(at)
  40b020:	8f8501f4 	lw	a1,500(gp)
  40b024:	00000000 	nop
  40b028:	8ca50000 	lw	a1,0(a1)
  40b02c:	8fa40060 	lw	a0,96(sp)
  40b030:	00000000 	nop
  40b034:	14a40011 	bne	a1,a0,40b07c <_getopt_internal+0x3c4>
  40b038:	00051080 	sll	v0,a1,0x2
  40b03c:	8f83000c 	lw	v1,12(gp)
  40b040:	00000000 	nop
  40b044:	24633ee0 	addiu	v1,v1,16096
  40b048:	8c630000 	lw	v1,0(v1)
  40b04c:	8f82000c 	lw	v0,12(gp)
  40b050:	00000000 	nop
  40b054:	24423ee4 	addiu	v0,v0,16100
  40b058:	8c420000 	lw	v0,0(v0)
  40b05c:	00000000 	nop
  40b060:	10620004 	beq	v1,v0,40b074 <_getopt_internal+0x3bc>
  40b064:	00000000 	nop
  40b068:	8f8101f4 	lw	at,500(gp)
  40b06c:	00000000 	nop
  40b070:	ac230000 	sw	v1,0(at)
  40b074:	10000241 	b	40b97c <_getopt_internal+0xcc4>
  40b078:	2407ffff 	li	a3,-1
  40b07c:	00541021 	addu	v0,v0,s4
  40b080:	8c440000 	lw	a0,0(v0)
  40b084:	2402002d 	li	v0,45
  40b088:	80860000 	lb	a2,0(a0)
  40b08c:	00000000 	nop
  40b090:	14c20005 	bne	a2,v0,40b0a8 <_getopt_internal+0x3f0>
  40b094:	00000000 	nop
  40b098:	80830001 	lb	v1,1(a0)
  40b09c:	00000000 	nop
  40b0a0:	14600015 	bnez	v1,40b0f8 <_getopt_internal+0x440>
  40b0a4:	00000000 	nop
  40b0a8:	8f82000c 	lw	v0,12(gp)
  40b0ac:	00000000 	nop
  40b0b0:	24423edc 	addiu	v0,v0,16092
  40b0b4:	8c420000 	lw	v0,0(v0)
  40b0b8:	00000000 	nop
  40b0bc:	1040022f 	beqz	v0,40b97c <_getopt_internal+0xcc4>
  40b0c0:	2407ffff 	li	a3,-1
  40b0c4:	24a20001 	addiu	v0,a1,1
  40b0c8:	8f8102cc 	lw	at,716(gp)
  40b0cc:	00000000 	nop
  40b0d0:	ac240000 	sw	a0,0(at)
  40b0d4:	8f8101f4 	lw	at,500(gp)
  40b0d8:	00000000 	nop
  40b0dc:	ac220000 	sw	v0,0(at)
  40b0e0:	10000226 	b	40b97c <_getopt_internal+0xcc4>
  40b0e4:	24070001 	li	a3,1
  40b0e8:	02009021 	move	s2,s0
  40b0ec:	02a0f021 	move	s8,s5
  40b0f0:	10000075 	b	40b2c8 <_getopt_internal+0x610>
  40b0f4:	afa50020 	sw	a1,32(sp)
  40b0f8:	12600004 	beqz	s3,40b10c <_getopt_internal+0x454>
  40b0fc:	00001021 	move	v0,zero
  40b100:	14660003 	bne	v1,a2,40b110 <_getopt_internal+0x458>
  40b104:	00821021 	addu	v0,a0,v0
  40b108:	24020001 	li	v0,1
  40b10c:	00821021 	addu	v0,a0,v0
  40b110:	24420001 	addiu	v0,v0,1
  40b114:	8f81000c 	lw	at,12(gp)
  40b118:	00000000 	nop
  40b11c:	24213ed4 	addiu	at,at,16084
  40b120:	ac220000 	sw	v0,0(at)
  40b124:	12600192 	beqz	s3,40b770 <_getopt_internal+0xab8>
  40b128:	00000000 	nop
  40b12c:	8f9601f4 	lw	s6,500(gp)
  40b130:	00000000 	nop
  40b134:	8ed60000 	lw	s6,0(s6)
  40b138:	00000000 	nop
  40b13c:	00161080 	sll	v0,s6,0x2
  40b140:	00541021 	addu	v0,v0,s4
  40b144:	8c430000 	lw	v1,0(v0)
  40b148:	2402002d 	li	v0,45
  40b14c:	80650001 	lb	a1,1(v1)
  40b150:	00000000 	nop
  40b154:	10a20011 	beq	a1,v0,40b19c <_getopt_internal+0x4e4>
  40b158:	00000000 	nop
  40b15c:	8fa20074 	lw	v0,116(sp)
  40b160:	00000000 	nop
  40b164:	10400182 	beqz	v0,40b770 <_getopt_internal+0xab8>
  40b168:	00000000 	nop
  40b16c:	80620002 	lb	v0,2(v1)
  40b170:	00000000 	nop
  40b174:	14400009 	bnez	v0,40b19c <_getopt_internal+0x4e4>
  40b178:	00000000 	nop
  40b17c:	8fa40068 	lw	a0,104(sp)
  40b180:	8f990064 	lw	t9,100(gp)
  40b184:	00000000 	nop
  40b188:	0320f809 	jalr	t9
  40b18c:	00000000 	nop
  40b190:	8fbc0018 	lw	gp,24(sp)
  40b194:	14400176 	bnez	v0,40b770 <_getopt_internal+0xab8>
  40b198:	00000000 	nop
  40b19c:	8f91000c 	lw	s1,12(gp)
  40b1a0:	00000000 	nop
  40b1a4:	26313ed4 	addiu	s1,s1,16084
  40b1a8:	8e310000 	lw	s1,0(s1)
  40b1ac:	00009021 	move	s2,zero
  40b1b0:	82230000 	lb	v1,0(s1)
  40b1b4:	241effff 	li	s8,-1
  40b1b8:	afa00020 	sw	zero,32(sp)
  40b1bc:	afa00024 	sw	zero,36(sp)
  40b1c0:	1060000b 	beqz	v1,40b1f0 <_getopt_internal+0x538>
  40b1c4:	afb10028 	sw	s1,40(sp)
  40b1c8:	2402003d 	li	v0,61
  40b1cc:	10620008 	beq	v1,v0,40b1f0 <_getopt_internal+0x538>
  40b1d0:	00000000 	nop
  40b1d4:	26310001 	addiu	s1,s1,1
  40b1d8:	82230000 	lb	v1,0(s1)
  40b1dc:	00000000 	nop
  40b1e0:	10600003 	beqz	v1,40b1f0 <_getopt_internal+0x538>
  40b1e4:	2402003d 	li	v0,61
  40b1e8:	1462fffa 	bne	v1,v0,40b1d4 <_getopt_internal+0x51c>
  40b1ec:	00000000 	nop
  40b1f0:	8e620000 	lw	v0,0(s3)
  40b1f4:	02608021 	move	s0,s3
  40b1f8:	10400107 	beqz	v0,40b618 <_getopt_internal+0x960>
  40b1fc:	0000a821 	move	s5,zero
  40b200:	8fa30028 	lw	v1,40(sp)
  40b204:	8e040000 	lw	a0,0(s0)
  40b208:	02239823 	subu	s3,s1,v1
  40b20c:	00602821 	move	a1,v1
  40b210:	02603021 	move	a2,s3
  40b214:	8f9901c8 	lw	t9,456(gp)
  40b218:	00000000 	nop
  40b21c:	0320f809 	jalr	t9
  40b220:	00000000 	nop
  40b224:	8fbc0018 	lw	gp,24(sp)
  40b228:	14400022 	bnez	v0,40b2b4 <_getopt_internal+0x5fc>
  40b22c:	00000000 	nop
  40b230:	8e040000 	lw	a0,0(s0)
  40b234:	8f99007c 	lw	t9,124(gp)
  40b238:	00000000 	nop
  40b23c:	0320f809 	jalr	t9
  40b240:	00000000 	nop
  40b244:	8fbc0018 	lw	gp,24(sp)
  40b248:	1262ffa7 	beq	s3,v0,40b0e8 <_getopt_internal+0x430>
  40b24c:	24050001 	li	a1,1
  40b250:	16400004 	bnez	s2,40b264 <_getopt_internal+0x5ac>
  40b254:	00000000 	nop
  40b258:	02009021 	move	s2,s0
  40b25c:	10000015 	b	40b2b4 <_getopt_internal+0x5fc>
  40b260:	02a0f021 	move	s8,s5
  40b264:	8fa40074 	lw	a0,116(sp)
  40b268:	00000000 	nop
  40b26c:	14800010 	bnez	a0,40b2b0 <_getopt_internal+0x5f8>
  40b270:	24050001 	li	a1,1
  40b274:	8e030004 	lw	v1,4(s0)
  40b278:	8e420004 	lw	v0,4(s2)
  40b27c:	00000000 	nop
  40b280:	1443000b 	bne	v0,v1,40b2b0 <_getopt_internal+0x5f8>
  40b284:	00000000 	nop
  40b288:	8e030008 	lw	v1,8(s0)
  40b28c:	8e420008 	lw	v0,8(s2)
  40b290:	00000000 	nop
  40b294:	14430006 	bne	v0,v1,40b2b0 <_getopt_internal+0x5f8>
  40b298:	00000000 	nop
  40b29c:	8e03000c 	lw	v1,12(s0)
  40b2a0:	8e42000c 	lw	v0,12(s2)
  40b2a4:	00000000 	nop
  40b2a8:	10430002 	beq	v0,v1,40b2b4 <_getopt_internal+0x5fc>
  40b2ac:	00000000 	nop
  40b2b0:	afa50024 	sw	a1,36(sp)
  40b2b4:	26100010 	addiu	s0,s0,16
  40b2b8:	8e020000 	lw	v0,0(s0)
  40b2bc:	00000000 	nop
  40b2c0:	1440ffcf 	bnez	v0,40b200 <_getopt_internal+0x548>
  40b2c4:	26b50001 	addiu	s5,s5,1
  40b2c8:	8fa20024 	lw	v0,36(sp)
  40b2cc:	00000000 	nop
  40b2d0:	10400030 	beqz	v0,40b394 <_getopt_internal+0x6dc>
  40b2d4:	00000000 	nop
  40b2d8:	8fa30020 	lw	v1,32(sp)
  40b2dc:	00000000 	nop
  40b2e0:	1460002c 	bnez	v1,40b394 <_getopt_internal+0x6dc>
  40b2e4:	00000000 	nop
  40b2e8:	12e00010 	beqz	s7,40b32c <_getopt_internal+0x674>
  40b2ec:	00161080 	sll	v0,s6,0x2
  40b2f0:	00541021 	addu	v0,v0,s4
  40b2f4:	8e860000 	lw	a2,0(s4)
  40b2f8:	8c470000 	lw	a3,0(v0)
  40b2fc:	8f840110 	lw	a0,272(gp)
  40b300:	00000000 	nop
  40b304:	8c840000 	lw	a0,0(a0)
  40b308:	8f85000c 	lw	a1,12(gp)
  40b30c:	00000000 	nop
  40b310:	24a50784 	addiu	a1,a1,1924
  40b314:	8f990224 	lw	t9,548(gp)
  40b318:	00000000 	nop
  40b31c:	0320f809 	jalr	t9
  40b320:	00000000 	nop
  40b324:	8fbc0018 	lw	gp,24(sp)
  40b328:	00000000 	nop
  40b32c:	8f90000c 	lw	s0,12(gp)
  40b330:	00000000 	nop
  40b334:	26103ed4 	addiu	s0,s0,16084
  40b338:	8e100000 	lw	s0,0(s0)
  40b33c:	00000000 	nop
  40b340:	02002021 	move	a0,s0
  40b344:	8f99007c 	lw	t9,124(gp)
  40b348:	00000000 	nop
  40b34c:	0320f809 	jalr	t9
  40b350:	00000000 	nop
  40b354:	8fbc0018 	lw	gp,24(sp)
  40b358:	02028021 	addu	s0,s0,v0
  40b35c:	8f8201f4 	lw	v0,500(gp)
  40b360:	00000000 	nop
  40b364:	8c420000 	lw	v0,0(v0)
  40b368:	00000000 	nop
  40b36c:	24420001 	addiu	v0,v0,1
  40b370:	8f81000c 	lw	at,12(gp)
  40b374:	00000000 	nop
  40b378:	24213ed4 	addiu	at,at,16084
  40b37c:	ac300000 	sw	s0,0(at)
  40b380:	8f8101f4 	lw	at,500(gp)
  40b384:	00000000 	nop
  40b388:	ac220000 	sw	v0,0(at)
  40b38c:	100000f4 	b	40b760 <_getopt_internal+0xaa8>
  40b390:	2407003f 	li	a3,63
  40b394:	124000a0 	beqz	s2,40b618 <_getopt_internal+0x960>
  40b398:	26c30001 	addiu	v1,s6,1
  40b39c:	8f8101f4 	lw	at,500(gp)
  40b3a0:	00000000 	nop
  40b3a4:	ac230000 	sw	v1,0(at)
  40b3a8:	82220000 	lb	v0,0(s1)
  40b3ac:	8e440004 	lw	a0,4(s2)
  40b3b0:	10400041 	beqz	v0,40b4b8 <_getopt_internal+0x800>
  40b3b4:	24020001 	li	v0,1
  40b3b8:	10800005 	beqz	a0,40b3d0 <_getopt_internal+0x718>
  40b3bc:	26220001 	addiu	v0,s1,1
  40b3c0:	8f8102cc 	lw	at,716(gp)
  40b3c4:	00000000 	nop
  40b3c8:	10000078 	b	40b5ac <_getopt_internal+0x8f4>
  40b3cc:	ac220000 	sw	v0,0(at)
  40b3d0:	12e00023 	beqz	s7,40b460 <_getopt_internal+0x7a8>
  40b3d4:	00031080 	sll	v0,v1,0x2
  40b3d8:	00541021 	addu	v0,v0,s4
  40b3dc:	8c45fffc 	lw	a1,-4(v0)
  40b3e0:	2402002d 	li	v0,45
  40b3e4:	80a30001 	lb	v1,1(a1)
  40b3e8:	8f840110 	lw	a0,272(gp)
  40b3ec:	00000000 	nop
  40b3f0:	8c840000 	lw	a0,0(a0)
  40b3f4:	1462000d 	bne	v1,v0,40b42c <_getopt_internal+0x774>
  40b3f8:	00000000 	nop
  40b3fc:	8e860000 	lw	a2,0(s4)
  40b400:	8e470000 	lw	a3,0(s2)
  40b404:	8f85000c 	lw	a1,12(gp)
  40b408:	00000000 	nop
  40b40c:	24a507a4 	addiu	a1,a1,1956
  40b410:	8f990224 	lw	t9,548(gp)
  40b414:	00000000 	nop
  40b418:	0320f809 	jalr	t9
  40b41c:	00000000 	nop
  40b420:	8fbc0018 	lw	gp,24(sp)
  40b424:	1000000e 	b	40b460 <_getopt_internal+0x7a8>
  40b428:	00000000 	nop
  40b42c:	80a70000 	lb	a3,0(a1)
  40b430:	8e860000 	lw	a2,0(s4)
  40b434:	8e420000 	lw	v0,0(s2)
  40b438:	8f85000c 	lw	a1,12(gp)
  40b43c:	00000000 	nop
  40b440:	24a507d8 	addiu	a1,a1,2008
  40b444:	afa20010 	sw	v0,16(sp)
  40b448:	8f990224 	lw	t9,548(gp)
  40b44c:	00000000 	nop
  40b450:	0320f809 	jalr	t9
  40b454:	00000000 	nop
  40b458:	8fbc0018 	lw	gp,24(sp)
  40b45c:	00000000 	nop
  40b460:	8f90000c 	lw	s0,12(gp)
  40b464:	00000000 	nop
  40b468:	26103ed4 	addiu	s0,s0,16084
  40b46c:	8e100000 	lw	s0,0(s0)
  40b470:	00000000 	nop
  40b474:	02002021 	move	a0,s0
  40b478:	8f99007c 	lw	t9,124(gp)
  40b47c:	00000000 	nop
  40b480:	0320f809 	jalr	t9
  40b484:	00000000 	nop
  40b488:	8fbc0018 	lw	gp,24(sp)
  40b48c:	02028021 	addu	s0,s0,v0
  40b490:	8f81000c 	lw	at,12(gp)
  40b494:	00000000 	nop
  40b498:	24213ed4 	addiu	at,at,16084
  40b49c:	ac300000 	sw	s0,0(at)
  40b4a0:	8e42000c 	lw	v0,12(s2)
  40b4a4:	8f810104 	lw	at,260(gp)
  40b4a8:	00000000 	nop
  40b4ac:	ac220000 	sw	v0,0(at)
  40b4b0:	10000132 	b	40b97c <_getopt_internal+0xcc4>
  40b4b4:	2407003f 	li	a3,63
  40b4b8:	1482003c 	bne	a0,v0,40b5ac <_getopt_internal+0x8f4>
  40b4bc:	00000000 	nop
  40b4c0:	8fa40060 	lw	a0,96(sp)
  40b4c4:	00000000 	nop
  40b4c8:	0064102a 	slt	v0,v1,a0
  40b4cc:	1040000b 	beqz	v0,40b4fc <_getopt_internal+0x844>
  40b4d0:	00031080 	sll	v0,v1,0x2
  40b4d4:	00541021 	addu	v0,v0,s4
  40b4d8:	8c420000 	lw	v0,0(v0)
  40b4dc:	26c30002 	addiu	v1,s6,2
  40b4e0:	8f8102cc 	lw	at,716(gp)
  40b4e4:	00000000 	nop
  40b4e8:	ac220000 	sw	v0,0(at)
  40b4ec:	8f8101f4 	lw	at,500(gp)
  40b4f0:	00000000 	nop
  40b4f4:	1000002d 	b	40b5ac <_getopt_internal+0x8f4>
  40b4f8:	ac230000 	sw	v1,0(at)
  40b4fc:	12e0000f 	beqz	s7,40b53c <_getopt_internal+0x884>
  40b500:	00541021 	addu	v0,v0,s4
  40b504:	8e860000 	lw	a2,0(s4)
  40b508:	8c47fffc 	lw	a3,-4(v0)
  40b50c:	8f840110 	lw	a0,272(gp)
  40b510:	00000000 	nop
  40b514:	8c840000 	lw	a0,0(a0)
  40b518:	8f85000c 	lw	a1,12(gp)
  40b51c:	00000000 	nop
  40b520:	24a5080c 	addiu	a1,a1,2060
  40b524:	8f990224 	lw	t9,548(gp)
  40b528:	00000000 	nop
  40b52c:	0320f809 	jalr	t9
  40b530:	00000000 	nop
  40b534:	8fbc0018 	lw	gp,24(sp)
  40b538:	00000000 	nop
  40b53c:	8f90000c 	lw	s0,12(gp)
  40b540:	00000000 	nop
  40b544:	26103ed4 	addiu	s0,s0,16084
  40b548:	8e100000 	lw	s0,0(s0)
  40b54c:	00000000 	nop
  40b550:	02002021 	move	a0,s0
  40b554:	8f99007c 	lw	t9,124(gp)
  40b558:	00000000 	nop
  40b55c:	0320f809 	jalr	t9
  40b560:	00000000 	nop
  40b564:	8fbc0018 	lw	gp,24(sp)
  40b568:	02028021 	addu	s0,s0,v0
  40b56c:	8f81000c 	lw	at,12(gp)
  40b570:	00000000 	nop
  40b574:	24213ed4 	addiu	at,at,16084
  40b578:	ac300000 	sw	s0,0(at)
  40b57c:	8e42000c 	lw	v0,12(s2)
  40b580:	8fa50068 	lw	a1,104(sp)
  40b584:	8f810104 	lw	at,260(gp)
  40b588:	00000000 	nop
  40b58c:	ac220000 	sw	v0,0(at)
  40b590:	80a30000 	lb	v1,0(a1)
  40b594:	2402003a 	li	v0,58
  40b598:	10620002 	beq	v1,v0,40b5a4 <_getopt_internal+0x8ec>
  40b59c:	2404003a 	li	a0,58
  40b5a0:	2404003f 	li	a0,63
  40b5a4:	100000f5 	b	40b97c <_getopt_internal+0xcc4>
  40b5a8:	00803821 	move	a3,a0
  40b5ac:	8f90000c 	lw	s0,12(gp)
  40b5b0:	00000000 	nop
  40b5b4:	26103ed4 	addiu	s0,s0,16084
  40b5b8:	8e100000 	lw	s0,0(s0)
  40b5bc:	00000000 	nop
  40b5c0:	02002021 	move	a0,s0
  40b5c4:	8f99007c 	lw	t9,124(gp)
  40b5c8:	00000000 	nop
  40b5cc:	0320f809 	jalr	t9
  40b5d0:	00000000 	nop
  40b5d4:	8fbc0018 	lw	gp,24(sp)
  40b5d8:	02028021 	addu	s0,s0,v0
  40b5dc:	8fa20070 	lw	v0,112(sp)
  40b5e0:	8f81000c 	lw	at,12(gp)
  40b5e4:	00000000 	nop
  40b5e8:	24213ed4 	addiu	at,at,16084
  40b5ec:	10400002 	beqz	v0,40b5f8 <_getopt_internal+0x940>
  40b5f0:	ac300000 	sw	s0,0(at)
  40b5f4:	ac5e0000 	sw	s8,0(v0)
  40b5f8:	8e43000c 	lw	v1,12(s2)
  40b5fc:	8e420008 	lw	v0,8(s2)
  40b600:	00000000 	nop
  40b604:	104000dd 	beqz	v0,40b97c <_getopt_internal+0xcc4>
  40b608:	00603821 	move	a3,v1
  40b60c:	00003821 	move	a3,zero
  40b610:	100000da 	b	40b97c <_getopt_internal+0xcc4>
  40b614:	ac430000 	sw	v1,0(v0)
  40b618:	8fa30074 	lw	v1,116(sp)
  40b61c:	00000000 	nop
  40b620:	10600015 	beqz	v1,40b678 <_getopt_internal+0x9c0>
  40b624:	00161080 	sll	v0,s6,0x2
  40b628:	00541021 	addu	v0,v0,s4
  40b62c:	8c420000 	lw	v0,0(v0)
  40b630:	00000000 	nop
  40b634:	80430001 	lb	v1,1(v0)
  40b638:	2402002d 	li	v0,45
  40b63c:	1062000e 	beq	v1,v0,40b678 <_getopt_internal+0x9c0>
  40b640:	00000000 	nop
  40b644:	8f82000c 	lw	v0,12(gp)
  40b648:	00000000 	nop
  40b64c:	24423ed4 	addiu	v0,v0,16084
  40b650:	8c420000 	lw	v0,0(v0)
  40b654:	8fa40068 	lw	a0,104(sp)
  40b658:	80450000 	lb	a1,0(v0)
  40b65c:	8f990064 	lw	t9,100(gp)
  40b660:	00000000 	nop
  40b664:	0320f809 	jalr	t9
  40b668:	00000000 	nop
  40b66c:	8fbc0018 	lw	gp,24(sp)
  40b670:	1440003f 	bnez	v0,40b770 <_getopt_internal+0xab8>
  40b674:	00000000 	nop
  40b678:	12e0002a 	beqz	s7,40b724 <_getopt_internal+0xa6c>
  40b67c:	00000000 	nop
  40b680:	8f8201f4 	lw	v0,500(gp)
  40b684:	00000000 	nop
  40b688:	8c420000 	lw	v0,0(v0)
  40b68c:	8f88000c 	lw	t0,12(gp)
  40b690:	00000000 	nop
  40b694:	25083ed4 	addiu	t0,t0,16084
  40b698:	8d080000 	lw	t0,0(t0)
  40b69c:	00021080 	sll	v0,v0,0x2
  40b6a0:	00541021 	addu	v0,v0,s4
  40b6a4:	8c450000 	lw	a1,0(v0)
  40b6a8:	2402002d 	li	v0,45
  40b6ac:	80a30001 	lb	v1,1(a1)
  40b6b0:	8f840110 	lw	a0,272(gp)
  40b6b4:	00000000 	nop
  40b6b8:	8c840000 	lw	a0,0(a0)
  40b6bc:	1462000d 	bne	v1,v0,40b6f4 <_getopt_internal+0xa3c>
  40b6c0:	00000000 	nop
  40b6c4:	8e860000 	lw	a2,0(s4)
  40b6c8:	01003821 	move	a3,t0
  40b6cc:	8f85000c 	lw	a1,12(gp)
  40b6d0:	00000000 	nop
  40b6d4:	24a50834 	addiu	a1,a1,2100
  40b6d8:	8f990224 	lw	t9,548(gp)
  40b6dc:	00000000 	nop
  40b6e0:	0320f809 	jalr	t9
  40b6e4:	00000000 	nop
  40b6e8:	8fbc0018 	lw	gp,24(sp)
  40b6ec:	1000000d 	b	40b724 <_getopt_internal+0xa6c>
  40b6f0:	00000000 	nop
  40b6f4:	80a70000 	lb	a3,0(a1)
  40b6f8:	8e860000 	lw	a2,0(s4)
  40b6fc:	8f85000c 	lw	a1,12(gp)
  40b700:	00000000 	nop
  40b704:	24a50854 	addiu	a1,a1,2132
  40b708:	afa80010 	sw	t0,16(sp)
  40b70c:	8f990224 	lw	t9,548(gp)
  40b710:	00000000 	nop
  40b714:	0320f809 	jalr	t9
  40b718:	00000000 	nop
  40b71c:	8fbc0018 	lw	gp,24(sp)
  40b720:	00000000 	nop
  40b724:	8f8301f4 	lw	v1,500(gp)
  40b728:	00000000 	nop
  40b72c:	8c630000 	lw	v1,0(v1)
  40b730:	8f82000c 	lw	v0,12(gp)
  40b734:	00000000 	nop
  40b738:	24420874 	addiu	v0,v0,2164
  40b73c:	24630001 	addiu	v1,v1,1
  40b740:	2407003f 	li	a3,63
  40b744:	8f81000c 	lw	at,12(gp)
  40b748:	00000000 	nop
  40b74c:	24213ed4 	addiu	at,at,16084
  40b750:	ac220000 	sw	v0,0(at)
  40b754:	8f8101f4 	lw	at,500(gp)
  40b758:	00000000 	nop
  40b75c:	ac230000 	sw	v1,0(at)
  40b760:	8f810104 	lw	at,260(gp)
  40b764:	00000000 	nop
  40b768:	10000084 	b	40b97c <_getopt_internal+0xcc4>
  40b76c:	ac200000 	sw	zero,0(at)
  40b770:	8f90000c 	lw	s0,12(gp)
  40b774:	00000000 	nop
  40b778:	26103ed4 	addiu	s0,s0,16084
  40b77c:	8e100000 	lw	s0,0(s0)
  40b780:	8fa40068 	lw	a0,104(sp)
  40b784:	82110000 	lb	s1,0(s0)
  40b788:	26100001 	addiu	s0,s0,1
  40b78c:	8f81000c 	lw	at,12(gp)
  40b790:	00000000 	nop
  40b794:	24213ed4 	addiu	at,at,16084
  40b798:	ac300000 	sw	s0,0(at)
  40b79c:	02202821 	move	a1,s1
  40b7a0:	8f990064 	lw	t9,100(gp)
  40b7a4:	00000000 	nop
  40b7a8:	0320f809 	jalr	t9
  40b7ac:	00000000 	nop
  40b7b0:	8fbc0018 	lw	gp,24(sp)
  40b7b4:	00401821 	move	v1,v0
  40b7b8:	82020000 	lb	v0,0(s0)
  40b7bc:	00000000 	nop
  40b7c0:	14400009 	bnez	v0,40b7e8 <_getopt_internal+0xb30>
  40b7c4:	02002021 	move	a0,s0
  40b7c8:	8f8201f4 	lw	v0,500(gp)
  40b7cc:	00000000 	nop
  40b7d0:	8c420000 	lw	v0,0(v0)
  40b7d4:	00000000 	nop
  40b7d8:	24420001 	addiu	v0,v0,1
  40b7dc:	8f8101f4 	lw	at,500(gp)
  40b7e0:	00000000 	nop
  40b7e4:	ac220000 	sw	v0,0(at)
  40b7e8:	10600003 	beqz	v1,40b7f8 <_getopt_internal+0xb40>
  40b7ec:	2402003a 	li	v0,58
  40b7f0:	16220016 	bne	s1,v0,40b84c <_getopt_internal+0xb94>
  40b7f4:	00000000 	nop
  40b7f8:	12e0000f 	beqz	s7,40b838 <_getopt_internal+0xb80>
  40b7fc:	00000000 	nop
  40b800:	8e860000 	lw	a2,0(s4)
  40b804:	8f840110 	lw	a0,272(gp)
  40b808:	00000000 	nop
  40b80c:	8c840000 	lw	a0,0(a0)
  40b810:	8f85000c 	lw	a1,12(gp)
  40b814:	00000000 	nop
  40b818:	24a50878 	addiu	a1,a1,2168
  40b81c:	02203821 	move	a3,s1
  40b820:	8f990224 	lw	t9,548(gp)
  40b824:	00000000 	nop
  40b828:	0320f809 	jalr	t9
  40b82c:	00000000 	nop
  40b830:	8fbc0018 	lw	gp,24(sp)
  40b834:	00000000 	nop
  40b838:	8f810104 	lw	at,260(gp)
  40b83c:	00000000 	nop
  40b840:	ac310000 	sw	s1,0(at)
  40b844:	1000004d 	b	40b97c <_getopt_internal+0xcc4>
  40b848:	2407003f 	li	a3,63
  40b84c:	80720001 	lb	s2,1(v1)
  40b850:	00000000 	nop
  40b854:	16420049 	bne	s2,v0,40b97c <_getopt_internal+0xcc4>
  40b858:	02203821 	move	a3,s1
  40b85c:	80620002 	lb	v0,2(v1)
  40b860:	90830000 	lbu	v1,0(a0)
  40b864:	1452000f 	bne	v0,s2,40b8a4 <_getopt_internal+0xbec>
  40b868:	00031600 	sll	v0,v1,0x18
  40b86c:	10400009 	beqz	v0,40b894 <_getopt_internal+0xbdc>
  40b870:	00000000 	nop
  40b874:	8f8201f4 	lw	v0,500(gp)
  40b878:	00000000 	nop
  40b87c:	8c420000 	lw	v0,0(v0)
  40b880:	8f8102cc 	lw	at,716(gp)
  40b884:	00000000 	nop
  40b888:	ac240000 	sw	a0,0(at)
  40b88c:	1000000d 	b	40b8c4 <_getopt_internal+0xc0c>
  40b890:	24420001 	addiu	v0,v0,1
  40b894:	8f8102cc 	lw	at,716(gp)
  40b898:	00000000 	nop
  40b89c:	10000032 	b	40b968 <_getopt_internal+0xcb0>
  40b8a0:	ac200000 	sw	zero,0(at)
  40b8a4:	8f8301f4 	lw	v1,500(gp)
  40b8a8:	00000000 	nop
  40b8ac:	8c630000 	lw	v1,0(v1)
  40b8b0:	10400008 	beqz	v0,40b8d4 <_getopt_internal+0xc1c>
  40b8b4:	24620001 	addiu	v0,v1,1
  40b8b8:	8f8102cc 	lw	at,716(gp)
  40b8bc:	00000000 	nop
  40b8c0:	ac300000 	sw	s0,0(at)
  40b8c4:	8f8101f4 	lw	at,500(gp)
  40b8c8:	00000000 	nop
  40b8cc:	10000026 	b	40b968 <_getopt_internal+0xcb0>
  40b8d0:	ac220000 	sw	v0,0(at)
  40b8d4:	8fa40060 	lw	a0,96(sp)
  40b8d8:	00000000 	nop
  40b8dc:	14640019 	bne	v1,a0,40b944 <_getopt_internal+0xc8c>
  40b8e0:	00031080 	sll	v0,v1,0x2
  40b8e4:	12e0000d 	beqz	s7,40b91c <_getopt_internal+0xc64>
  40b8e8:	02203821 	move	a3,s1
  40b8ec:	8e860000 	lw	a2,0(s4)
  40b8f0:	8f840110 	lw	a0,272(gp)
  40b8f4:	00000000 	nop
  40b8f8:	8c840000 	lw	a0,0(a0)
  40b8fc:	8f85000c 	lw	a1,12(gp)
  40b900:	00000000 	nop
  40b904:	24a50894 	addiu	a1,a1,2196
  40b908:	8f990224 	lw	t9,548(gp)
  40b90c:	00000000 	nop
  40b910:	0320f809 	jalr	t9
  40b914:	00000000 	nop
  40b918:	8fbc0018 	lw	gp,24(sp)
  40b91c:	8fa50068 	lw	a1,104(sp)
  40b920:	8f810104 	lw	at,260(gp)
  40b924:	00000000 	nop
  40b928:	ac310000 	sw	s1,0(at)
  40b92c:	80a20000 	lb	v0,0(a1)
  40b930:	00000000 	nop
  40b934:	1052000c 	beq	v0,s2,40b968 <_getopt_internal+0xcb0>
  40b938:	2411003a 	li	s1,58
  40b93c:	1000000a 	b	40b968 <_getopt_internal+0xcb0>
  40b940:	2411003f 	li	s1,63
  40b944:	00541021 	addu	v0,v0,s4
  40b948:	8c420000 	lw	v0,0(v0)
  40b94c:	24630001 	addiu	v1,v1,1
  40b950:	8f8102cc 	lw	at,716(gp)
  40b954:	00000000 	nop
  40b958:	ac220000 	sw	v0,0(at)
  40b95c:	8f8101f4 	lw	at,500(gp)
  40b960:	00000000 	nop
  40b964:	ac230000 	sw	v1,0(at)
  40b968:	8f81000c 	lw	at,12(gp)
  40b96c:	00000000 	nop
  40b970:	24213ed4 	addiu	at,at,16084
  40b974:	ac200000 	sw	zero,0(at)
  40b978:	02203821 	move	a3,s1
  40b97c:	8fbf0058 	lw	ra,88(sp)
  40b980:	8fbe0054 	lw	s8,84(sp)
  40b984:	8fb7004c 	lw	s7,76(sp)
  40b988:	8fb60048 	lw	s6,72(sp)
  40b98c:	8fb50044 	lw	s5,68(sp)
  40b990:	8fb40040 	lw	s4,64(sp)
  40b994:	8fb3003c 	lw	s3,60(sp)
  40b998:	8fb20038 	lw	s2,56(sp)
  40b99c:	8fb10034 	lw	s1,52(sp)
  40b9a0:	8fb00030 	lw	s0,48(sp)
  40b9a4:	00e01021 	move	v0,a3
  40b9a8:	03e00008 	jr	ra
  40b9ac:	27bd0060 	addiu	sp,sp,96

0040b9b0 <getopt>:
  40b9b0:	3c1c0000 	lui	gp,0x0
  40b9b4:	279c30b0 	addiu	gp,gp,12464
  40b9b8:	0399e021 	addu	gp,gp,t9
  40b9bc:	27bdffd8 	addiu	sp,sp,-40
  40b9c0:	afbc0018 	sw	gp,24(sp)
  40b9c4:	00003821 	move	a3,zero
  40b9c8:	afbf0024 	sw	ra,36(sp)
  40b9cc:	afbc0020 	sw	gp,32(sp)
  40b9d0:	afa00010 	sw	zero,16(sp)
  40b9d4:	afa00014 	sw	zero,20(sp)
  40b9d8:	8f990338 	lw	t9,824(gp)
  40b9dc:	00000000 	nop
  40b9e0:	0320f809 	jalr	t9
  40b9e4:	00000000 	nop
  40b9e8:	8fbc0018 	lw	gp,24(sp)
  40b9ec:	8fbf0024 	lw	ra,36(sp)
  40b9f0:	00000000 	nop
  40b9f4:	03e00008 	jr	ra
  40b9f8:	27bd0028 	addiu	sp,sp,40

0040b9fc <getopt_long>:
  40b9fc:	3c1c0000 	lui	gp,0x0
  40ba00:	279c3064 	addiu	gp,gp,12388
  40ba04:	0399e021 	addu	gp,gp,t9
  40ba08:	27bdffd8 	addiu	sp,sp,-40
  40ba0c:	afbc0018 	sw	gp,24(sp)
  40ba10:	8fa20038 	lw	v0,56(sp)
  40ba14:	afbf0024 	sw	ra,36(sp)
  40ba18:	afbc0020 	sw	gp,32(sp)
  40ba1c:	afa00014 	sw	zero,20(sp)
  40ba20:	afa20010 	sw	v0,16(sp)
  40ba24:	8f990338 	lw	t9,824(gp)
  40ba28:	00000000 	nop
  40ba2c:	0320f809 	jalr	t9
  40ba30:	00000000 	nop
  40ba34:	8fbc0018 	lw	gp,24(sp)
  40ba38:	8fbf0024 	lw	ra,36(sp)
  40ba3c:	00000000 	nop
  40ba40:	03e00008 	jr	ra
  40ba44:	27bd0028 	addiu	sp,sp,40

0040ba48 <getopt_long_only>:
  40ba48:	3c1c0000 	lui	gp,0x0
  40ba4c:	279c3018 	addiu	gp,gp,12312
  40ba50:	0399e021 	addu	gp,gp,t9
  40ba54:	27bdffd8 	addiu	sp,sp,-40
  40ba58:	afbc0018 	sw	gp,24(sp)
  40ba5c:	8fa20038 	lw	v0,56(sp)
  40ba60:	afbf0024 	sw	ra,36(sp)
  40ba64:	afa20010 	sw	v0,16(sp)
  40ba68:	24020001 	li	v0,1
  40ba6c:	afbc0020 	sw	gp,32(sp)
  40ba70:	afa20014 	sw	v0,20(sp)
  40ba74:	8f990338 	lw	t9,824(gp)
  40ba78:	00000000 	nop
  40ba7c:	0320f809 	jalr	t9
  40ba80:	00000000 	nop
  40ba84:	8fbc0018 	lw	gp,24(sp)
  40ba88:	8fbf0024 	lw	ra,36(sp)
  40ba8c:	00000000 	nop
  40ba90:	03e00008 	jr	ra
  40ba94:	27bd0028 	addiu	sp,sp,40
	...

0040baa0 <asctime>:
  40baa0:	3c1c0000 	lui	gp,0x0
  40baa4:	279c2fc0 	addiu	gp,gp,12224
  40baa8:	0399e021 	addu	gp,gp,t9
  40baac:	27bdffe0 	addiu	sp,sp,-32
  40bab0:	afbc0010 	sw	gp,16(sp)
  40bab4:	8f85000c 	lw	a1,12(gp)
  40bab8:	00000000 	nop
  40babc:	24a53f00 	addiu	a1,a1,16128
  40bac0:	afbf001c 	sw	ra,28(sp)
  40bac4:	afbc0018 	sw	gp,24(sp)
  40bac8:	8f990174 	lw	t9,372(gp)
  40bacc:	00000000 	nop
  40bad0:	0320f809 	jalr	t9
  40bad4:	00000000 	nop
  40bad8:	8fbc0010 	lw	gp,16(sp)
  40badc:	8fbf001c 	lw	ra,28(sp)
  40bae0:	00000000 	nop
  40bae4:	03e00008 	jr	ra
  40bae8:	27bd0020 	addiu	sp,sp,32
  40baec:	00000000 	nop

0040baf0 <asctime_r>:
  40baf0:	3c1c0000 	lui	gp,0x0
  40baf4:	279c2f70 	addiu	gp,gp,12144
  40baf8:	0399e021 	addu	gp,gp,t9
  40bafc:	27bdffd8 	addiu	sp,sp,-40
  40bb00:	afbc0010 	sw	gp,16(sp)
  40bb04:	afb00018 	sw	s0,24(sp)
  40bb08:	00a08021 	move	s0,a1
  40bb0c:	afb1001c 	sw	s1,28(sp)
  40bb10:	8f85000c 	lw	a1,12(gp)
  40bb14:	00000000 	nop
  40bb18:	24a50bf9 	addiu	a1,a1,3065
  40bb1c:	00808821 	move	s1,a0
  40bb20:	2406001a 	li	a2,26
  40bb24:	02002021 	move	a0,s0
  40bb28:	afbf0024 	sw	ra,36(sp)
  40bb2c:	afbc0020 	sw	gp,32(sp)
  40bb30:	8f9902fc 	lw	t9,764(gp)
  40bb34:	00000000 	nop
  40bb38:	0320f809 	jalr	t9
  40bb3c:	00000000 	nop
  40bb40:	8fbc0010 	lw	gp,16(sp)
  40bb44:	8e230018 	lw	v1,24(s1)
  40bb48:	00000000 	nop
  40bb4c:	2c620007 	sltiu	v0,v1,7
  40bb50:	1040000d 	beqz	v0,40bb88 <asctime_r+0x98>
  40bb54:	00032840 	sll	a1,v1,0x1
  40bb58:	00a32821 	addu	a1,a1,v1
  40bb5c:	8f81000c 	lw	at,12(gp)
  40bb60:	00000000 	nop
  40bb64:	24210bc0 	addiu	at,at,3008
  40bb68:	00252821 	addu	a1,at,a1
  40bb6c:	02002021 	move	a0,s0
  40bb70:	24060003 	li	a2,3
  40bb74:	8f9902fc 	lw	t9,764(gp)
  40bb78:	00000000 	nop
  40bb7c:	0320f809 	jalr	t9
  40bb80:	00000000 	nop
  40bb84:	8fbc0010 	lw	gp,16(sp)
  40bb88:	8e230010 	lw	v1,16(s1)
  40bb8c:	00000000 	nop
  40bb90:	2c62000c 	sltiu	v0,v1,12
  40bb94:	1040000d 	beqz	v0,40bbcc <asctime_r+0xdc>
  40bb98:	00032840 	sll	a1,v1,0x1
  40bb9c:	00a32821 	addu	a1,a1,v1
  40bba0:	8f81000c 	lw	at,12(gp)
  40bba4:	00000000 	nop
  40bba8:	24210bd5 	addiu	at,at,3029
  40bbac:	00252821 	addu	a1,at,a1
  40bbb0:	26040004 	addiu	a0,s0,4
  40bbb4:	24060003 	li	a2,3
  40bbb8:	8f9902fc 	lw	t9,764(gp)
  40bbbc:	00000000 	nop
  40bbc0:	0320f809 	jalr	t9
  40bbc4:	00000000 	nop
  40bbc8:	8fbc0010 	lw	gp,16(sp)
  40bbcc:	8e220014 	lw	v0,20(s1)
  40bbd0:	00000000 	nop
  40bbd4:	2445076c 	addiu	a1,v0,1900
  40bbd8:	2ca22710 	sltiu	v0,a1,10000
  40bbdc:	10400014 	beqz	v0,40bc30 <asctime_r+0x140>
  40bbe0:	26100013 	addiu	s0,s0,19
  40bbe4:	26100004 	addiu	s0,s0,4
  40bbe8:	3c036666 	lui	v1,0x6666
  40bbec:	34636667 	ori	v1,v1,0x6667
  40bbf0:	00a30018 	mult	a1,v1
  40bbf4:	000517c3 	sra	v0,a1,0x1f
  40bbf8:	00001810 	mfhi	v1
  40bbfc:	00031883 	sra	v1,v1,0x2
  40bc00:	00621823 	subu	v1,v1,v0
  40bc04:	00031080 	sll	v0,v1,0x2
  40bc08:	00431021 	addu	v0,v0,v1
  40bc0c:	00021040 	sll	v0,v0,0x1
  40bc10:	00a21023 	subu	v0,a1,v0
  40bc14:	24420030 	addiu	v0,v0,48
  40bc18:	a2020000 	sb	v0,0(s0)
  40bc1c:	2610ffff 	addiu	s0,s0,-1
  40bc20:	82040000 	lb	a0,0(s0)
  40bc24:	2402003f 	li	v0,63
  40bc28:	1082ffef 	beq	a0,v0,40bbe8 <asctime_r+0xf8>
  40bc2c:	00602821 	move	a1,v1
  40bc30:	2610ffff 	addiu	s0,s0,-1
  40bc34:	82020000 	lb	v0,0(s0)
  40bc38:	3c046666 	lui	a0,0x6666
  40bc3c:	02221021 	addu	v0,s1,v0
  40bc40:	8c450000 	lw	a1,0(v0)
  40bc44:	34846667 	ori	a0,a0,0x6667
  40bc48:	2ca20064 	sltiu	v0,a1,100
  40bc4c:	2406003f 	li	a2,63
  40bc50:	14400004 	bnez	v0,40bc64 <asctime_r+0x174>
  40bc54:	00051fc3 	sra	v1,a1,0x1f
  40bc58:	a206ffff 	sb	a2,-1(s0)
  40bc5c:	1000000e 	b	40bc98 <asctime_r+0x1a8>
  40bc60:	a2060000 	sb	a2,0(s0)
  40bc64:	00a40018 	mult	a1,a0
  40bc68:	9204ffff 	lbu	a0,-1(s0)
  40bc6c:	00001010 	mfhi	v0
  40bc70:	00021083 	sra	v0,v0,0x2
  40bc74:	00431023 	subu	v0,v0,v1
  40bc78:	00021880 	sll	v1,v0,0x2
  40bc7c:	00621821 	addu	v1,v1,v0
  40bc80:	00031840 	sll	v1,v1,0x1
  40bc84:	00a31823 	subu	v1,a1,v1
  40bc88:	00822021 	addu	a0,a0,v0
  40bc8c:	24630030 	addiu	v1,v1,48
  40bc90:	a2030000 	sb	v1,0(s0)
  40bc94:	a204ffff 	sb	a0,-1(s0)
  40bc98:	2610fffe 	addiu	s0,s0,-2
  40bc9c:	8202fffe 	lb	v0,-2(s0)
  40bca0:	24030030 	li	v1,48
  40bca4:	1043ffe2 	beq	v0,v1,40bc30 <asctime_r+0x140>
  40bca8:	00000000 	nop
  40bcac:	26100001 	addiu	s0,s0,1
  40bcb0:	82020000 	lb	v0,0(s0)
  40bcb4:	00000000 	nop
  40bcb8:	14430004 	bne	v0,v1,40bccc <asctime_r+0x1dc>
  40bcbc:	2602fff8 	addiu	v0,s0,-8
  40bcc0:	24020020 	li	v0,32
  40bcc4:	a2020000 	sb	v0,0(s0)
  40bcc8:	2602fff8 	addiu	v0,s0,-8
  40bccc:	8fbf0024 	lw	ra,36(sp)
  40bcd0:	8fb1001c 	lw	s1,28(sp)
  40bcd4:	8fb00018 	lw	s0,24(sp)
  40bcd8:	03e00008 	jr	ra
  40bcdc:	27bd0028 	addiu	sp,sp,40

0040bce0 <wcrtomb>:
  40bce0:	3c1c0000 	lui	gp,0x0
  40bce4:	279c2d80 	addiu	gp,gp,11648
  40bce8:	0399e021 	addu	gp,gp,t9
  40bcec:	27bdffc0 	addiu	sp,sp,-64
  40bcf0:	afbc0018 	sw	gp,24(sp)
  40bcf4:	00a01821 	move	v1,a1
  40bcf8:	00c04021 	move	t0,a2
  40bcfc:	afbf003c 	sw	ra,60(sp)
  40bd00:	afbc0038 	sw	gp,56(sp)
  40bd04:	24070010 	li	a3,16
  40bd08:	27a50034 	addiu	a1,sp,52
  40bd0c:	14800003 	bnez	a0,40bd1c <wcrtomb+0x3c>
  40bd10:	24060001 	li	a2,1
  40bd14:	27a40020 	addiu	a0,sp,32
  40bd18:	00001821 	move	v1,zero
  40bd1c:	27a20030 	addiu	v0,sp,48
  40bd20:	afa20034 	sw	v0,52(sp)
  40bd24:	afa30030 	sw	v1,48(sp)
  40bd28:	afa80010 	sw	t0,16(sp)
  40bd2c:	8f990200 	lw	t9,512(gp)
  40bd30:	00000000 	nop
  40bd34:	0320f809 	jalr	t9
  40bd38:	00000000 	nop
  40bd3c:	8fbc0018 	lw	gp,24(sp)
  40bd40:	14400002 	bnez	v0,40bd4c <wcrtomb+0x6c>
  40bd44:	00000000 	nop
  40bd48:	24020001 	li	v0,1
  40bd4c:	8fbf003c 	lw	ra,60(sp)
  40bd50:	00000000 	nop
  40bd54:	03e00008 	jr	ra
  40bd58:	27bd0040 	addiu	sp,sp,64
  40bd5c:	00000000 	nop

0040bd60 <wcsrtombs>:
  40bd60:	3c1c0000 	lui	gp,0x0
  40bd64:	279c2d00 	addiu	gp,gp,11520
  40bd68:	0399e021 	addu	gp,gp,t9
  40bd6c:	27bdffd8 	addiu	sp,sp,-40
  40bd70:	afbc0018 	sw	gp,24(sp)
  40bd74:	00e01021 	move	v0,a3
  40bd78:	00c03821 	move	a3,a2
  40bd7c:	2406ffff 	li	a2,-1
  40bd80:	afbf0024 	sw	ra,36(sp)
  40bd84:	afbc0020 	sw	gp,32(sp)
  40bd88:	afa20010 	sw	v0,16(sp)
  40bd8c:	8f990200 	lw	t9,512(gp)
  40bd90:	00000000 	nop
  40bd94:	0320f809 	jalr	t9
  40bd98:	00000000 	nop
  40bd9c:	8fbc0018 	lw	gp,24(sp)
  40bda0:	8fbf0024 	lw	ra,36(sp)
  40bda4:	00000000 	nop
  40bda8:	03e00008 	jr	ra
  40bdac:	27bd0028 	addiu	sp,sp,40

0040bdb0 <__wcsnrtombs>:
  40bdb0:	3c1c0000 	lui	gp,0x0
  40bdb4:	279c2cb0 	addiu	gp,gp,11440
  40bdb8:	0399e021 	addu	gp,gp,t9
  40bdbc:	27bdffd0 	addiu	sp,sp,-48
  40bdc0:	afbc0010 	sw	gp,16(sp)
  40bdc4:	afbf002c 	sw	ra,44(sp)
  40bdc8:	afbc0028 	sw	gp,40(sp)
  40bdcc:	00e04021 	move	t0,a3
  40bdd0:	10800010 	beqz	a0,40be14 <__wcsnrtombs+0x64>
  40bdd4:	24090001 	li	t1,1
  40bdd8:	14850012 	bne	a0,a1,40be24 <__wcsnrtombs+0x74>
  40bddc:	00c8102b 	sltu	v0,a2,t0
  40bde0:	1000000e 	b	40be1c <__wcsnrtombs+0x6c>
  40bde4:	27a40018 	addiu	a0,sp,24
  40bde8:	8f9900bc 	lw	t9,188(gp)
  40bdec:	00000000 	nop
  40bdf0:	0320f809 	jalr	t9
  40bdf4:	00000000 	nop
  40bdf8:	8fbc0010 	lw	gp,16(sp)
  40bdfc:	24030058 	li	v1,88
  40be00:	2407ffff 	li	a3,-1
  40be04:	1000001f 	b	40be84 <__wcsnrtombs+0xd4>
  40be08:	ac430000 	sw	v1,0(v0)
  40be0c:	10000018 	b	40be70 <__wcsnrtombs+0xc0>
  40be10:	00003021 	move	a2,zero
  40be14:	2408ffff 	li	t0,-1
  40be18:	27a40018 	addiu	a0,sp,24
  40be1c:	00004821 	move	t1,zero
  40be20:	00c8102b 	sltu	v0,a2,t0
  40be24:	10400002 	beqz	v0,40be30 <__wcsnrtombs+0x80>
  40be28:	00000000 	nop
  40be2c:	00c04021 	move	t0,a2
  40be30:	8ca60000 	lw	a2,0(a1)
  40be34:	1100000e 	beqz	t0,40be70 <__wcsnrtombs+0xc0>
  40be38:	01003821 	move	a3,t0
  40be3c:	8cc20000 	lw	v0,0(a2)
  40be40:	00000000 	nop
  40be44:	2c420080 	sltiu	v0,v0,128
  40be48:	1040ffe7 	beqz	v0,40bde8 <__wcsnrtombs+0x38>
  40be4c:	00000000 	nop
  40be50:	90c20003 	lbu	v0,3(a2)
  40be54:	24c60004 	addiu	a2,a2,4
  40be58:	00021e00 	sll	v1,v0,0x18
  40be5c:	1060ffeb 	beqz	v1,40be0c <__wcsnrtombs+0x5c>
  40be60:	a0820000 	sb	v0,0(a0)
  40be64:	24e7ffff 	addiu	a3,a3,-1
  40be68:	14e0fff4 	bnez	a3,40be3c <__wcsnrtombs+0x8c>
  40be6c:	00892021 	addu	a0,a0,t1
  40be70:	27a20018 	addiu	v0,sp,24
  40be74:	10820002 	beq	a0,v0,40be80 <__wcsnrtombs+0xd0>
  40be78:	00000000 	nop
  40be7c:	aca60000 	sw	a2,0(a1)
  40be80:	01073823 	subu	a3,t0,a3
  40be84:	8fbf002c 	lw	ra,44(sp)
  40be88:	00e01021 	move	v0,a3
  40be8c:	03e00008 	jr	ra
  40be90:	27bd0030 	addiu	sp,sp,48
	...

0040bea0 <fgetc>:
  40bea0:	3c1c0000 	lui	gp,0x0
  40bea4:	279c2bc0 	addiu	gp,gp,11200
  40bea8:	0399e021 	addu	gp,gp,t9
  40beac:	27bdffd8 	addiu	sp,sp,-40
  40beb0:	afbc0010 	sw	gp,16(sp)
  40beb4:	afb00018 	sw	s0,24(sp)
  40beb8:	afbf0024 	sw	ra,36(sp)
  40bebc:	afbc0020 	sw	gp,32(sp)
  40bec0:	afb1001c 	sw	s1,28(sp)
  40bec4:	8c820034 	lw	v0,52(a0)
  40bec8:	00808021 	move	s0,a0
  40becc:	14400006 	bnez	v0,40bee8 <fgetc+0x48>
  40bed0:	24840038 	addiu	a0,a0,56
  40bed4:	8f990344 	lw	t9,836(gp)
  40bed8:	00000000 	nop
  40bedc:	0320f809 	jalr	t9
  40bee0:	00000000 	nop
  40bee4:	8fbc0010 	lw	gp,16(sp)
  40bee8:	02002021 	move	a0,s0
  40beec:	8f9900c8 	lw	t9,200(gp)
  40bef0:	00000000 	nop
  40bef4:	0320f809 	jalr	t9
  40bef8:	00000000 	nop
  40befc:	8fbc0010 	lw	gp,16(sp)
  40bf00:	00408821 	move	s1,v0
  40bf04:	8e020034 	lw	v0,52(s0)
  40bf08:	00000000 	nop
  40bf0c:	14400006 	bnez	v0,40bf28 <fgetc+0x88>
  40bf10:	26040038 	addiu	a0,s0,56
  40bf14:	8f990234 	lw	t9,564(gp)
  40bf18:	00000000 	nop
  40bf1c:	0320f809 	jalr	t9
  40bf20:	00000000 	nop
  40bf24:	8fbc0010 	lw	gp,16(sp)
  40bf28:	02201021 	move	v0,s1
  40bf2c:	8fbf0024 	lw	ra,36(sp)
  40bf30:	8fb1001c 	lw	s1,28(sp)
  40bf34:	8fb00018 	lw	s0,24(sp)
  40bf38:	03e00008 	jr	ra
  40bf3c:	27bd0028 	addiu	sp,sp,40

0040bf40 <fgetc_unlocked>:
  40bf40:	3c1c0000 	lui	gp,0x0
  40bf44:	279c2b20 	addiu	gp,gp,11040
  40bf48:	0399e021 	addu	gp,gp,t9
  40bf4c:	27bdffd8 	addiu	sp,sp,-40
  40bf50:	afbc0010 	sw	gp,16(sp)
  40bf54:	00803821 	move	a3,a0
  40bf58:	24050001 	li	a1,1
  40bf5c:	27a40018 	addiu	a0,sp,24
  40bf60:	24060001 	li	a2,1
  40bf64:	afbf0024 	sw	ra,36(sp)
  40bf68:	afbc0020 	sw	gp,32(sp)
  40bf6c:	8f990138 	lw	t9,312(gp)
  40bf70:	00000000 	nop
  40bf74:	0320f809 	jalr	t9
  40bf78:	00000000 	nop
  40bf7c:	8fbc0010 	lw	gp,16(sp)
  40bf80:	10400002 	beqz	v0,40bf8c <fgetc_unlocked+0x4c>
  40bf84:	2403ffff 	li	v1,-1
  40bf88:	93a30018 	lbu	v1,24(sp)
  40bf8c:	8fbf0024 	lw	ra,36(sp)
  40bf90:	00601021 	move	v0,v1
  40bf94:	03e00008 	jr	ra
  40bf98:	27bd0028 	addiu	sp,sp,40
  40bf9c:	00000000 	nop

0040bfa0 <fputc>:
  40bfa0:	3c1c0000 	lui	gp,0x0
  40bfa4:	279c2ac0 	addiu	gp,gp,10944
  40bfa8:	0399e021 	addu	gp,gp,t9
  40bfac:	27bdffd8 	addiu	sp,sp,-40
  40bfb0:	afbc0010 	sw	gp,16(sp)
  40bfb4:	afb1001c 	sw	s1,28(sp)
  40bfb8:	afb00018 	sw	s0,24(sp)
  40bfbc:	afbf0024 	sw	ra,36(sp)
  40bfc0:	afbc0020 	sw	gp,32(sp)
  40bfc4:	8ca30034 	lw	v1,52(a1)
  40bfc8:	24a20038 	addiu	v0,a1,56
  40bfcc:	00808821 	move	s1,a0
  40bfd0:	00a08021 	move	s0,a1
  40bfd4:	14600006 	bnez	v1,40bff0 <fputc+0x50>
  40bfd8:	00402021 	move	a0,v0
  40bfdc:	8f990344 	lw	t9,836(gp)
  40bfe0:	00000000 	nop
  40bfe4:	0320f809 	jalr	t9
  40bfe8:	00000000 	nop
  40bfec:	8fbc0010 	lw	gp,16(sp)
  40bff0:	02202021 	move	a0,s1
  40bff4:	02002821 	move	a1,s0
  40bff8:	8f990054 	lw	t9,84(gp)
  40bffc:	00000000 	nop
  40c000:	0320f809 	jalr	t9
  40c004:	00000000 	nop
  40c008:	8fbc0010 	lw	gp,16(sp)
  40c00c:	00408821 	move	s1,v0
  40c010:	8e020034 	lw	v0,52(s0)
  40c014:	00000000 	nop
  40c018:	14400006 	bnez	v0,40c034 <fputc+0x94>
  40c01c:	26040038 	addiu	a0,s0,56
  40c020:	8f990234 	lw	t9,564(gp)
  40c024:	00000000 	nop
  40c028:	0320f809 	jalr	t9
  40c02c:	00000000 	nop
  40c030:	8fbc0010 	lw	gp,16(sp)
  40c034:	02201021 	move	v0,s1
  40c038:	8fbf0024 	lw	ra,36(sp)
  40c03c:	8fb1001c 	lw	s1,28(sp)
  40c040:	8fb00018 	lw	s0,24(sp)
  40c044:	03e00008 	jr	ra
  40c048:	27bd0028 	addiu	sp,sp,40

0040c04c <fputc_unlocked>:
  40c04c:	3c1c0000 	lui	gp,0x0
  40c050:	279c2a14 	addiu	gp,gp,10772
  40c054:	0399e021 	addu	gp,gp,t9
  40c058:	27bdffd8 	addiu	sp,sp,-40
  40c05c:	afbc0010 	sw	gp,16(sp)
  40c060:	00801021 	move	v0,a0
  40c064:	00a03821 	move	a3,a1
  40c068:	27a40018 	addiu	a0,sp,24
  40c06c:	24050001 	li	a1,1
  40c070:	24060001 	li	a2,1
  40c074:	afbf0024 	sw	ra,36(sp)
  40c078:	afbc0020 	sw	gp,32(sp)
  40c07c:	a3a20018 	sb	v0,24(sp)
  40c080:	8f9900ec 	lw	t9,236(gp)
  40c084:	00000000 	nop
  40c088:	0320f809 	jalr	t9
  40c08c:	00000000 	nop
  40c090:	8fbc0010 	lw	gp,16(sp)
  40c094:	10400002 	beqz	v0,40c0a0 <fputc_unlocked+0x54>
  40c098:	2403ffff 	li	v1,-1
  40c09c:	93a30018 	lbu	v1,24(sp)
  40c0a0:	8fbf0024 	lw	ra,36(sp)
  40c0a4:	00601021 	move	v0,v1
  40c0a8:	03e00008 	jr	ra
  40c0ac:	27bd0028 	addiu	sp,sp,40

0040c0b0 <fread>:
  40c0b0:	3c1c0000 	lui	gp,0x0
  40c0b4:	279c29b0 	addiu	gp,gp,10672
  40c0b8:	0399e021 	addu	gp,gp,t9
  40c0bc:	27bdffd0 	addiu	sp,sp,-48
  40c0c0:	afbc0010 	sw	gp,16(sp)
  40c0c4:	afb30024 	sw	s3,36(sp)
  40c0c8:	afb20020 	sw	s2,32(sp)
  40c0cc:	afb1001c 	sw	s1,28(sp)
  40c0d0:	afb00018 	sw	s0,24(sp)
  40c0d4:	afbf002c 	sw	ra,44(sp)
  40c0d8:	afbc0028 	sw	gp,40(sp)
  40c0dc:	8ce30034 	lw	v1,52(a3)
  40c0e0:	24e20038 	addiu	v0,a3,56
  40c0e4:	00809821 	move	s3,a0
  40c0e8:	00e08021 	move	s0,a3
  40c0ec:	00402021 	move	a0,v0
  40c0f0:	00a08821 	move	s1,a1
  40c0f4:	14600006 	bnez	v1,40c110 <fread+0x60>
  40c0f8:	00c09021 	move	s2,a2
  40c0fc:	8f990344 	lw	t9,836(gp)
  40c100:	00000000 	nop
  40c104:	0320f809 	jalr	t9
  40c108:	00000000 	nop
  40c10c:	8fbc0010 	lw	gp,16(sp)
  40c110:	02602021 	move	a0,s3
  40c114:	02202821 	move	a1,s1
  40c118:	02403021 	move	a2,s2
  40c11c:	02003821 	move	a3,s0
  40c120:	8f990138 	lw	t9,312(gp)
  40c124:	00000000 	nop
  40c128:	0320f809 	jalr	t9
  40c12c:	00000000 	nop
  40c130:	8fbc0010 	lw	gp,16(sp)
  40c134:	00408821 	move	s1,v0
  40c138:	8e020034 	lw	v0,52(s0)
  40c13c:	00000000 	nop
  40c140:	14400006 	bnez	v0,40c15c <fread+0xac>
  40c144:	26040038 	addiu	a0,s0,56
  40c148:	8f990234 	lw	t9,564(gp)
  40c14c:	00000000 	nop
  40c150:	0320f809 	jalr	t9
  40c154:	00000000 	nop
  40c158:	8fbc0010 	lw	gp,16(sp)
  40c15c:	02201021 	move	v0,s1
  40c160:	8fbf002c 	lw	ra,44(sp)
  40c164:	8fb30024 	lw	s3,36(sp)
  40c168:	8fb20020 	lw	s2,32(sp)
  40c16c:	8fb1001c 	lw	s1,28(sp)
  40c170:	8fb00018 	lw	s0,24(sp)
  40c174:	03e00008 	jr	ra
  40c178:	27bd0030 	addiu	sp,sp,48

0040c17c <fread_unlocked>:
  40c17c:	3c1c0000 	lui	gp,0x0
  40c180:	279c28e4 	addiu	gp,gp,10468
  40c184:	0399e021 	addu	gp,gp,t9
  40c188:	27bdffd8 	addiu	sp,sp,-40
  40c18c:	afbc0010 	sw	gp,16(sp)
  40c190:	94e20000 	lhu	v0,0(a3)
  40c194:	afb00018 	sw	s0,24(sp)
  40c198:	34480080 	ori	t0,v0,0x80
  40c19c:	34430008 	ori	v1,v0,0x8
  40c1a0:	30420800 	andi	v0,v0,0x800
  40c1a4:	00a08021 	move	s0,a1
  40c1a8:	afbf0020 	sw	ra,32(sp)
  40c1ac:	afbc001c 	sw	gp,28(sp)
  40c1b0:	00004821 	move	t1,zero
  40c1b4:	10400003 	beqz	v0,40c1c4 <fread_unlocked+0x48>
  40c1b8:	00c02821 	move	a1,a2
  40c1bc:	10000012 	b	40c208 <fread_unlocked+0x8c>
  40c1c0:	a4e30000 	sh	v1,0(a3)
  40c1c4:	00e03021 	move	a2,a3
  40c1c8:	a4e80000 	sh	t0,0(a3)
  40c1cc:	1200000d 	beqz	s0,40c204 <fread_unlocked+0x88>
  40c1d0:	00001021 	move	v0,zero
  40c1d4:	00b00018 	mult	a1,s0
  40c1d8:	00002812 	mflo	a1
  40c1dc:	8f990188 	lw	t9,392(gp)
  40c1e0:	00000000 	nop
  40c1e4:	0320f809 	jalr	t9
  40c1e8:	00000000 	nop
  40c1ec:	8fbc0010 	lw	gp,16(sp)
  40c1f0:	16000002 	bnez	s0,40c1fc <fread_unlocked+0x80>
  40c1f4:	00000000 	nop
  40c1f8:	0007000d 	break	0x7
  40c1fc:	0050001b 	divu	zero,v0,s0
  40c200:	00001012 	mflo	v0
  40c204:	00404821 	move	t1,v0
  40c208:	8fbf0020 	lw	ra,32(sp)
  40c20c:	8fb00018 	lw	s0,24(sp)
  40c210:	01201021 	move	v0,t1
  40c214:	03e00008 	jr	ra
  40c218:	27bd0028 	addiu	sp,sp,40
  40c21c:	00000000 	nop
  40c220:	3c1c0000 	lui	gp,0x0
  40c224:	279c2840 	addiu	gp,gp,10304
  40c228:	0399e021 	addu	gp,gp,t9
  40c22c:	27bdffd8 	addiu	sp,sp,-40
  40c230:	afbc0010 	sw	gp,16(sp)
  40c234:	afb00018 	sw	s0,24(sp)
  40c238:	afbf0020 	sw	ra,32(sp)
  40c23c:	afbc001c 	sw	gp,28(sp)
  40c240:	10c00006 	beqz	a2,40c25c <fread_unlocked+0xe0>
  40c244:	00808021 	move	s0,a0
  40c248:	94820000 	lhu	v0,0(a0)
  40c24c:	00000000 	nop
  40c250:	30420004 	andi	v0,v0,0x4
  40c254:	10400003 	beqz	v0,40c264 <fread_unlocked+0xe8>
  40c258:	00000000 	nop
  40c25c:	10000017 	b	40c2bc <fread_unlocked+0x140>
  40c260:	00001021 	move	v0,zero
  40c264:	04c10003 	bgez	a2,40c274 <fread_unlocked+0xf8>
  40c268:	00000000 	nop
  40c26c:	3c067fff 	lui	a2,0x7fff
  40c270:	34c6ffff 	ori	a2,a2,0xffff
  40c274:	8e04000c 	lw	a0,12(s0)
  40c278:	8f9901d4 	lw	t9,468(gp)
  40c27c:	00000000 	nop
  40c280:	0320f809 	jalr	t9
  40c284:	00000000 	nop
  40c288:	8fbc0010 	lw	gp,16(sp)
  40c28c:	1c40000a 	bgtz	v0,40c2b8 <fread_unlocked+0x13c>
  40c290:	00401821 	move	v1,v0
  40c294:	96020000 	lhu	v0,0(s0)
  40c298:	14600004 	bnez	v1,40c2ac <fread_unlocked+0x130>
  40c29c:	00000000 	nop
  40c2a0:	34420004 	ori	v0,v0,0x4
  40c2a4:	10000004 	b	40c2b8 <fread_unlocked+0x13c>
  40c2a8:	a6020000 	sh	v0,0(s0)
  40c2ac:	34420008 	ori	v0,v0,0x8
  40c2b0:	a6020000 	sh	v0,0(s0)
  40c2b4:	00001821 	move	v1,zero
  40c2b8:	00601021 	move	v0,v1
  40c2bc:	8fbf0020 	lw	ra,32(sp)
  40c2c0:	8fb00018 	lw	s0,24(sp)
  40c2c4:	03e00008 	jr	ra
  40c2c8:	27bd0028 	addiu	sp,sp,40

0040c2cc <_stdio_fread>:
  40c2cc:	3c1c0000 	lui	gp,0x0
  40c2d0:	279c2794 	addiu	gp,gp,10132
  40c2d4:	0399e021 	addu	gp,gp,t9
  40c2d8:	27bdffd0 	addiu	sp,sp,-48
  40c2dc:	afbc0010 	sw	gp,16(sp)
  40c2e0:	afb30024 	sw	s3,36(sp)
  40c2e4:	afb1001c 	sw	s1,28(sp)
  40c2e8:	afb00018 	sw	s0,24(sp)
  40c2ec:	afbf002c 	sw	ra,44(sp)
  40c2f0:	afbc0028 	sw	gp,40(sp)
  40c2f4:	afb20020 	sw	s2,32(sp)
  40c2f8:	00c08021 	move	s0,a2
  40c2fc:	94c60000 	lhu	a2,0(a2)
  40c300:	00809821 	move	s3,a0
  40c304:	30c4ffff 	andi	a0,a2,0xffff
  40c308:	30820010 	andi	v0,a0,0x10
  40c30c:	8e030014 	lw	v1,20(s0)
  40c310:	1040000d 	beqz	v0,40c348 <_stdio_fread+0x7c>
  40c314:	00a08821 	move	s1,a1
  40c318:	34c20008 	ori	v0,a2,0x8
  40c31c:	ae030028 	sw	v1,40(s0)
  40c320:	a6020000 	sh	v0,0(s0)
  40c324:	8f9900bc 	lw	t9,188(gp)
  40c328:	00000000 	nop
  40c32c:	0320f809 	jalr	t9
  40c330:	00000000 	nop
  40c334:	8fbc0010 	lw	gp,16(sp)
  40c338:	24030009 	li	v1,9
  40c33c:	00002821 	move	a1,zero
  40c340:	1000007e 	b	40c53c <_stdio_fread+0x270>
  40c344:	ac430000 	sw	v1,0(v0)
  40c348:	30820300 	andi	v0,a0,0x300
  40c34c:	ae030028 	sw	v1,40(s0)
  40c350:	10400007 	beqz	v0,40c370 <_stdio_fread+0xa4>
  40c354:	ae030024 	sw	v1,36(s0)
  40c358:	8f840210 	lw	a0,528(gp)
  40c35c:	8f9900f0 	lw	t9,240(gp)
  40c360:	00000000 	nop
  40c364:	0320f809 	jalr	t9
  40c368:	00000000 	nop
  40c36c:	8fbc0010 	lw	gp,16(sp)
  40c370:	96020000 	lhu	v0,0(s0)
  40c374:	00000000 	nop
  40c378:	30422000 	andi	v0,v0,0x2000
  40c37c:	10400009 	beqz	v0,40c3a4 <_stdio_fread+0xd8>
  40c380:	02002021 	move	a0,s0
  40c384:	8f9900f0 	lw	t9,240(gp)
  40c388:	00000000 	nop
  40c38c:	0320f809 	jalr	t9
  40c390:	00000000 	nop
  40c394:	8fbc0010 	lw	gp,16(sp)
  40c398:	2403ffff 	li	v1,-1
  40c39c:	10430067 	beq	v0,v1,40c53c <_stdio_fread+0x270>
  40c3a0:	00002821 	move	a1,zero
  40c3a4:	96020000 	lhu	v0,0(s0)
  40c3a8:	02609021 	move	s2,s3
  40c3ac:	34421000 	ori	v0,v0,0x1000
  40c3b0:	12200059 	beqz	s1,40c518 <_stdio_fread+0x24c>
  40c3b4:	a6020000 	sh	v0,0(s0)
  40c3b8:	30420003 	andi	v0,v0,0x3
  40c3bc:	10400012 	beqz	v0,40c408 <_stdio_fread+0x13c>
  40c3c0:	00000000 	nop
  40c3c4:	96020000 	lhu	v0,0(s0)
  40c3c8:	2631ffff 	addiu	s1,s1,-1
  40c3cc:	2442ffff 	addiu	v0,v0,-1
  40c3d0:	30430003 	andi	v1,v0,0x3
  40c3d4:	00031880 	sll	v1,v1,0x2
  40c3d8:	00701821 	addu	v1,v1,s0
  40c3dc:	90630007 	lbu	v1,7(v1)
  40c3e0:	a6020000 	sh	v0,0(s0)
  40c3e4:	a2430000 	sb	v1,0(s2)
  40c3e8:	ae000008 	sw	zero,8(s0)
  40c3ec:	1220004a 	beqz	s1,40c518 <_stdio_fread+0x24c>
  40c3f0:	26520001 	addiu	s2,s2,1
  40c3f4:	96020000 	lhu	v0,0(s0)
  40c3f8:	00000000 	nop
  40c3fc:	30420003 	andi	v0,v0,0x3
  40c400:	1440fff0 	bnez	v0,40c3c4 <_stdio_fread+0xf8>
  40c404:	00000000 	nop
  40c408:	12200043 	beqz	s1,40c518 <_stdio_fread+0x24c>
  40c40c:	00000000 	nop
  40c410:	8e04001c 	lw	a0,28(s0)
  40c414:	8e020020 	lw	v0,32(s0)
  40c418:	00000000 	nop
  40c41c:	0082102b 	sltu	v0,a0,v0
  40c420:	1040000e 	beqz	v0,40c45c <_stdio_fread+0x190>
  40c424:	00000000 	nop
  40c428:	90830000 	lbu	v1,0(a0)
  40c42c:	24820001 	addiu	v0,a0,1
  40c430:	2631ffff 	addiu	s1,s1,-1
  40c434:	a2430000 	sb	v1,0(s2)
  40c438:	00402021 	move	a0,v0
  40c43c:	ae02001c 	sw	v0,28(s0)
  40c440:	12200035 	beqz	s1,40c518 <_stdio_fread+0x24c>
  40c444:	26520001 	addiu	s2,s2,1
  40c448:	8e020020 	lw	v0,32(s0)
  40c44c:	00000000 	nop
  40c450:	0082102b 	sltu	v0,a0,v0
  40c454:	1440fff4 	bnez	v0,40c428 <_stdio_fread+0x15c>
  40c458:	00000000 	nop
  40c45c:	1220002e 	beqz	s1,40c518 <_stdio_fread+0x24c>
  40c460:	2402fffe 	li	v0,-2
  40c464:	8e03000c 	lw	v1,12(s0)
  40c468:	00000000 	nop
  40c46c:	14620006 	bne	v1,v0,40c488 <_stdio_fread+0x1bc>
  40c470:	00000000 	nop
  40c474:	96020000 	lhu	v0,0(s0)
  40c478:	00000000 	nop
  40c47c:	34420004 	ori	v0,v0,0x4
  40c480:	1000002d 	b	40c538 <_stdio_fread+0x26c>
  40c484:	a6020000 	sh	v0,0(s0)
  40c488:	8e050014 	lw	a1,20(s0)
  40c48c:	8e020018 	lw	v0,24(s0)
  40c490:	ae050020 	sw	a1,32(s0)
  40c494:	00453023 	subu	a2,v0,a1
  40c498:	00d1102b 	sltu	v0,a2,s1
  40c49c:	14400010 	bnez	v0,40c4e0 <_stdio_fread+0x214>
  40c4a0:	ae05001c 	sw	a1,28(s0)
  40c4a4:	02002021 	move	a0,s0
  40c4a8:	8f99000c 	lw	t9,12(gp)
  40c4ac:	00000000 	nop
  40c4b0:	2739c220 	addiu	t9,t9,-15840
  40c4b4:	00000000 	nop
  40c4b8:	0320f809 	jalr	t9
  40c4bc:	00000000 	nop
  40c4c0:	8fbc0010 	lw	gp,16(sp)
  40c4c4:	18400014 	blez	v0,40c518 <_stdio_fread+0x24c>
  40c4c8:	00401821 	move	v1,v0
  40c4cc:	8e020020 	lw	v0,32(s0)
  40c4d0:	00000000 	nop
  40c4d4:	00431021 	addu	v0,v0,v1
  40c4d8:	1000ffcb 	b	40c408 <_stdio_fread+0x13c>
  40c4dc:	ae020020 	sw	v0,32(s0)
  40c4e0:	02002021 	move	a0,s0
  40c4e4:	02402821 	move	a1,s2
  40c4e8:	02203021 	move	a2,s1
  40c4ec:	8f99000c 	lw	t9,12(gp)
  40c4f0:	00000000 	nop
  40c4f4:	2739c220 	addiu	t9,t9,-15840
  40c4f8:	00000000 	nop
  40c4fc:	0320f809 	jalr	t9
  40c500:	00000000 	nop
  40c504:	8fbc0010 	lw	gp,16(sp)
  40c508:	18400003 	blez	v0,40c518 <_stdio_fread+0x24c>
  40c50c:	02228823 	subu	s1,s1,v0
  40c510:	1000ffbd 	b	40c408 <_stdio_fread+0x13c>
  40c514:	02429021 	addu	s2,s2,v0
  40c518:	96020000 	lhu	v0,0(s0)
  40c51c:	00000000 	nop
  40c520:	30420b0b 	andi	v0,v0,0xb0b
  40c524:	14400005 	bnez	v0,40c53c <_stdio_fread+0x270>
  40c528:	02532823 	subu	a1,s2,s3
  40c52c:	8e020020 	lw	v0,32(s0)
  40c530:	00000000 	nop
  40c534:	ae020024 	sw	v0,36(s0)
  40c538:	02532823 	subu	a1,s2,s3
  40c53c:	8fbf002c 	lw	ra,44(sp)
  40c540:	8fb30024 	lw	s3,36(sp)
  40c544:	8fb20020 	lw	s2,32(sp)
  40c548:	8fb1001c 	lw	s1,28(sp)
  40c54c:	8fb00018 	lw	s0,24(sp)
  40c550:	00a01021 	move	v0,a1
  40c554:	03e00008 	jr	ra
  40c558:	27bd0030 	addiu	sp,sp,48
  40c55c:	00000000 	nop

0040c560 <_uintmaxtostr>:
  40c560:	3c1c0000 	lui	gp,0x0
  40c564:	279c2500 	addiu	gp,gp,9472
  40c568:	0399e021 	addu	gp,gp,t9
  40c56c:	8fa80010 	lw	t0,16(sp)
  40c570:	00805821 	move	t3,a0
  40c574:	8faf0014 	lw	t7,20(sp)
  40c578:	05010008 	bgez	t0,40c59c <_uintmaxtostr+0x3c>
  40c57c:	00007021 	move	t6,zero
  40c580:	04c10006 	bgez	a2,40c59c <_uintmaxtostr+0x3c>
  40c584:	00084023 	negu	t0,t0
  40c588:	00073823 	negu	a3,a3
  40c58c:	00063023 	negu	a2,a2
  40c590:	0007102b 	sltu	v0,zero,a3
  40c594:	00c23023 	subu	a2,a2,v0
  40c598:	240e0001 	li	t6,1
  40c59c:	2402ffff 	li	v0,-1
  40c5a0:	0048001b 	divu	zero,v0,t0
  40c5a4:	a1600000 	sb	zero,0(t3)
  40c5a8:	15000002 	bnez	t0,40c5b4 <_uintmaxtostr+0x54>
  40c5ac:	00000000 	nop
  40c5b0:	0007000d 	break	0x7
  40c5b4:	00001810 	mfhi	v1
  40c5b8:	246c0001 	addiu	t4,v1,1
  40c5bc:	00001012 	mflo	v0
  40c5c0:	00006812 	mflo	t5
  40c5c4:	15880003 	bne	t4,t0,40c5d4 <_uintmaxtostr+0x74>
  40c5c8:	00061802 	srl	v1,a2,0x0
  40c5cc:	244d0001 	addiu	t5,v0,1
  40c5d0:	00006021 	move	t4,zero
  40c5d4:	00605021 	move	t2,v1
  40c5d8:	00e01821 	move	v1,a3
  40c5dc:	1140001e 	beqz	t2,40c658 <_uintmaxtostr+0xf8>
  40c5e0:	00000000 	nop
  40c5e4:	0148001b 	divu	zero,t2,t0
  40c5e8:	15000002 	bnez	t0,40c5f4 <_uintmaxtostr+0x94>
  40c5ec:	00000000 	nop
  40c5f0:	0007000d 	break	0x7
  40c5f4:	00002010 	mfhi	a0
  40c5f8:	00001012 	mflo	v0
  40c5fc:	00005012 	mflo	t2
	...
  40c608:	0068001b 	divu	zero,v1,t0
  40c60c:	00002810 	mfhi	a1
  40c610:	00001812 	mflo	v1
	...
  40c61c:	01840018 	mult	t4,a0
  40c620:	00001012 	mflo	v0
  40c624:	00a24821 	addu	t1,a1,v0
  40c628:	00000000 	nop
  40c62c:	0128001b 	divu	zero,t1,t0
  40c630:	00001010 	mfhi	v0
  40c634:	00004810 	mfhi	t1
  40c638:	00002812 	mflo	a1
	...
  40c644:	01a40018 	mult	t5,a0
  40c648:	00002012 	mflo	a0
  40c64c:	00641821 	addu	v1,v1,a0
  40c650:	10000007 	b	40c670 <_uintmaxtostr+0x110>
  40c654:	00651821 	addu	v1,v1,a1
  40c658:	0068001b 	divu	zero,v1,t0
  40c65c:	15000002 	bnez	t0,40c668 <_uintmaxtostr+0x108>
  40c660:	00000000 	nop
  40c664:	0007000d 	break	0x7
  40c668:	00001812 	mflo	v1
  40c66c:	00004810 	mfhi	t1
  40c670:	2d22000a 	sltiu	v0,t1,10
  40c674:	006a2825 	or	a1,v1,t2
  40c678:	25240030 	addiu	a0,t1,48
  40c67c:	14400002 	bnez	v0,40c688 <_uintmaxtostr+0x128>
  40c680:	256bffff 	addiu	t3,t3,-1
  40c684:	012f2021 	addu	a0,t1,t7
  40c688:	14a0ffd4 	bnez	a1,40c5dc <_uintmaxtostr+0x7c>
  40c68c:	a1640000 	sb	a0,0(t3)
  40c690:	11c00004 	beqz	t6,40c6a4 <_uintmaxtostr+0x144>
  40c694:	00000000 	nop
  40c698:	256bffff 	addiu	t3,t3,-1
  40c69c:	2402002d 	li	v0,45
  40c6a0:	a1620000 	sb	v0,0(t3)
  40c6a4:	03e00008 	jr	ra
  40c6a8:	01601021 	move	v0,t3
  40c6ac:	00000000 	nop

0040c6b0 <_store_inttype>:
  40c6b0:	3c1c0000 	lui	gp,0x0
  40c6b4:	279c23b0 	addiu	gp,gp,9136
  40c6b8:	0399e021 	addu	gp,gp,t9
  40c6bc:	24020100 	li	v0,256
  40c6c0:	14a20003 	bne	a1,v0,40c6d0 <_store_inttype+0x20>
  40c6c4:	00000000 	nop
  40c6c8:	03e00008 	jr	ra
  40c6cc:	a0870000 	sb	a3,0(a0)
  40c6d0:	24020800 	li	v0,2048
  40c6d4:	14a20004 	bne	a1,v0,40c6e8 <_store_inttype+0x38>
  40c6d8:	00000000 	nop
  40c6dc:	ac860000 	sw	a2,0(a0)
  40c6e0:	03e00008 	jr	ra
  40c6e4:	ac870004 	sw	a3,4(a0)
  40c6e8:	24020200 	li	v0,512
  40c6ec:	14a20003 	bne	a1,v0,40c6fc <_store_inttype+0x4c>
  40c6f0:	00000000 	nop
  40c6f4:	03e00008 	jr	ra
  40c6f8:	a4870000 	sh	a3,0(a0)
  40c6fc:	03e00008 	jr	ra
  40c700:	ac870000 	sw	a3,0(a0)
	...

0040c710 <_load_inttype>:
  40c710:	3c1c0000 	lui	gp,0x0
  40c714:	279c2350 	addiu	gp,gp,9040
  40c718:	0399e021 	addu	gp,gp,t9
  40c71c:	04c0000e 	bltz	a2,40c758 <_load_inttype+0x48>
  40c720:	30870800 	andi	a3,a0,0x800
  40c724:	14e0000e 	bnez	a3,40c760 <_load_inttype+0x50>
  40c728:	00000000 	nop
  40c72c:	24020100 	li	v0,256
  40c730:	8ca50000 	lw	a1,0(a1)
  40c734:	14820002 	bne	a0,v0,40c740 <_load_inttype+0x30>
  40c738:	24020200 	li	v0,512
  40c73c:	30a500ff 	andi	a1,a1,0xff
  40c740:	14820002 	bne	a0,v0,40c74c <_load_inttype+0x3c>
  40c744:	00000000 	nop
  40c748:	30a5ffff 	andi	a1,a1,0xffff
  40c74c:	00a01821 	move	v1,a1
  40c750:	03e00008 	jr	ra
  40c754:	00001021 	move	v0,zero
  40c758:	10e00005 	beqz	a3,40c770 <_load_inttype+0x60>
  40c75c:	00000000 	nop
  40c760:	8ca20000 	lw	v0,0(a1)
  40c764:	8ca30004 	lw	v1,4(a1)
  40c768:	03e00008 	jr	ra
  40c76c:	00000000 	nop
  40c770:	24020100 	li	v0,256
  40c774:	8ca50000 	lw	a1,0(a1)
  40c778:	14820004 	bne	a0,v0,40c78c <_load_inttype+0x7c>
  40c77c:	24020200 	li	v0,512
  40c780:	00051600 	sll	v0,a1,0x18
  40c784:	00022e03 	sra	a1,v0,0x18
  40c788:	24020200 	li	v0,512
  40c78c:	14820003 	bne	a0,v0,40c79c <_load_inttype+0x8c>
  40c790:	00000000 	nop
  40c794:	00051400 	sll	v0,a1,0x10
  40c798:	00022c03 	sra	a1,v0,0x10
  40c79c:	00a01821 	move	v1,a1
  40c7a0:	03e00008 	jr	ra
  40c7a4:	000517c3 	sra	v0,a1,0x1f
	...

0040c7b0 <_ppfs_init>:
  40c7b0:	3c1c0000 	lui	gp,0x0
  40c7b4:	279c22b0 	addiu	gp,gp,8880
  40c7b8:	0399e021 	addu	gp,gp,t9
  40c7bc:	27bdffd8 	addiu	sp,sp,-40
  40c7c0:	afbc0010 	sw	gp,16(sp)
  40c7c4:	afb1001c 	sw	s1,28(sp)
  40c7c8:	afb00018 	sw	s0,24(sp)
  40c7cc:	00a08821 	move	s1,a1
  40c7d0:	00808021 	move	s0,a0
  40c7d4:	00002821 	move	a1,zero
  40c7d8:	24060098 	li	a2,152
  40c7dc:	afbf0024 	sw	ra,36(sp)
  40c7e0:	afbc0020 	sw	gp,32(sp)
  40c7e4:	8f990164 	lw	t9,356(gp)
  40c7e8:	00000000 	nop
  40c7ec:	0320f809 	jalr	t9
  40c7f0:	00000000 	nop
  40c7f4:	8fbc0010 	lw	gp,16(sp)
  40c7f8:	8e020018 	lw	v0,24(s0)
  40c7fc:	ae110000 	sw	s1,0(s0)
  40c800:	2442ffff 	addiu	v0,v0,-1
  40c804:	ae020018 	sw	v0,24(s0)
  40c808:	26030028 	addiu	v1,s0,40
  40c80c:	24040009 	li	a0,9
  40c810:	24020008 	li	v0,8
  40c814:	2484ffff 	addiu	a0,a0,-1
  40c818:	ac620000 	sw	v0,0(v1)
  40c81c:	1480fffd 	bnez	a0,40c814 <_ppfs_init+0x64>
  40c820:	24630004 	addiu	v1,v1,4
  40c824:	82220000 	lb	v0,0(s1)
  40c828:	00000000 	nop
  40c82c:	1040001b 	beqz	v0,40c89c <_ppfs_init+0xec>
  40c830:	02201821 	move	v1,s1
  40c834:	80650000 	lb	a1,0(v1)
  40c838:	24020025 	li	v0,37
  40c83c:	14a20012 	bne	a1,v0,40c888 <_ppfs_init+0xd8>
  40c840:	00000000 	nop
  40c844:	24630001 	addiu	v1,v1,1
  40c848:	80620000 	lb	v0,0(v1)
  40c84c:	00000000 	nop
  40c850:	1045000d 	beq	v0,a1,40c888 <_ppfs_init+0xd8>
  40c854:	02002021 	move	a0,s0
  40c858:	ae030000 	sw	v1,0(s0)
  40c85c:	8f990068 	lw	t9,104(gp)
  40c860:	00000000 	nop
  40c864:	0320f809 	jalr	t9
  40c868:	00000000 	nop
  40c86c:	8fbc0010 	lw	gp,16(sp)
  40c870:	00402021 	move	a0,v0
  40c874:	0480000b 	bltz	a0,40c8a4 <_ppfs_init+0xf4>
  40c878:	2402ffff 	li	v0,-1
  40c87c:	8e030000 	lw	v1,0(s0)
  40c880:	10000002 	b	40c88c <_ppfs_init+0xdc>
  40c884:	00000000 	nop
  40c888:	24630001 	addiu	v1,v1,1
  40c88c:	80620000 	lb	v0,0(v1)
  40c890:	00000000 	nop
  40c894:	1440ffe7 	bnez	v0,40c834 <_ppfs_init+0x84>
  40c898:	00000000 	nop
  40c89c:	ae110000 	sw	s1,0(s0)
  40c8a0:	00001021 	move	v0,zero
  40c8a4:	8fbf0024 	lw	ra,36(sp)
  40c8a8:	8fb1001c 	lw	s1,28(sp)
  40c8ac:	8fb00018 	lw	s0,24(sp)
  40c8b0:	03e00008 	jr	ra
  40c8b4:	27bd0028 	addiu	sp,sp,40
	...

0040c8c0 <_ppfs_prepargs>:
  40c8c0:	3c1c0000 	lui	gp,0x0
  40c8c4:	279c21a0 	addiu	gp,gp,8608
  40c8c8:	0399e021 	addu	gp,gp,t9
  40c8cc:	27bdffd8 	addiu	sp,sp,-40
  40c8d0:	afbc0010 	sw	gp,16(sp)
  40c8d4:	afb00018 	sw	s0,24(sp)
  40c8d8:	afbf0024 	sw	ra,36(sp)
  40c8dc:	afbc0020 	sw	gp,32(sp)
  40c8e0:	afb1001c 	sw	s1,28(sp)
  40c8e4:	8c910018 	lw	s1,24(a0)
  40c8e8:	00808021 	move	s0,a0
  40c8ec:	1a20000b 	blez	s1,40c91c <_ppfs_prepargs+0x5c>
  40c8f0:	ac85004c 	sw	a1,76(a0)
  40c8f4:	ac91001c 	sw	s1,28(a0)
  40c8f8:	ac800018 	sw	zero,24(a0)
  40c8fc:	ac800004 	sw	zero,4(a0)
  40c900:	ac800008 	sw	zero,8(a0)
  40c904:	8f99010c 	lw	t9,268(gp)
  40c908:	00000000 	nop
  40c90c:	0320f809 	jalr	t9
  40c910:	00000000 	nop
  40c914:	8fbc0010 	lw	gp,16(sp)
  40c918:	ae110018 	sw	s1,24(s0)
  40c91c:	8fbf0024 	lw	ra,36(sp)
  40c920:	8fb1001c 	lw	s1,28(sp)
  40c924:	8fb00018 	lw	s0,24(sp)
  40c928:	03e00008 	jr	ra
  40c92c:	27bd0028 	addiu	sp,sp,40

0040c930 <_ppfs_setargs>:
  40c930:	3c1c0000 	lui	gp,0x0
  40c934:	279c2130 	addiu	gp,gp,8496
  40c938:	0399e021 	addu	gp,gp,t9
  40c93c:	8c820018 	lw	v0,24(a0)
  40c940:	00802821 	move	a1,a0
  40c944:	8ca30008 	lw	v1,8(a1)
  40c948:	14400065 	bnez	v0,40cae0 <_ppfs_setargs+0x1b0>
  40c94c:	24840050 	addiu	a0,a0,80
  40c950:	3c068000 	lui	a2,0x8000
  40c954:	1466000b 	bne	v1,a2,40c984 <_ppfs_setargs+0x54>
  40c958:	2403fffc 	li	v1,-4
  40c95c:	8ca2004c 	lw	v0,76(a1)
  40c960:	00000000 	nop
  40c964:	24420003 	addiu	v0,v0,3
  40c968:	00431024 	and	v0,v0,v1
  40c96c:	24430004 	addiu	v1,v0,4
  40c970:	aca3004c 	sw	v1,76(a1)
  40c974:	8c420000 	lw	v0,0(v0)
  40c978:	00000000 	nop
  40c97c:	aca20008 	sw	v0,8(a1)
  40c980:	aca20050 	sw	v0,80(a1)
  40c984:	8ca20004 	lw	v0,4(a1)
  40c988:	00000000 	nop
  40c98c:	1446000b 	bne	v0,a2,40c9bc <_ppfs_setargs+0x8c>
  40c990:	2403fffc 	li	v1,-4
  40c994:	8ca2004c 	lw	v0,76(a1)
  40c998:	00000000 	nop
  40c99c:	24420003 	addiu	v0,v0,3
  40c9a0:	00431024 	and	v0,v0,v1
  40c9a4:	24430004 	addiu	v1,v0,4
  40c9a8:	aca3004c 	sw	v1,76(a1)
  40c9ac:	8c420000 	lw	v0,0(v0)
  40c9b0:	00000000 	nop
  40c9b4:	aca20004 	sw	v0,4(a1)
  40c9b8:	aca20050 	sw	v0,80(a1)
  40c9bc:	8ca2001c 	lw	v0,28(a1)
  40c9c0:	00000000 	nop
  40c9c4:	1840005b 	blez	v0,40cb34 <_ppfs_setargs+0x204>
  40c9c8:	00003821 	move	a3,zero
  40c9cc:	24a60024 	addiu	a2,a1,36
  40c9d0:	24c60004 	addiu	a2,a2,4
  40c9d4:	8cc30000 	lw	v1,0(a2)
  40c9d8:	24020007 	li	v0,7
  40c9dc:	10620022 	beq	v1,v0,40ca68 <_ppfs_setargs+0x138>
  40c9e0:	24e70001 	addiu	a3,a3,1
  40c9e4:	28620008 	slti	v0,v1,8
  40c9e8:	1440002c 	bnez	v0,40ca9c <_ppfs_setargs+0x16c>
  40c9ec:	24020200 	li	v0,512
  40c9f0:	1062002a 	beq	v1,v0,40ca9c <_ppfs_setargs+0x16c>
  40c9f4:	28620201 	slti	v0,v1,513
  40c9f8:	10400006 	beqz	v0,40ca14 <_ppfs_setargs+0xe4>
  40c9fc:	24020800 	li	v0,2048
  40ca00:	24020008 	li	v0,8
  40ca04:	1062002f 	beq	v1,v0,40cac4 <_ppfs_setargs+0x194>
  40ca08:	00000000 	nop
  40ca0c:	10000023 	b	40ca9c <_ppfs_setargs+0x16c>
  40ca10:	00000000 	nop
  40ca14:	10620007 	beq	v1,v0,40ca34 <_ppfs_setargs+0x104>
  40ca18:	28620801 	slti	v0,v1,2049
  40ca1c:	1440001f 	bnez	v0,40ca9c <_ppfs_setargs+0x16c>
  40ca20:	24020807 	li	v0,2055
  40ca24:	10620010 	beq	v1,v0,40ca68 <_ppfs_setargs+0x138>
  40ca28:	00000000 	nop
  40ca2c:	1000001b 	b	40ca9c <_ppfs_setargs+0x16c>
  40ca30:	00000000 	nop
  40ca34:	8ca2004c 	lw	v0,76(a1)
  40ca38:	2403fff8 	li	v1,-8
  40ca3c:	24420007 	addiu	v0,v0,7
  40ca40:	00431024 	and	v0,v0,v1
  40ca44:	24430008 	addiu	v1,v0,8
  40ca48:	aca3004c 	sw	v1,76(a1)
  40ca4c:	8c430004 	lw	v1,4(v0)
  40ca50:	8c420000 	lw	v0,0(v0)
  40ca54:	00000000 	nop
  40ca58:	ac820000 	sw	v0,0(a0)
  40ca5c:	ac830004 	sw	v1,4(a0)
  40ca60:	10000018 	b	40cac4 <_ppfs_setargs+0x194>
  40ca64:	24840008 	addiu	a0,a0,8
  40ca68:	8ca2004c 	lw	v0,76(a1)
  40ca6c:	2403fff8 	li	v1,-8
  40ca70:	24420007 	addiu	v0,v0,7
  40ca74:	00431024 	and	v0,v0,v1
  40ca78:	24430008 	addiu	v1,v0,8
  40ca7c:	aca3004c 	sw	v1,76(a1)
  40ca80:	8c430004 	lw	v1,4(v0)
  40ca84:	8c420000 	lw	v0,0(v0)
  40ca88:	00000000 	nop
  40ca8c:	ac820000 	sw	v0,0(a0)
  40ca90:	ac830004 	sw	v1,4(a0)
  40ca94:	1000000b 	b	40cac4 <_ppfs_setargs+0x194>
  40ca98:	24840008 	addiu	a0,a0,8
  40ca9c:	8ca2004c 	lw	v0,76(a1)
  40caa0:	2403fffc 	li	v1,-4
  40caa4:	24420003 	addiu	v0,v0,3
  40caa8:	00431024 	and	v0,v0,v1
  40caac:	24430004 	addiu	v1,v0,4
  40cab0:	aca3004c 	sw	v1,76(a1)
  40cab4:	8c420000 	lw	v0,0(v0)
  40cab8:	00000000 	nop
  40cabc:	ac820000 	sw	v0,0(a0)
  40cac0:	24840008 	addiu	a0,a0,8
  40cac4:	8ca2001c 	lw	v0,28(a1)
  40cac8:	00000000 	nop
  40cacc:	00e2102a 	slt	v0,a3,v0
  40cad0:	1440ffbf 	bnez	v0,40c9d0 <_ppfs_setargs+0xa0>
  40cad4:	00000000 	nop
  40cad8:	10000016 	b	40cb34 <_ppfs_setargs+0x204>
  40cadc:	00000000 	nop
  40cae0:	3c068000 	lui	a2,0x8000
  40cae4:	14660008 	bne	v1,a2,40cb08 <_ppfs_setargs+0x1d8>
  40cae8:	00000000 	nop
  40caec:	90a20024 	lbu	v0,36(a1)
  40caf0:	00000000 	nop
  40caf4:	000210c0 	sll	v0,v0,0x3
  40caf8:	00441021 	addu	v0,v0,a0
  40cafc:	8c42fff8 	lw	v0,-8(v0)
  40cb00:	00000000 	nop
  40cb04:	aca20008 	sw	v0,8(a1)
  40cb08:	8ca20004 	lw	v0,4(a1)
  40cb0c:	00000000 	nop
  40cb10:	14460008 	bne	v0,a2,40cb34 <_ppfs_setargs+0x204>
  40cb14:	00000000 	nop
  40cb18:	90a20025 	lbu	v0,37(a1)
  40cb1c:	00000000 	nop
  40cb20:	000210c0 	sll	v0,v0,0x3
  40cb24:	00441021 	addu	v0,v0,a0
  40cb28:	8c42fff8 	lw	v0,-8(v0)
  40cb2c:	00000000 	nop
  40cb30:	aca20004 	sw	v0,4(a1)
  40cb34:	8ca40008 	lw	a0,8(a1)
  40cb38:	00000000 	nop
  40cb3c:	0481000a 	bgez	a0,40cb68 <_ppfs_setargs+0x238>
  40cb40:	2402fffe 	li	v0,-2
  40cb44:	8ca30010 	lw	v1,16(a1)
  40cb48:	00000000 	nop
  40cb4c:	34630008 	ori	v1,v1,0x8
  40cb50:	00621824 	and	v1,v1,v0
  40cb54:	00042023 	negu	a0,a0
  40cb58:	24020020 	li	v0,32
  40cb5c:	aca20014 	sw	v0,20(a1)
  40cb60:	aca40008 	sw	a0,8(a1)
  40cb64:	aca30010 	sw	v1,16(a1)
  40cb68:	03e00008 	jr	ra
  40cb6c:	00000000 	nop
  40cb70:	3c1c0000 	lui	gp,0x0
  40cb74:	279c1ef0 	addiu	gp,gp,7920
  40cb78:	0399e021 	addu	gp,gp,t9
  40cb7c:	8f83000c 	lw	v1,12(gp)
  40cb80:	00000000 	nop
  40cb84:	24630c38 	addiu	v1,v1,3128
  40cb88:	2463fffe 	addiu	v1,v1,-2
  40cb8c:	8f82000c 	lw	v0,12(gp)
  40cb90:	00000000 	nop
  40cb94:	24420c20 	addiu	v0,v0,3104
  40cb98:	00000000 	nop
  40cb9c:	0043282b 	sltu	a1,v0,v1
  40cba0:	84620000 	lh	v0,0(v1)
  40cba4:	00000000 	nop
  40cba8:	10440003 	beq	v0,a0,40cbb8 <_ppfs_setargs+0x288>
  40cbac:	00000000 	nop
  40cbb0:	14a0fff5 	bnez	a1,40cb88 <_ppfs_setargs+0x258>
  40cbb4:	00000000 	nop
  40cbb8:	8f82000c 	lw	v0,12(gp)
  40cbbc:	00000000 	nop
  40cbc0:	24420c20 	addiu	v0,v0,3104
  40cbc4:	00000000 	nop
  40cbc8:	00621023 	subu	v0,v1,v0
  40cbcc:	00021043 	sra	v0,v0,0x1
  40cbd0:	8f81000c 	lw	at,12(gp)
  40cbd4:	00000000 	nop
  40cbd8:	24210c38 	addiu	at,at,3128
  40cbdc:	00220821 	addu	at,at,v0
  40cbe0:	90220000 	lbu	v0,0(at)
  40cbe4:	03e00008 	jr	ra
  40cbe8:	00000000 	nop
  40cbec:	3c1c0000 	lui	gp,0x0
  40cbf0:	279c1e74 	addiu	gp,gp,7796
  40cbf4:	0399e021 	addu	gp,gp,t9
  40cbf8:	27bdffd8 	addiu	sp,sp,-40
  40cbfc:	afbc0010 	sw	gp,16(sp)
  40cc00:	afb1001c 	sw	s1,28(sp)
  40cc04:	00a08821 	move	s1,a1
  40cc08:	24050008 	li	a1,8
  40cc0c:	afbf0024 	sw	ra,36(sp)
  40cc10:	afbc0020 	sw	gp,32(sp)
  40cc14:	afb00018 	sw	s0,24(sp)
  40cc18:	12250017 	beq	s1,a1,40cc78 <_ppfs_setargs+0x348>
  40cc1c:	00001021 	move	v0,zero
  40cc20:	10850015 	beq	a0,a1,40cc78 <_ppfs_setargs+0x348>
  40cc24:	24020001 	li	v0,1
  40cc28:	10910013 	beq	a0,s1,40cc78 <_ppfs_setargs+0x348>
  40cc2c:	00000000 	nop
  40cc30:	8f99000c 	lw	t9,12(gp)
  40cc34:	00000000 	nop
  40cc38:	2739cb70 	addiu	t9,t9,-13456
  40cc3c:	00000000 	nop
  40cc40:	0320f809 	jalr	t9
  40cc44:	00000000 	nop
  40cc48:	8fbc0010 	lw	gp,16(sp)
  40cc4c:	02202021 	move	a0,s1
  40cc50:	00408021 	move	s0,v0
  40cc54:	8f99000c 	lw	t9,12(gp)
  40cc58:	00000000 	nop
  40cc5c:	2739cb70 	addiu	t9,t9,-13456
  40cc60:	00000000 	nop
  40cc64:	0320f809 	jalr	t9
  40cc68:	00000000 	nop
  40cc6c:	8fbc0010 	lw	gp,16(sp)
  40cc70:	0050102a 	slt	v0,v0,s0
  40cc74:	38420001 	xori	v0,v0,0x1
  40cc78:	8fbf0024 	lw	ra,36(sp)
  40cc7c:	8fb1001c 	lw	s1,28(sp)
  40cc80:	8fb00018 	lw	s0,24(sp)
  40cc84:	03e00008 	jr	ra
  40cc88:	27bd0028 	addiu	sp,sp,40

0040cc8c <_ppfs_parsespec>:
  40cc8c:	3c1c0000 	lui	gp,0x0
  40cc90:	279c1dd4 	addiu	gp,gp,7636
  40cc94:	0399e021 	addu	gp,gp,t9
  40cc98:	27bdff80 	addiu	sp,sp,-128
  40cc9c:	afbc0010 	sw	gp,16(sp)
  40cca0:	afb5006c 	sw	s5,108(sp)
  40cca4:	afbf0078 	sw	ra,120(sp)
  40cca8:	afbc0074 	sw	gp,116(sp)
  40ccac:	afb60070 	sw	s6,112(sp)
  40ccb0:	afb40068 	sw	s4,104(sp)
  40ccb4:	afb30064 	sw	s3,100(sp)
  40ccb8:	afb20060 	sw	s2,96(sp)
  40ccbc:	afb1005c 	sw	s1,92(sp)
  40ccc0:	afb00058 	sw	s0,88(sp)
  40ccc4:	8c820010 	lw	v0,16(a0)
  40ccc8:	24030008 	li	v1,8
  40cccc:	afa3001c 	sw	v1,28(sp)
  40ccd0:	afa00028 	sw	zero,40(sp)
  40ccd4:	afa0002c 	sw	zero,44(sp)
  40ccd8:	afa30018 	sw	v1,24(sp)
  40ccdc:	30480080 	andi	t0,v0,0x80
  40cce0:	0080a821 	move	s5,a0
  40cce4:	240affff 	li	t2,-1
  40cce8:	8c960018 	lw	s6,24(a0)
  40ccec:	00003021 	move	a2,zero
  40ccf0:	15000004 	bnez	t0,40cd04 <_ppfs_parsespec+0x78>
  40ccf4:	00004821 	move	t1,zero
  40ccf8:	8c900000 	lw	s0,0(a0)
  40ccfc:	10000016 	b	40cd58 <_ppfs_parsespec+0xcc>
  40cd00:	00000000 	nop
  40cd04:	27b00039 	addiu	s0,sp,57
  40cd08:	00008821 	move	s1,zero
  40cd0c:	8ea20000 	lw	v0,0(s5)
  40cd10:	00112080 	sll	a0,s1,0x2
  40cd14:	00822021 	addu	a0,a0,v0
  40cd18:	9083ffff 	lbu	v1,-1(a0)
  40cd1c:	27a20018 	addiu	v0,sp,24
  40cd20:	02222821 	addu	a1,s1,v0
  40cd24:	03b11021 	addu	v0,sp,s1
  40cd28:	a0430038 	sb	v1,56(v0)
  40cd2c:	8c82fffc 	lw	v0,-4(a0)
  40cd30:	00031e00 	sll	v1,v1,0x18
  40cd34:	00031e03 	sra	v1,v1,0x18
  40cd38:	26310001 	addiu	s1,s1,1
  40cd3c:	1462014b 	bne	v1,v0,40d26c <_ppfs_parsespec+0x5e0>
  40cd40:	2404ffff 	li	a0,-1
  40cd44:	80a20020 	lb	v0,32(a1)
  40cd48:	00000000 	nop
  40cd4c:	1440ffef 	bnez	v0,40cd0c <_ppfs_parsespec+0x80>
  40cd50:	00000000 	nop
  40cd54:	a3a00057 	sb	zero,87(sp)
  40cd58:	82030000 	lb	v1,0(s0)
  40cd5c:	2402002a 	li	v0,42
  40cd60:	14620005 	bne	v1,v0,40cd78 <_ppfs_parsespec+0xec>
  40cd64:	02002821 	move	a1,s0
  40cd68:	30c20004 	andi	v0,a2,0x4
  40cd6c:	03a21021 	addu	v0,sp,v0
  40cd70:	ac400018 	sw	zero,24(v0)
  40cd74:	26100001 	addiu	s0,s0,1
  40cd78:	92020000 	lbu	v0,0(s0)
  40cd7c:	8f840324 	lw	a0,804(gp)
  40cd80:	00000000 	nop
  40cd84:	8c840000 	lw	a0,0(a0)
  40cd88:	00021e00 	sll	v1,v0,0x18
  40cd8c:	000315c3 	sra	v0,v1,0x17
  40cd90:	00441021 	addu	v0,v0,a0
  40cd94:	94420000 	lhu	v0,0(v0)
  40cd98:	00000000 	nop
  40cd9c:	30420008 	andi	v0,v0,0x8
  40cda0:	10400014 	beqz	v0,40cdf4 <_ppfs_parsespec+0x168>
  40cda4:	00008821 	move	s1,zero
  40cda8:	00111080 	sll	v0,s1,0x2
  40cdac:	00511021 	addu	v0,v0,s1
  40cdb0:	00021040 	sll	v0,v0,0x1
  40cdb4:	00031e03 	sra	v1,v1,0x18
  40cdb8:	00431821 	addu	v1,v0,v1
  40cdbc:	2a220fff 	slti	v0,s1,4095
  40cdc0:	10400002 	beqz	v0,40cdcc <_ppfs_parsespec+0x140>
  40cdc4:	26100001 	addiu	s0,s0,1
  40cdc8:	2471ffd0 	addiu	s1,v1,-48
  40cdcc:	92020000 	lbu	v0,0(s0)
  40cdd0:	00000000 	nop
  40cdd4:	00021e00 	sll	v1,v0,0x18
  40cdd8:	000315c3 	sra	v0,v1,0x17
  40cddc:	00441021 	addu	v0,v0,a0
  40cde0:	94420000 	lhu	v0,0(v0)
  40cde4:	00000000 	nop
  40cde8:	30420008 	andi	v0,v0,0x8
  40cdec:	1440ffef 	bnez	v0,40cdac <_ppfs_parsespec+0x120>
  40cdf0:	00111080 	sll	v0,s1,0x2
  40cdf4:	80a3ffff 	lb	v1,-1(a1)
  40cdf8:	24020025 	li	v0,37
  40cdfc:	14620039 	bne	v1,v0,40cee4 <_ppfs_parsespec+0x258>
  40ce00:	24020024 	li	v0,36
  40ce04:	82030000 	lb	v1,0(s0)
  40ce08:	92040000 	lbu	a0,0(s0)
  40ce0c:	1462000b 	bne	v1,v0,40ce3c <_ppfs_parsespec+0x1b0>
  40ce10:	00000000 	nop
  40ce14:	1a200009 	blez	s1,40ce3c <_ppfs_parsespec+0x1b0>
  40ce18:	00000000 	nop
  40ce1c:	26100001 	addiu	s0,s0,1
  40ce20:	12c00112 	beqz	s6,40d26c <_ppfs_parsespec+0x5e0>
  40ce24:	2404ffff 	li	a0,-1
  40ce28:	02d1102a 	slt	v0,s6,s1
  40ce2c:	10400016 	beqz	v0,40ce88 <_ppfs_parsespec+0x1fc>
  40ce30:	afb10030 	sw	s1,48(sp)
  40ce34:	10000014 	b	40ce88 <_ppfs_parsespec+0x1fc>
  40ce38:	0220b021 	move	s6,s1
  40ce3c:	1ac0000a 	blez	s6,40ce68 <_ppfs_parsespec+0x1dc>
  40ce40:	00041600 	sll	v0,a0,0x18
  40ce44:	00021603 	sra	v0,v0,0x18
  40ce48:	2403006d 	li	v1,109
  40ce4c:	14430107 	bne	v0,v1,40d26c <_ppfs_parsespec+0x5e0>
  40ce50:	2404ffff 	li	a0,-1
  40ce54:	10000023 	b	40cee4 <_ppfs_parsespec+0x258>
  40ce58:	00000000 	nop
  40ce5c:	01114025 	or	t0,t0,s1
  40ce60:	10000009 	b	40ce88 <_ppfs_parsespec+0x1fc>
  40ce64:	26100001 	addiu	s0,s0,1
  40ce68:	00b0102b 	sltu	v0,a1,s0
  40ce6c:	10400005 	beqz	v0,40ce84 <_ppfs_parsespec+0x1f8>
  40ce70:	0000b021 	move	s6,zero
  40ce74:	80a30000 	lb	v1,0(a1)
  40ce78:	24020030 	li	v0,48
  40ce7c:	1462001b 	bne	v1,v0,40ceec <_ppfs_parsespec+0x260>
  40ce80:	2402002a 	li	v0,42
  40ce84:	00a08021 	move	s0,a1
  40ce88:	24110001 	li	s1,1
  40ce8c:	8f85000c 	lw	a1,12(gp)
  40ce90:	00000000 	nop
  40ce94:	24a50c44 	addiu	a1,a1,3140
  40ce98:	00000000 	nop
  40ce9c:	90a20000 	lbu	v0,0(a1)
  40cea0:	82030000 	lb	v1,0(s0)
  40cea4:	00021600 	sll	v0,v0,0x18
  40cea8:	00021603 	sra	v0,v0,0x18
  40ceac:	1062ffeb 	beq	v1,v0,40ce5c <_ppfs_parsespec+0x1d0>
  40ceb0:	24a50001 	addiu	a1,a1,1
  40ceb4:	80a20000 	lb	v0,0(a1)
  40ceb8:	00000000 	nop
  40cebc:	1440fff7 	bnez	v0,40ce9c <_ppfs_parsespec+0x210>
  40cec0:	00118840 	sll	s1,s1,0x1
  40cec4:	3102000a 	andi	v0,t0,0xa
  40cec8:	00021043 	sra	v0,v0,0x1
  40cecc:	00021027 	nor	v0,zero,v0
  40ced0:	8203ffff 	lb	v1,-1(s0)
  40ced4:	01024024 	and	t0,t0,v0
  40ced8:	24020025 	li	v0,37
  40cedc:	1462ff9e 	bne	v1,v0,40cd58 <_ppfs_parsespec+0xcc>
  40cee0:	00008821 	move	s1,zero
  40cee4:	80a30000 	lb	v1,0(a1)
  40cee8:	2402002a 	li	v0,42
  40ceec:	14620014 	bne	v1,v0,40cf40 <_ppfs_parsespec+0x2b4>
  40cef0:	00000000 	nop
  40cef4:	12c0000e 	beqz	s6,40cf30 <_ppfs_parsespec+0x2a4>
  40cef8:	24030024 	li	v1,36
  40cefc:	92020000 	lbu	v0,0(s0)
  40cf00:	00000000 	nop
  40cf04:	00021600 	sll	v0,v0,0x18
  40cf08:	00021603 	sra	v0,v0,0x18
  40cf0c:	14430003 	bne	v0,v1,40cf1c <_ppfs_parsespec+0x290>
  40cf10:	26100001 	addiu	s0,s0,1
  40cf14:	1e200003 	bgtz	s1,40cf24 <_ppfs_parsespec+0x298>
  40cf18:	30c20004 	andi	v0,a2,0x4
  40cf1c:	100000d3 	b	40d26c <_ppfs_parsespec+0x5e0>
  40cf20:	2404ffff 	li	a0,-1
  40cf24:	03a21021 	addu	v0,sp,v0
  40cf28:	10000004 	b	40cf3c <_ppfs_parsespec+0x2b0>
  40cf2c:	ac510028 	sw	s1,40(v0)
  40cf30:	24a50001 	addiu	a1,a1,1
  40cf34:	14b000cd 	bne	a1,s0,40d26c <_ppfs_parsespec+0x5e0>
  40cf38:	2404ffff 	li	a0,-1
  40cf3c:	3c118000 	lui	s1,0x8000
  40cf40:	14c0000a 	bnez	a2,40cf6c <_ppfs_parsespec+0x2e0>
  40cf44:	2402002e 	li	v0,46
  40cf48:	82030000 	lb	v1,0(s0)
  40cf4c:	00000000 	nop
  40cf50:	14620007 	bne	v1,v0,40cf70 <_ppfs_parsespec+0x2e4>
  40cf54:	02204821 	move	t1,s1
  40cf58:	26100001 	addiu	s0,s0,1
  40cf5c:	1000ff7e 	b	40cd58 <_ppfs_parsespec+0xcc>
  40cf60:	2406ffff 	li	a2,-1
  40cf64:	10000011 	b	40cfac <_ppfs_parsespec+0x320>
  40cf68:	26100001 	addiu	s0,s0,1
  40cf6c:	02205021 	move	t2,s1
  40cf70:	8f85000c 	lw	a1,12(gp)
  40cf74:	00000000 	nop
  40cf78:	24a50c90 	addiu	a1,a1,3216
  40cf7c:	00000000 	nop
  40cf80:	00a02021 	move	a0,a1
  40cf84:	80a30000 	lb	v1,0(a1)
  40cf88:	82020000 	lb	v0,0(s0)
  40cf8c:	00000000 	nop
  40cf90:	1043fff4 	beq	v0,v1,40cf64 <_ppfs_parsespec+0x2d8>
  40cf94:	00000000 	nop
  40cf98:	24a50001 	addiu	a1,a1,1
  40cf9c:	80a20000 	lb	v0,0(a1)
  40cfa0:	00000000 	nop
  40cfa4:	1440fff7 	bnez	v0,40cf84 <_ppfs_parsespec+0x2f8>
  40cfa8:	00000000 	nop
  40cfac:	00a41023 	subu	v0,a1,a0
  40cfb0:	28420002 	slti	v0,v0,2
  40cfb4:	10400008 	beqz	v0,40cfd8 <_ppfs_parsespec+0x34c>
  40cfb8:	00000000 	nop
  40cfbc:	82030000 	lb	v1,0(s0)
  40cfc0:	80a20000 	lb	v0,0(a1)
  40cfc4:	00000000 	nop
  40cfc8:	14620003 	bne	v1,v0,40cfd8 <_ppfs_parsespec+0x34c>
  40cfcc:	00000000 	nop
  40cfd0:	24a50009 	addiu	a1,a1,9
  40cfd4:	26100001 	addiu	s0,s0,1
  40cfd8:	80a20009 	lb	v0,9(a1)
  40cfdc:	82030000 	lb	v1,0(s0)
  40cfe0:	00023a00 	sll	a3,v0,0x8
  40cfe4:	92060000 	lbu	a2,0(s0)
  40cfe8:	106000a0 	beqz	v1,40d26c <_ppfs_parsespec+0x5e0>
  40cfec:	2404ffff 	li	a0,-1
  40cff0:	8f85000c 	lw	a1,12(gp)
  40cff4:	00000000 	nop
  40cff8:	24a50c4c 	addiu	a1,a1,3148
  40cffc:	00000000 	nop
  40d000:	00a02021 	move	a0,a1
  40d004:	00061600 	sll	v0,a2,0x18
  40d008:	80a30000 	lb	v1,0(a1)
  40d00c:	00021603 	sra	v0,v0,0x18
  40d010:	14430026 	bne	v0,v1,40d0ac <_ppfs_parsespec+0x420>
  40d014:	24a50001 	addiu	a1,a1,1
  40d018:	24a5ffff 	addiu	a1,a1,-1
  40d01c:	00a41823 	subu	v1,a1,a0
  40d020:	28620012 	slti	v0,v1,18
  40d024:	14400004 	bnez	v0,40d038 <_ppfs_parsespec+0x3ac>
  40d028:	30e20400 	andi	v0,a3,0x400
  40d02c:	10400002 	beqz	v0,40d038 <_ppfs_parsespec+0x3ac>
  40d030:	00000000 	nop
  40d034:	2463fffe 	addiu	v1,v1,-2
  40d038:	8f84000c 	lw	a0,12(gp)
  40d03c:	00000000 	nop
  40d040:	24840c64 	addiu	a0,a0,3172
  40d044:	aea30020 	sw	v1,32(s5)
  40d048:	2485ffff 	addiu	a1,a0,-1
  40d04c:	24a50001 	addiu	a1,a1,1
  40d050:	80a20000 	lb	v0,0(a1)
  40d054:	00000000 	nop
  40d058:	0043102a 	slt	v0,v0,v1
  40d05c:	1440fffb 	bnez	v0,40d04c <_ppfs_parsespec+0x3c0>
  40d060:	00a48823 	subu	s1,a1,a0
  40d064:	00111040 	sll	v0,s1,0x1
  40d068:	8f83000c 	lw	v1,12(gp)
  40d06c:	00000000 	nop
  40d070:	24630c70 	addiu	v1,v1,3184
  40d074:	00621821 	addu	v1,v1,v0
  40d078:	84630000 	lh	v1,0(v1)
  40d07c:	8f81000c 	lw	at,12(gp)
  40d080:	00000000 	nop
  40d084:	24210c80 	addiu	at,at,3200
  40d088:	00220821 	addu	at,at,v0
  40d08c:	84220000 	lh	v0,0(at)
  40d090:	00e31825 	or	v1,a3,v1
  40d094:	00621824 	and	v1,v1,v0
  40d098:	8f85000c 	lw	a1,12(gp)
  40d09c:	00000000 	nop
  40d0a0:	24a50c4c 	addiu	a1,a1,3148
  40d0a4:	10000005 	b	40d0bc <_ppfs_parsespec+0x430>
  40d0a8:	afa30020 	sw	v1,32(sp)
  40d0ac:	80a20000 	lb	v0,0(a1)
  40d0b0:	00000000 	nop
  40d0b4:	1440ffd4 	bnez	v0,40d008 <_ppfs_parsespec+0x37c>
  40d0b8:	00061600 	sll	v0,a2,0x18
  40d0bc:	82020000 	lb	v0,0(s0)
  40d0c0:	31030004 	andi	v1,t0,0x4
  40d0c4:	aea2000c 	sw	v0,12(s5)
  40d0c8:	aeaa0004 	sw	t2,4(s5)
  40d0cc:	aea90008 	sw	t1,8(s5)
  40d0d0:	14600002 	bnez	v1,40d0dc <_ppfs_parsespec+0x450>
  40d0d4:	24040030 	li	a0,48
  40d0d8:	24040020 	li	a0,32
  40d0dc:	2402fffb 	li	v0,-5
  40d0e0:	01021024 	and	v0,t0,v0
  40d0e4:	30e30f00 	andi	v1,a3,0xf00
  40d0e8:	00431025 	or	v0,v0,v1
  40d0ec:	aea20010 	sw	v0,16(s5)
  40d0f0:	24020001 	li	v0,1
  40d0f4:	aea40014 	sw	a0,20(s5)
  40d0f8:	aea2001c 	sw	v0,28(s5)
  40d0fc:	80a20000 	lb	v0,0(a1)
  40d100:	00000000 	nop
  40d104:	14400008 	bnez	v0,40d128 <_ppfs_parsespec+0x49c>
  40d108:	2402006d 	li	v0,109
  40d10c:	82030000 	lb	v1,0(s0)
  40d110:	00000000 	nop
  40d114:	14620055 	bne	v1,v0,40d26c <_ppfs_parsespec+0x5e0>
  40d118:	2404ffff 	li	a0,-1
  40d11c:	24020014 	li	v0,20
  40d120:	aea20020 	sw	v0,32(s5)
  40d124:	aea0001c 	sw	zero,28(s5)
  40d128:	1ac00034 	blez	s6,40d1fc <_ppfs_parsespec+0x570>
  40d12c:	00008821 	move	s1,zero
  40d130:	26b30024 	addiu	s3,s5,36
  40d134:	00111080 	sll	v0,s1,0x2
  40d138:	03a21821 	addu	v1,sp,v0
  40d13c:	2a220003 	slti	v0,s1,3
  40d140:	10400006 	beqz	v0,40d15c <_ppfs_parsespec+0x4d0>
  40d144:	00000000 	nop
  40d148:	9062002b 	lbu	v0,43(v1)
  40d14c:	00000000 	nop
  40d150:	00403021 	move	a2,v0
  40d154:	10000005 	b	40d16c <_ppfs_parsespec+0x4e0>
  40d158:	a2620000 	sb	v0,0(s3)
  40d15c:	8fa20030 	lw	v0,48(sp)
  40d160:	00000000 	nop
  40d164:	00511021 	addu	v0,v0,s1
  40d168:	2446fffe 	addiu	a2,v0,-2
  40d16c:	00111080 	sll	v0,s1,0x2
  40d170:	27a30018 	addiu	v1,sp,24
  40d174:	02c6202a 	slt	a0,s6,a2
  40d178:	26730001 	addiu	s3,s3,1
  40d17c:	0043a021 	addu	s4,v0,v1
  40d180:	10800005 	beqz	a0,40d198 <_ppfs_parsespec+0x50c>
  40d184:	26310001 	addiu	s1,s1,1
  40d188:	28c2000a 	slti	v0,a2,10
  40d18c:	00c0b021 	move	s6,a2
  40d190:	10400036 	beqz	v0,40d26c <_ppfs_parsespec+0x5e0>
  40d194:	2404ffff 	li	a0,-1
  40d198:	24c6ffff 	addiu	a2,a2,-1
  40d19c:	00061080 	sll	v0,a2,0x2
  40d1a0:	00559021 	addu	s2,v0,s5
  40d1a4:	8e850000 	lw	a1,0(s4)
  40d1a8:	8e440028 	lw	a0,40(s2)
  40d1ac:	8f99000c 	lw	t9,12(gp)
  40d1b0:	00000000 	nop
  40d1b4:	2739cbec 	addiu	t9,t9,-13332
  40d1b8:	00000000 	nop
  40d1bc:	0320f809 	jalr	t9
  40d1c0:	00000000 	nop
  40d1c4:	8fbc0010 	lw	gp,16(sp)
  40d1c8:	10400004 	beqz	v0,40d1dc <_ppfs_parsespec+0x550>
  40d1cc:	00000000 	nop
  40d1d0:	8e820000 	lw	v0,0(s4)
  40d1d4:	00000000 	nop
  40d1d8:	ae420028 	sw	v0,40(s2)
  40d1dc:	8ea2001c 	lw	v0,28(s5)
  40d1e0:	00000000 	nop
  40d1e4:	24420002 	addiu	v0,v0,2
  40d1e8:	0222102a 	slt	v0,s1,v0
  40d1ec:	1440ffd2 	bnez	v0,40d138 <_ppfs_parsespec+0x4ac>
  40d1f0:	00111080 	sll	v0,s1,0x2
  40d1f4:	1000000c 	b	40d228 <_ppfs_parsespec+0x59c>
  40d1f8:	00000000 	nop
  40d1fc:	8ea6001c 	lw	a2,28(s5)
  40d200:	24020001 	li	v0,1
  40d204:	00063080 	sll	a2,a2,0x2
  40d208:	26a40028 	addiu	a0,s5,40
  40d20c:	a2a20026 	sb	v0,38(s5)
  40d210:	27a50020 	addiu	a1,sp,32
  40d214:	8f9902fc 	lw	t9,764(gp)
  40d218:	00000000 	nop
  40d21c:	0320f809 	jalr	t9
  40d220:	00000000 	nop
  40d224:	8fbc0010 	lw	gp,16(sp)
  40d228:	8ea20010 	lw	v0,16(s5)
  40d22c:	00000000 	nop
  40d230:	30480080 	andi	t0,v0,0x80
  40d234:	15000004 	bnez	t0,40d248 <_ppfs_parsespec+0x5bc>
  40d238:	aeb60018 	sw	s6,24(s5)
  40d23c:	26100001 	addiu	s0,s0,1
  40d240:	10000007 	b	40d260 <_ppfs_parsespec+0x5d4>
  40d244:	aeb00000 	sw	s0,0(s5)
  40d248:	27a20038 	addiu	v0,sp,56
  40d24c:	8ea30000 	lw	v1,0(s5)
  40d250:	02021023 	subu	v0,s0,v0
  40d254:	00021080 	sll	v0,v0,0x2
  40d258:	00621821 	addu	v1,v1,v0
  40d25c:	aea30000 	sw	v1,0(s5)
  40d260:	8ea2001c 	lw	v0,28(s5)
  40d264:	00000000 	nop
  40d268:	24440002 	addiu	a0,v0,2
  40d26c:	8fbf0078 	lw	ra,120(sp)
  40d270:	8fb60070 	lw	s6,112(sp)
  40d274:	8fb5006c 	lw	s5,108(sp)
  40d278:	8fb40068 	lw	s4,104(sp)
  40d27c:	8fb30064 	lw	s3,100(sp)
  40d280:	8fb20060 	lw	s2,96(sp)
  40d284:	8fb1005c 	lw	s1,92(sp)
  40d288:	8fb00058 	lw	s0,88(sp)
  40d28c:	00801021 	move	v0,a0
  40d290:	03e00008 	jr	ra
  40d294:	27bd0080 	addiu	sp,sp,128
	...

0040d2a0 <mempcpy>:
  40d2a0:	3c1c0000 	lui	gp,0x0
  40d2a4:	279c17c0 	addiu	gp,gp,6080
  40d2a8:	0399e021 	addu	gp,gp,t9
  40d2ac:	10c00007 	beqz	a2,40d2cc <mempcpy+0x2c>
  40d2b0:	00000000 	nop
  40d2b4:	90a20000 	lbu	v0,0(a1)
  40d2b8:	24c6ffff 	addiu	a2,a2,-1
  40d2bc:	a0820000 	sb	v0,0(a0)
  40d2c0:	24a50001 	addiu	a1,a1,1
  40d2c4:	14c0fffb 	bnez	a2,40d2b4 <mempcpy+0x14>
  40d2c8:	24840001 	addiu	a0,a0,1
  40d2cc:	03e00008 	jr	ra
  40d2d0:	00801021 	move	v0,a0
	...

0040d2e0 <strcmp>:
  40d2e0:	3c1c0000 	lui	gp,0x0
  40d2e4:	279c1780 	addiu	gp,gp,6016
  40d2e8:	0399e021 	addu	gp,gp,t9
  40d2ec:	90820000 	lbu	v0,0(a0)
  40d2f0:	90a30000 	lbu	v1,0(a1)
  40d2f4:	00023600 	sll	a2,v0,0x18
  40d2f8:	304200ff 	andi	v0,v0,0xff
  40d2fc:	00431023 	subu	v0,v0,v1
  40d300:	24840001 	addiu	a0,a0,1
  40d304:	14400003 	bnez	v0,40d314 <strcmp+0x34>
  40d308:	24a50001 	addiu	a1,a1,1
  40d30c:	14c0fff7 	bnez	a2,40d2ec <strcmp+0xc>
  40d310:	00000000 	nop
  40d314:	03e00008 	jr	ra
  40d318:	00000000 	nop
  40d31c:	00000000 	nop

0040d320 <strncmp>:
  40d320:	3c1c0000 	lui	gp,0x0
  40d324:	279c1740 	addiu	gp,gp,5952
  40d328:	0399e021 	addu	gp,gp,t9
  40d32c:	00001821 	move	v1,zero
  40d330:	24c6ffff 	addiu	a2,a2,-1
  40d334:	2402ffff 	li	v0,-1
  40d338:	10c2000b 	beq	a2,v0,40d368 <strncmp+0x48>
  40d33c:	00000000 	nop
  40d340:	90820000 	lbu	v0,0(a0)
  40d344:	90a30000 	lbu	v1,0(a1)
  40d348:	00023e00 	sll	a3,v0,0x18
  40d34c:	304200ff 	andi	v0,v0,0xff
  40d350:	00431823 	subu	v1,v0,v1
  40d354:	24840001 	addiu	a0,a0,1
  40d358:	14600003 	bnez	v1,40d368 <strncmp+0x48>
  40d35c:	24a50001 	addiu	a1,a1,1
  40d360:	14e0fff3 	bnez	a3,40d330 <strncmp+0x10>
  40d364:	00000000 	nop
  40d368:	03e00008 	jr	ra
  40d36c:	00601021 	move	v0,v1

0040d370 <strpbrk>:
  40d370:	3c1c0000 	lui	gp,0x0
  40d374:	279c16f0 	addiu	gp,gp,5872
  40d378:	0399e021 	addu	gp,gp,t9
  40d37c:	80820000 	lb	v0,0(a0)
  40d380:	00000000 	nop
  40d384:	10400015 	beqz	v0,40d3dc <strpbrk+0x6c>
  40d388:	00003821 	move	a3,zero
  40d38c:	90a20000 	lbu	v0,0(a1)
  40d390:	00000000 	nop
  40d394:	00021600 	sll	v0,v0,0x18
  40d398:	1040000b 	beqz	v0,40d3c8 <strpbrk+0x58>
  40d39c:	00a03021 	move	a2,a1
  40d3a0:	80830000 	lb	v1,0(a0)
  40d3a4:	00021603 	sra	v0,v0,0x18
  40d3a8:	24c60001 	addiu	a2,a2,1
  40d3ac:	1043000b 	beq	v0,v1,40d3dc <strpbrk+0x6c>
  40d3b0:	00803821 	move	a3,a0
  40d3b4:	90c20000 	lbu	v0,0(a2)
  40d3b8:	00000000 	nop
  40d3bc:	00021600 	sll	v0,v0,0x18
  40d3c0:	1440fff9 	bnez	v0,40d3a8 <strpbrk+0x38>
  40d3c4:	00021603 	sra	v0,v0,0x18
  40d3c8:	24840001 	addiu	a0,a0,1
  40d3cc:	80820000 	lb	v0,0(a0)
  40d3d0:	00000000 	nop
  40d3d4:	1440ffed 	bnez	v0,40d38c <strpbrk+0x1c>
  40d3d8:	00003821 	move	a3,zero
  40d3dc:	03e00008 	jr	ra
  40d3e0:	00e01021 	move	v0,a3
	...

0040d3f0 <strspn>:
  40d3f0:	3c1c0000 	lui	gp,0x0
  40d3f4:	279c1670 	addiu	gp,gp,5744
  40d3f8:	0399e021 	addu	gp,gp,t9
  40d3fc:	90a20000 	lbu	v0,0(a1)
  40d400:	00a03021 	move	a2,a1
  40d404:	00021600 	sll	v0,v0,0x18
  40d408:	1040000c 	beqz	v0,40d43c <strspn+0x4c>
  40d40c:	00803821 	move	a3,a0
  40d410:	80e30000 	lb	v1,0(a3)
  40d414:	00021603 	sra	v0,v0,0x18
  40d418:	14430003 	bne	v0,v1,40d428 <strspn+0x38>
  40d41c:	24c60001 	addiu	a2,a2,1
  40d420:	24e70001 	addiu	a3,a3,1
  40d424:	00a03021 	move	a2,a1
  40d428:	90c20000 	lbu	v0,0(a2)
  40d42c:	00000000 	nop
  40d430:	00021600 	sll	v0,v0,0x18
  40d434:	1440fff6 	bnez	v0,40d410 <strspn+0x20>
  40d438:	00000000 	nop
  40d43c:	03e00008 	jr	ra
  40d440:	00e41023 	subu	v0,a3,a0
	...

0040d450 <__libc_read>:
  40d450:	3c1c0000 	lui	gp,0x0
  40d454:	279c1610 	addiu	gp,gp,5648
  40d458:	0399e021 	addu	gp,gp,t9
  40d45c:	27bdffd8 	addiu	sp,sp,-40
  40d460:	afbc0010 	sw	gp,16(sp)
  40d464:	afb1001c 	sw	s1,28(sp)
  40d468:	afb00018 	sw	s0,24(sp)
  40d46c:	afbf0024 	sw	ra,36(sp)
  40d470:	afbc0020 	sw	gp,32(sp)
  40d474:	00808821 	move	s1,a0
  40d478:	00a08021 	move	s0,a1
  40d47c:	00c01821 	move	v1,a2
  40d480:	02202021 	move	a0,s1
  40d484:	02002821 	move	a1,s0
  40d488:	00603021 	move	a2,v1
  40d48c:	24020003 	li	v0,3
  40d490:	0000000c 	syscall
  40d494:	00408021 	move	s0,v0
  40d498:	00e01821 	move	v1,a3
  40d49c:	10600008 	beqz	v1,40d4c0 <__libc_read+0x70>
  40d4a0:	02001021 	move	v0,s0
  40d4a4:	8f9900bc 	lw	t9,188(gp)
  40d4a8:	00000000 	nop
  40d4ac:	0320f809 	jalr	t9
  40d4b0:	00000000 	nop
  40d4b4:	8fbc0010 	lw	gp,16(sp)
  40d4b8:	ac500000 	sw	s0,0(v0)
  40d4bc:	2402ffff 	li	v0,-1
  40d4c0:	8fbf0024 	lw	ra,36(sp)
  40d4c4:	8fb1001c 	lw	s1,28(sp)
  40d4c8:	8fb00018 	lw	s0,24(sp)
  40d4cc:	03e00008 	jr	ra
  40d4d0:	27bd0028 	addiu	sp,sp,40
	...

0040d4e0 <__libc_nanosleep>:
  40d4e0:	3c1c0000 	lui	gp,0x0
  40d4e4:	279c1580 	addiu	gp,gp,5504
  40d4e8:	0399e021 	addu	gp,gp,t9
  40d4ec:	27bdffd8 	addiu	sp,sp,-40
  40d4f0:	afbc0010 	sw	gp,16(sp)
  40d4f4:	afbf0020 	sw	ra,32(sp)
  40d4f8:	afbc001c 	sw	gp,28(sp)
  40d4fc:	afb00018 	sw	s0,24(sp)
  40d500:	00801821 	move	v1,a0
  40d504:	00a03021 	move	a2,a1
  40d508:	00602021 	move	a0,v1
  40d50c:	00c02821 	move	a1,a2
  40d510:	240200a2 	li	v0,162
  40d514:	0000000c 	syscall
  40d518:	00408021 	move	s0,v0
  40d51c:	00e01821 	move	v1,a3
  40d520:	10600008 	beqz	v1,40d544 <__libc_nanosleep+0x64>
  40d524:	02001021 	move	v0,s0
  40d528:	8f9900bc 	lw	t9,188(gp)
  40d52c:	00000000 	nop
  40d530:	0320f809 	jalr	t9
  40d534:	00000000 	nop
  40d538:	8fbc0010 	lw	gp,16(sp)
  40d53c:	ac500000 	sw	s0,0(v0)
  40d540:	2402ffff 	li	v0,-1
  40d544:	8fbf0020 	lw	ra,32(sp)
  40d548:	8fb00018 	lw	s0,24(sp)
  40d54c:	03e00008 	jr	ra
  40d550:	27bd0028 	addiu	sp,sp,40
	...
  40d560:	3c1c0000 	lui	gp,0x0
  40d564:	279c1500 	addiu	gp,gp,5376
  40d568:	0399e021 	addu	gp,gp,t9
  40d56c:	00803821 	move	a3,a0
  40d570:	8c840000 	lw	a0,0(a0)
  40d574:	00c07021 	move	t6,a2
  40d578:	2c820002 	sltiu	v0,a0,2
  40d57c:	00a04021 	move	t0,a1
  40d580:	14400010 	bnez	v0,40d5c4 <__libc_nanosleep+0xe4>
  40d584:	00e03021 	move	a2,a3
  40d588:	8ca30000 	lw	v1,0(a1)
  40d58c:	00000000 	nop
  40d590:	2c620002 	sltiu	v0,v1,2
  40d594:	1440000b 	bnez	v0,40d5c4 <__libc_nanosleep+0xe4>
  40d598:	00a03021 	move	a2,a1
  40d59c:	38820004 	xori	v0,a0,0x4
  40d5a0:	1440000c 	bnez	v0,40d5d4 <__libc_nanosleep+0xf4>
  40d5a4:	38620004 	xori	v0,v1,0x4
  40d5a8:	14400006 	bnez	v0,40d5c4 <__libc_nanosleep+0xe4>
  40d5ac:	00e03021 	move	a2,a3
  40d5b0:	8ca30004 	lw	v1,4(a1)
  40d5b4:	8ce20004 	lw	v0,4(a3)
  40d5b8:	8f860140 	lw	a2,320(gp)
  40d5bc:	10430003 	beq	v0,v1,40d5cc <__libc_nanosleep+0xec>
  40d5c0:	00000000 	nop
  40d5c4:	03e00008 	jr	ra
  40d5c8:	00c01021 	move	v0,a2
  40d5cc:	1000fffd 	b	40d5c4 <__libc_nanosleep+0xe4>
  40d5d0:	00e03021 	move	a2,a3
  40d5d4:	1040fffb 	beqz	v0,40d5c4 <__libc_nanosleep+0xe4>
  40d5d8:	00a03021 	move	a2,a1
  40d5dc:	38620002 	xori	v0,v1,0x2
  40d5e0:	14400019 	bnez	v0,40d648 <__libc_nanosleep+0x168>
  40d5e4:	38820002 	xori	v0,a0,0x2
  40d5e8:	1440fff6 	bnez	v0,40d5c4 <__libc_nanosleep+0xe4>
  40d5ec:	00e03021 	move	a2,a3
  40d5f0:	adc40000 	sw	a0,0(t6)
  40d5f4:	8ce30004 	lw	v1,4(a3)
  40d5f8:	01c03021 	move	a2,t6
  40d5fc:	adc30004 	sw	v1,4(t6)
  40d600:	8ce20008 	lw	v0,8(a3)
  40d604:	00000000 	nop
  40d608:	adc20008 	sw	v0,8(t6)
  40d60c:	8ce3000c 	lw	v1,12(a3)
  40d610:	00000000 	nop
  40d614:	adc3000c 	sw	v1,12(t6)
  40d618:	8ce20010 	lw	v0,16(a3)
  40d61c:	00000000 	nop
  40d620:	adc20010 	sw	v0,16(t6)
  40d624:	8ce30014 	lw	v1,20(a3)
  40d628:	00000000 	nop
  40d62c:	adc30014 	sw	v1,20(t6)
  40d630:	8ce20004 	lw	v0,4(a3)
  40d634:	8ca30004 	lw	v1,4(a1)
  40d638:	00000000 	nop
  40d63c:	00431024 	and	v0,v0,v1
  40d640:	1000ffe0 	b	40d5c4 <__libc_nanosleep+0xe4>
  40d644:	adc20004 	sw	v0,4(t6)
  40d648:	1040ffde 	beqz	v0,40d5c4 <__libc_nanosleep+0xe4>
  40d64c:	00a03021 	move	a2,a1
  40d650:	8cef0008 	lw	t7,8(a3)
  40d654:	8ca90008 	lw	t1,8(a1)
  40d658:	8cec0010 	lw	t4,16(a3)
  40d65c:	8ced0014 	lw	t5,20(a3)
  40d660:	01e91023 	subu	v0,t7,t1
  40d664:	04410002 	bgez	v0,40d670 <__libc_nanosleep+0x190>
  40d668:	00000000 	nop
  40d66c:	00021023 	negu	v0,v0
  40d670:	28420040 	slti	v0,v0,64
  40d674:	8caa0010 	lw	t2,16(a1)
  40d678:	8cab0014 	lw	t3,20(a1)
  40d67c:	10400089 	beqz	v0,40d8a4 <__libc_nanosleep+0x3c4>
  40d680:	012f102a 	slt	v0,t1,t7
  40d684:	10400010 	beqz	v0,40d6c8 <__libc_nanosleep+0x1e8>
  40d688:	01e9102a 	slt	v0,t7,t1
  40d68c:	24180000 	li	t8,0
  40d690:	24190001 	li	t9,1
  40d694:	01e94823 	subu	t1,t7,t1
  40d698:	000b2842 	srl	a1,t3,0x1
  40d69c:	000a37c0 	sll	a2,t2,0x1f
  40d6a0:	00a62825 	or	a1,a1,a2
  40d6a4:	000a2042 	srl	a0,t2,0x1
  40d6a8:	01581024 	and	v0,t2,t8
  40d6ac:	01791824 	and	v1,t3,t9
  40d6b0:	2529ffff 	addiu	t1,t1,-1
  40d6b4:	00445025 	or	t2,v0,a0
  40d6b8:	1520fff7 	bnez	t1,40d698 <__libc_nanosleep+0x1b8>
  40d6bc:	00655825 	or	t3,v1,a1
  40d6c0:	01e04821 	move	t1,t7
  40d6c4:	01e9102a 	slt	v0,t7,t1
  40d6c8:	1040000f 	beqz	v0,40d708 <__libc_nanosleep+0x228>
  40d6cc:	00000000 	nop
  40d6d0:	24180000 	li	t8,0
  40d6d4:	24190001 	li	t9,1
  40d6d8:	012f7823 	subu	t7,t1,t7
  40d6dc:	000d2842 	srl	a1,t5,0x1
  40d6e0:	000c37c0 	sll	a2,t4,0x1f
  40d6e4:	00a62825 	or	a1,a1,a2
  40d6e8:	000c2042 	srl	a0,t4,0x1
  40d6ec:	01981024 	and	v0,t4,t8
  40d6f0:	01b91824 	and	v1,t5,t9
  40d6f4:	25efffff 	addiu	t7,t7,-1
  40d6f8:	00446025 	or	t4,v0,a0
  40d6fc:	15e0fff7 	bnez	t7,40d6dc <__libc_nanosleep+0x1fc>
  40d700:	00656825 	or	t5,v1,a1
  40d704:	01207821 	move	t7,t1
  40d708:	8ce60004 	lw	a2,4(a3)
  40d70c:	8d020004 	lw	v0,4(t0)
  40d710:	00000000 	nop
  40d714:	10c2005a 	beq	a2,v0,40d880 <__libc_nanosleep+0x3a0>
  40d718:	016d102b 	sltu	v0,t3,t5
  40d71c:	014c2023 	subu	a0,t2,t4
  40d720:	016d2823 	subu	a1,t3,t5
  40d724:	14c00005 	bnez	a2,40d73c <__libc_nanosleep+0x25c>
  40d728:	00822023 	subu	a0,a0,v0
  40d72c:	01ab102b 	sltu	v0,t5,t3
  40d730:	018a2023 	subu	a0,t4,t2
  40d734:	01ab2823 	subu	a1,t5,t3
  40d738:	00822023 	subu	a0,a0,v0
  40d73c:	04800047 	bltz	a0,40d85c <__libc_nanosleep+0x37c>
  40d740:	24020001 	li	v0,1
  40d744:	adcf0008 	sw	t7,8(t6)
  40d748:	adc40010 	sw	a0,16(t6)
  40d74c:	adc50014 	sw	a1,20(t6)
  40d750:	adc00004 	sw	zero,4(t6)
  40d754:	8dc80010 	lw	t0,16(t6)
  40d758:	8dc90014 	lw	t1,20(t6)
  40d75c:	3c030fff 	lui	v1,0xfff
  40d760:	2525ffff 	addiu	a1,t1,-1
  40d764:	2ca2ffff 	sltiu	v0,a1,-1
  40d768:	2504ffff 	addiu	a0,t0,-1
  40d76c:	00822021 	addu	a0,a0,v0
  40d770:	3463ffff 	ori	v1,v1,0xffff
  40d774:	0064102b 	sltu	v0,v1,a0
  40d778:	1440001a 	bnez	v0,40d7e4 <__libc_nanosleep+0x304>
  40d77c:	00000000 	nop
  40d780:	10830032 	beq	a0,v1,40d84c <__libc_nanosleep+0x36c>
  40d784:	2ca2ffff 	sltiu	v0,a1,-1
  40d788:	000917c2 	srl	v0,t1,0x1f
  40d78c:	00083040 	sll	a2,t0,0x1
  40d790:	00c23025 	or	a2,a2,v0
  40d794:	00093840 	sll	a3,t1,0x1
  40d798:	8dc30008 	lw	v1,8(t6)
  40d79c:	3c0a0fff 	lui	t2,0xfff
  40d7a0:	24e5ffff 	addiu	a1,a3,-1
  40d7a4:	2ca2ffff 	sltiu	v0,a1,-1
  40d7a8:	24c4ffff 	addiu	a0,a2,-1
  40d7ac:	00822021 	addu	a0,a0,v0
  40d7b0:	354affff 	ori	t2,t2,0xffff
  40d7b4:	2463ffff 	addiu	v1,v1,-1
  40d7b8:	0144102b 	sltu	v0,t2,a0
  40d7bc:	adc30008 	sw	v1,8(t6)
  40d7c0:	adc60010 	sw	a2,16(t6)
  40d7c4:	adc70014 	sw	a3,20(t6)
  40d7c8:	14400006 	bnez	v0,40d7e4 <__libc_nanosleep+0x304>
  40d7cc:	2cabffff 	sltiu	t3,a1,-1
  40d7d0:	00c04021 	move	t0,a2
  40d7d4:	148affec 	bne	a0,t2,40d788 <__libc_nanosleep+0x2a8>
  40d7d8:	00e04821 	move	t1,a3
  40d7dc:	1560ffeb 	bnez	t3,40d78c <__libc_nanosleep+0x2ac>
  40d7e0:	000917c2 	srl	v0,t1,0x1f
  40d7e4:	8dc20010 	lw	v0,16(t6)
  40d7e8:	3c031fff 	lui	v1,0x1fff
  40d7ec:	3463ffff 	ori	v1,v1,0xffff
  40d7f0:	24040003 	li	a0,3
  40d7f4:	0062182b 	sltu	v1,v1,v0
  40d7f8:	10600012 	beqz	v1,40d844 <__libc_nanosleep+0x364>
  40d7fc:	adc40000 	sw	a0,0(t6)
  40d800:	8dc40010 	lw	a0,16(t6)
  40d804:	8dc50014 	lw	a1,20(t6)
  40d808:	24020000 	li	v0,0
  40d80c:	24030001 	li	v1,1
  40d810:	8dc60008 	lw	a2,8(t6)
  40d814:	00a31824 	and	v1,a1,v1
  40d818:	00043fc0 	sll	a3,a0,0x1f
  40d81c:	00052842 	srl	a1,a1,0x1
  40d820:	00821024 	and	v0,a0,v0
  40d824:	00a72825 	or	a1,a1,a3
  40d828:	00042042 	srl	a0,a0,0x1
  40d82c:	00441025 	or	v0,v0,a0
  40d830:	00651825 	or	v1,v1,a1
  40d834:	24c60001 	addiu	a2,a2,1
  40d838:	adc20010 	sw	v0,16(t6)
  40d83c:	adc30014 	sw	v1,20(t6)
  40d840:	adc60008 	sw	a2,8(t6)
  40d844:	1000ff5f 	b	40d5c4 <__libc_nanosleep+0xe4>
  40d848:	01c03021 	move	a2,t6
  40d84c:	1440ffcf 	bnez	v0,40d78c <__libc_nanosleep+0x2ac>
  40d850:	000917c2 	srl	v0,t1,0x1f
  40d854:	1000ffe3 	b	40d7e4 <__libc_nanosleep+0x304>
  40d858:	00000000 	nop
  40d85c:	00052823 	negu	a1,a1
  40d860:	00042023 	negu	a0,a0
  40d864:	0005182b 	sltu	v1,zero,a1
  40d868:	00832023 	subu	a0,a0,v1
  40d86c:	adc20004 	sw	v0,4(t6)
  40d870:	adcf0008 	sw	t7,8(t6)
  40d874:	adc40010 	sw	a0,16(t6)
  40d878:	1000ffb6 	b	40d754 <__libc_nanosleep+0x274>
  40d87c:	adc50014 	sw	a1,20(t6)
  40d880:	01ab1821 	addu	v1,t5,t3
  40d884:	006b202b 	sltu	a0,v1,t3
  40d888:	018a1021 	addu	v0,t4,t2
  40d88c:	00441021 	addu	v0,v0,a0
  40d890:	adc60004 	sw	a2,4(t6)
  40d894:	adcf0008 	sw	t7,8(t6)
  40d898:	adc20010 	sw	v0,16(t6)
  40d89c:	1000ffd1 	b	40d7e4 <__libc_nanosleep+0x304>
  40d8a0:	adc30014 	sw	v1,20(t6)
  40d8a4:	10400004 	beqz	v0,40d8b8 <__libc_nanosleep+0x3d8>
  40d8a8:	00000000 	nop
  40d8ac:	00005021 	move	t2,zero
  40d8b0:	1000ff95 	b	40d708 <__libc_nanosleep+0x228>
  40d8b4:	00005821 	move	t3,zero
  40d8b8:	00006021 	move	t4,zero
  40d8bc:	00006821 	move	t5,zero
  40d8c0:	1000ff91 	b	40d708 <__libc_nanosleep+0x228>
  40d8c4:	01207821 	move	t7,t1

0040d8c8 <dpadd>:
  40d8c8:	3c1c0000 	lui	gp,0x0
  40d8cc:	279c1198 	addiu	gp,gp,4504
  40d8d0:	0399e021 	addu	gp,gp,t9
  40d8d4:	27bdff80 	addiu	sp,sp,-128
  40d8d8:	afbc0010 	sw	gp,16(sp)
  40d8dc:	00a01821 	move	v1,a1
  40d8e0:	00801021 	move	v0,a0
  40d8e4:	afb00070 	sw	s0,112(sp)
  40d8e8:	27a40060 	addiu	a0,sp,96
  40d8ec:	27b00030 	addiu	s0,sp,48
  40d8f0:	27a50018 	addiu	a1,sp,24
  40d8f4:	afbf0078 	sw	ra,120(sp)
  40d8f8:	afa60068 	sw	a2,104(sp)
  40d8fc:	afa7006c 	sw	a3,108(sp)
  40d900:	afa20060 	sw	v0,96(sp)
  40d904:	afa30064 	sw	v1,100(sp)
  40d908:	afbc0074 	sw	gp,116(sp)
  40d90c:	8f9902ac 	lw	t9,684(gp)
  40d910:	00000000 	nop
  40d914:	0320f809 	jalr	t9
  40d918:	00000000 	nop
  40d91c:	8fbc0010 	lw	gp,16(sp)
  40d920:	27a40068 	addiu	a0,sp,104
  40d924:	02002821 	move	a1,s0
  40d928:	8f9902ac 	lw	t9,684(gp)
  40d92c:	00000000 	nop
  40d930:	0320f809 	jalr	t9
  40d934:	00000000 	nop
  40d938:	8fbc0010 	lw	gp,16(sp)
  40d93c:	02002821 	move	a1,s0
  40d940:	27a60048 	addiu	a2,sp,72
  40d944:	27a40018 	addiu	a0,sp,24
  40d948:	8f99000c 	lw	t9,12(gp)
  40d94c:	00000000 	nop
  40d950:	2739d560 	addiu	t9,t9,-10912
  40d954:	00000000 	nop
  40d958:	0320f809 	jalr	t9
  40d95c:	00000000 	nop
  40d960:	8fbc0010 	lw	gp,16(sp)
  40d964:	00402021 	move	a0,v0
  40d968:	8f990030 	lw	t9,48(gp)
  40d96c:	00000000 	nop
  40d970:	0320f809 	jalr	t9
  40d974:	00000000 	nop
  40d978:	8fbc0010 	lw	gp,16(sp)
  40d97c:	8fbf0078 	lw	ra,120(sp)
  40d980:	8fb00070 	lw	s0,112(sp)
  40d984:	03e00008 	jr	ra
  40d988:	27bd0080 	addiu	sp,sp,128

0040d98c <dpsub>:
  40d98c:	3c1c0000 	lui	gp,0x0
  40d990:	279c10d4 	addiu	gp,gp,4308
  40d994:	0399e021 	addu	gp,gp,t9
  40d998:	27bdff80 	addiu	sp,sp,-128
  40d99c:	afbc0010 	sw	gp,16(sp)
  40d9a0:	00a01821 	move	v1,a1
  40d9a4:	00801021 	move	v0,a0
  40d9a8:	afb00070 	sw	s0,112(sp)
  40d9ac:	27a40060 	addiu	a0,sp,96
  40d9b0:	27b00030 	addiu	s0,sp,48
  40d9b4:	27a50018 	addiu	a1,sp,24
  40d9b8:	afbf0078 	sw	ra,120(sp)
  40d9bc:	afa20060 	sw	v0,96(sp)
  40d9c0:	afa30064 	sw	v1,100(sp)
  40d9c4:	afa60068 	sw	a2,104(sp)
  40d9c8:	afa7006c 	sw	a3,108(sp)
  40d9cc:	afbc0074 	sw	gp,116(sp)
  40d9d0:	8f9902ac 	lw	t9,684(gp)
  40d9d4:	00000000 	nop
  40d9d8:	0320f809 	jalr	t9
  40d9dc:	00000000 	nop
  40d9e0:	8fbc0010 	lw	gp,16(sp)
  40d9e4:	27a40068 	addiu	a0,sp,104
  40d9e8:	02002821 	move	a1,s0
  40d9ec:	8f9902ac 	lw	t9,684(gp)
  40d9f0:	00000000 	nop
  40d9f4:	0320f809 	jalr	t9
  40d9f8:	00000000 	nop
  40d9fc:	8fbc0010 	lw	gp,16(sp)
  40da00:	8fa20034 	lw	v0,52(sp)
  40da04:	02002821 	move	a1,s0
  40da08:	27a60048 	addiu	a2,sp,72
  40da0c:	27a40018 	addiu	a0,sp,24
  40da10:	38420001 	xori	v0,v0,0x1
  40da14:	afa20034 	sw	v0,52(sp)
  40da18:	8f99000c 	lw	t9,12(gp)
  40da1c:	00000000 	nop
  40da20:	2739d560 	addiu	t9,t9,-10912
  40da24:	00000000 	nop
  40da28:	0320f809 	jalr	t9
  40da2c:	00000000 	nop
  40da30:	8fbc0010 	lw	gp,16(sp)
  40da34:	00402021 	move	a0,v0
  40da38:	8f990030 	lw	t9,48(gp)
  40da3c:	00000000 	nop
  40da40:	0320f809 	jalr	t9
  40da44:	00000000 	nop
  40da48:	8fbc0010 	lw	gp,16(sp)
  40da4c:	8fbf0078 	lw	ra,120(sp)
  40da50:	8fb00070 	lw	s0,112(sp)
  40da54:	03e00008 	jr	ra
  40da58:	27bd0080 	addiu	sp,sp,128
  40da5c:	00000000 	nop

0040da60 <dpmul>:
  40da60:	3c1c0000 	lui	gp,0x0
  40da64:	279c1000 	addiu	gp,gp,4096
  40da68:	0399e021 	addu	gp,gp,t9
  40da6c:	27bdff70 	addiu	sp,sp,-144
  40da70:	afbc0010 	sw	gp,16(sp)
  40da74:	00801021 	move	v0,a0
  40da78:	00a01821 	move	v1,a1
  40da7c:	afb00070 	sw	s0,112(sp)
  40da80:	27a40060 	addiu	a0,sp,96
  40da84:	27a50018 	addiu	a1,sp,24
  40da88:	27b00030 	addiu	s0,sp,48
  40da8c:	afa20060 	sw	v0,96(sp)
  40da90:	afa30064 	sw	v1,100(sp)
  40da94:	afbf0088 	sw	ra,136(sp)
  40da98:	afa60068 	sw	a2,104(sp)
  40da9c:	afa7006c 	sw	a3,108(sp)
  40daa0:	afbc0084 	sw	gp,132(sp)
  40daa4:	afb50080 	sw	s5,128(sp)
  40daa8:	afb4007c 	sw	s4,124(sp)
  40daac:	afb30078 	sw	s3,120(sp)
  40dab0:	afb20074 	sw	s2,116(sp)
  40dab4:	8f9902ac 	lw	t9,684(gp)
  40dab8:	00000000 	nop
  40dabc:	0320f809 	jalr	t9
  40dac0:	00000000 	nop
  40dac4:	8fbc0010 	lw	gp,16(sp)
  40dac8:	27a40068 	addiu	a0,sp,104
  40dacc:	02002821 	move	a1,s0
  40dad0:	8f9902ac 	lw	t9,684(gp)
  40dad4:	00000000 	nop
  40dad8:	0320f809 	jalr	t9
  40dadc:	00000000 	nop
  40dae0:	8fbc0010 	lw	gp,16(sp)
  40dae4:	8fa30018 	lw	v1,24(sp)
  40dae8:	27ac0018 	addiu	t4,sp,24
  40daec:	2c620002 	sltiu	v0,v1,2
  40daf0:	1440000c 	bnez	v0,40db24 <dpmul+0xc4>
  40daf4:	27ad0048 	addiu	t5,sp,72
  40daf8:	8fa40030 	lw	a0,48(sp)
  40dafc:	00000000 	nop
  40db00:	2c820002 	sltiu	v0,a0,2
  40db04:	1440001f 	bnez	v0,40db84 <dpmul+0x124>
  40db08:	38620004 	xori	v0,v1,0x4
  40db0c:	14400018 	bnez	v0,40db70 <dpmul+0x110>
  40db10:	38820004 	xori	v0,a0,0x4
  40db14:	38820002 	xori	v0,a0,0x2
  40db18:	8f840140 	lw	a0,320(gp)
  40db1c:	10400007 	beqz	v0,40db3c <dpmul+0xdc>
  40db20:	00000000 	nop
  40db24:	8fa2001c 	lw	v0,28(sp)
  40db28:	8fa30034 	lw	v1,52(sp)
  40db2c:	01802021 	move	a0,t4
  40db30:	00431026 	xor	v0,v0,v1
  40db34:	0002102b 	sltu	v0,zero,v0
  40db38:	afa2001c 	sw	v0,28(sp)
  40db3c:	8f990030 	lw	t9,48(gp)
  40db40:	00000000 	nop
  40db44:	0320f809 	jalr	t9
  40db48:	00000000 	nop
  40db4c:	8fbc0010 	lw	gp,16(sp)
  40db50:	8fbf0088 	lw	ra,136(sp)
  40db54:	8fb50080 	lw	s5,128(sp)
  40db58:	8fb4007c 	lw	s4,124(sp)
  40db5c:	8fb30078 	lw	s3,120(sp)
  40db60:	8fb20074 	lw	s2,116(sp)
  40db64:	8fb00070 	lw	s0,112(sp)
  40db68:	03e00008 	jr	ra
  40db6c:	27bd0090 	addiu	sp,sp,144
  40db70:	1440000b 	bnez	v0,40dba0 <dpmul+0x140>
  40db74:	38620002 	xori	v0,v1,0x2
  40db78:	8f840140 	lw	a0,320(gp)
  40db7c:	1040ffef 	beqz	v0,40db3c <dpmul+0xdc>
  40db80:	00000000 	nop
  40db84:	8fa30034 	lw	v1,52(sp)
  40db88:	8fa2001c 	lw	v0,28(sp)
  40db8c:	02002021 	move	a0,s0
  40db90:	00431026 	xor	v0,v0,v1
  40db94:	0002102b 	sltu	v0,zero,v0
  40db98:	1000ffe8 	b	40db3c <dpmul+0xdc>
  40db9c:	afa20034 	sw	v0,52(sp)
  40dba0:	1040ffe0 	beqz	v0,40db24 <dpmul+0xc4>
  40dba4:	38820002 	xori	v0,a0,0x2
  40dba8:	1040fff6 	beqz	v0,40db84 <dpmul+0x124>
  40dbac:	00000000 	nop
  40dbb0:	8fa60028 	lw	a2,40(sp)
  40dbb4:	8fa70044 	lw	a3,68(sp)
  40dbb8:	8fa8002c 	lw	t0,44(sp)
  40dbbc:	00e60019 	multu	a3,a2
  40dbc0:	8fa50040 	lw	a1,64(sp)
  40dbc4:	00009021 	move	s2,zero
  40dbc8:	00009821 	move	s3,zero
  40dbcc:	00001010 	mfhi	v0
  40dbd0:	00001812 	mflo	v1
	...
  40dbdc:	00a80019 	multu	a1,t0
  40dbe0:	00005010 	mfhi	t2
  40dbe4:	00005812 	mflo	t3
  40dbe8:	01637821 	addu	t7,t3,v1
  40dbec:	01e3482b 	sltu	t1,t7,v1
  40dbf0:	00a60019 	multu	a1,a2
  40dbf4:	01427021 	addu	t6,t2,v0
  40dbf8:	01c97021 	addu	t6,t6,t1
  40dbfc:	01ca202b 	sltu	a0,t6,t2
  40dc00:	0000a010 	mfhi	s4
  40dc04:	0000a812 	mflo	s5
	...
  40dc10:	00e80019 	multu	a3,t0
  40dc14:	00003010 	mfhi	a2
  40dc18:	00003812 	mflo	a3
  40dc1c:	1480007c 	bnez	a0,40de10 <dpmul+0x3b0>
  40dc20:	00000000 	nop
  40dc24:	114e0078 	beq	t2,t6,40de08 <dpmul+0x3a8>
  40dc28:	01eb102b 	sltu	v0,t7,t3
  40dc2c:	00005821 	move	t3,zero
  40dc30:	000f5000 	sll	t2,t7,0x0
  40dc34:	00ebc821 	addu	t9,a3,t3
  40dc38:	032b282b 	sltu	a1,t9,t3
  40dc3c:	00cac021 	addu	t8,a2,t2
  40dc40:	0305c021 	addu	t8,t8,a1
  40dc44:	0306102b 	sltu	v0,t8,a2
  40dc48:	1440006b 	bnez	v0,40ddf8 <dpmul+0x398>
  40dc4c:	00000000 	nop
  40dc50:	10d80067 	beq	a2,t8,40ddf0 <dpmul+0x390>
  40dc54:	0327102b 	sltu	v0,t9,a3
  40dc58:	000e1802 	srl	v1,t6,0x0
  40dc5c:	00751821 	addu	v1,v1,s5
  40dc60:	00001021 	move	v0,zero
  40dc64:	0075482b 	sltu	t1,v1,s5
  40dc68:	00541021 	addu	v0,v0,s4
  40dc6c:	8e070008 	lw	a3,8(s0)
  40dc70:	8d860004 	lw	a2,4(t4)
  40dc74:	8e080004 	lw	t0,4(s0)
  40dc78:	8d840008 	lw	a0,8(t4)
  40dc7c:	00491021 	addu	v0,v0,t1
  40dc80:	02635821 	addu	t3,s3,v1
  40dc84:	3c051fff 	lui	a1,0x1fff
  40dc88:	0163482b 	sltu	t1,t3,v1
  40dc8c:	02425021 	addu	t2,s2,v0
  40dc90:	00872021 	addu	a0,a0,a3
  40dc94:	01495021 	addu	t2,t2,t1
  40dc98:	00c83026 	xor	a2,a2,t0
  40dc9c:	34a5ffff 	ori	a1,a1,0xffff
  40dca0:	0006302b 	sltu	a2,zero,a2
  40dca4:	24840004 	addiu	a0,a0,4
  40dca8:	00aa282b 	sltu	a1,a1,t2
  40dcac:	ada60004 	sw	a2,4(t5)
  40dcb0:	ada40008 	sw	a0,8(t5)
  40dcb4:	03003021 	move	a2,t8
  40dcb8:	10a00019 	beqz	a1,40dd20 <dpmul+0x2c0>
  40dcbc:	03203821 	move	a3,t9
  40dcc0:	3c081fff 	lui	t0,0x1fff
  40dcc4:	240e0000 	li	t6,0
  40dcc8:	240f0001 	li	t7,1
  40dccc:	3c188000 	lui	t8,0x8000
  40dcd0:	24190000 	li	t9,0
  40dcd4:	3508ffff 	ori	t0,t0,0xffff
  40dcd8:	8da20008 	lw	v0,8(t5)
  40dcdc:	000a1fc0 	sll	v1,t2,0x1f
  40dce0:	016f2824 	and	a1,t3,t7
  40dce4:	000a5042 	srl	t2,t2,0x1
  40dce8:	000b5842 	srl	t3,t3,0x1
  40dcec:	24420001 	addiu	v0,v0,1
  40dcf0:	01635825 	or	t3,t3,v1
  40dcf4:	ada20008 	sw	v0,8(t5)
  40dcf8:	10a00007 	beqz	a1,40dd18 <dpmul+0x2b8>
  40dcfc:	010a182b 	sltu	v1,t0,t2
  40dd00:	000617c0 	sll	v0,a2,0x1f
  40dd04:	00073842 	srl	a3,a3,0x1
  40dd08:	00e23825 	or	a3,a3,v0
  40dd0c:	00063042 	srl	a2,a2,0x1
  40dd10:	00d83025 	or	a2,a2,t8
  40dd14:	00f93825 	or	a3,a3,t9
  40dd18:	1460ffef 	bnez	v1,40dcd8 <dpmul+0x278>
  40dd1c:	00000000 	nop
  40dd20:	3c020fff 	lui	v0,0xfff
  40dd24:	3442ffff 	ori	v0,v0,0xffff
  40dd28:	004a102b 	sltu	v0,v0,t2
  40dd2c:	14400012 	bnez	v0,40dd78 <dpmul+0x318>
  40dd30:	3c040fff 	lui	a0,0xfff
  40dd34:	24080000 	li	t0,0
  40dd38:	24090001 	li	t1,1
  40dd3c:	3484ffff 	ori	a0,a0,0xffff
  40dd40:	8da20008 	lw	v0,8(t5)
  40dd44:	000b1fc2 	srl	v1,t3,0x1f
  40dd48:	000a5040 	sll	t2,t2,0x1
  40dd4c:	2442ffff 	addiu	v0,v0,-1
  40dd50:	01435025 	or	t2,t2,v1
  40dd54:	000b5840 	sll	t3,t3,0x1
  40dd58:	04c00022 	bltz	a2,40dde4 <dpmul+0x384>
  40dd5c:	ada20008 	sw	v0,8(t5)
  40dd60:	00071fc2 	srl	v1,a3,0x1f
  40dd64:	00063040 	sll	a2,a2,0x1
  40dd68:	008a102b 	sltu	v0,a0,t2
  40dd6c:	00c33025 	or	a2,a2,v1
  40dd70:	1040fff3 	beqz	v0,40dd40 <dpmul+0x2e0>
  40dd74:	00073840 	sll	a3,a3,0x1
  40dd78:	24020000 	li	v0,0
  40dd7c:	240300ff 	li	v1,255
  40dd80:	01422024 	and	a0,t2,v0
  40dd84:	14800004 	bnez	a0,40dd98 <dpmul+0x338>
  40dd88:	01632824 	and	a1,t3,v1
  40dd8c:	24020080 	li	v0,128
  40dd90:	10a20007 	beq	a1,v0,40ddb0 <dpmul+0x350>
  40dd94:	00000000 	nop
  40dd98:	24020003 	li	v0,3
  40dd9c:	adaa0010 	sw	t2,16(t5)
  40dda0:	adab0014 	sw	t3,20(t5)
  40dda4:	ada20000 	sw	v0,0(t5)
  40dda8:	1000ff64 	b	40db3c <dpmul+0xdc>
  40ddac:	01a02021 	move	a0,t5
  40ddb0:	24020000 	li	v0,0
  40ddb4:	24030100 	li	v1,256
  40ddb8:	01421024 	and	v0,t2,v0
  40ddbc:	01631824 	and	v1,t3,v1
  40ddc0:	00431025 	or	v0,v0,v1
  40ddc4:	14400003 	bnez	v0,40ddd4 <dpmul+0x374>
  40ddc8:	00c71025 	or	v0,a2,a3
  40ddcc:	1040fff3 	beqz	v0,40dd9c <dpmul+0x33c>
  40ddd0:	24020003 	li	v0,3
  40ddd4:	256b0080 	addiu	t3,t3,128
  40ddd8:	2d620080 	sltiu	v0,t3,128
  40dddc:	1000ffee 	b	40dd98 <dpmul+0x338>
  40dde0:	01425021 	addu	t2,t2,v0
  40dde4:	01485025 	or	t2,t2,t0
  40dde8:	1000ffdd 	b	40dd60 <dpmul+0x300>
  40ddec:	01695825 	or	t3,t3,t1
  40ddf0:	1040ff9a 	beqz	v0,40dc5c <dpmul+0x1fc>
  40ddf4:	000e1802 	srl	v1,t6,0x0
  40ddf8:	26730001 	addiu	s3,s3,1
  40ddfc:	2e620001 	sltiu	v0,s3,1
  40de00:	1000ff95 	b	40dc58 <dpmul+0x1f8>
  40de04:	02429021 	addu	s2,s2,v0
  40de08:	1040ff88 	beqz	v0,40dc2c <dpmul+0x1cc>
  40de0c:	00000000 	nop
  40de10:	24120001 	li	s2,1
  40de14:	24130000 	li	s3,0
  40de18:	1000ff85 	b	40dc30 <dpmul+0x1d0>
  40de1c:	00005821 	move	t3,zero

0040de20 <dpdiv>:
  40de20:	3c1c0000 	lui	gp,0x0
  40de24:	279c0c40 	addiu	gp,gp,3136
  40de28:	0399e021 	addu	gp,gp,t9
  40de2c:	27bdff98 	addiu	sp,sp,-104
  40de30:	afbc0010 	sw	gp,16(sp)
  40de34:	00801021 	move	v0,a0
  40de38:	00a01821 	move	v1,a1
  40de3c:	afb00058 	sw	s0,88(sp)
  40de40:	27a40048 	addiu	a0,sp,72
  40de44:	27a50018 	addiu	a1,sp,24
  40de48:	27b00030 	addiu	s0,sp,48
  40de4c:	afa20048 	sw	v0,72(sp)
  40de50:	afa3004c 	sw	v1,76(sp)
  40de54:	afbf0060 	sw	ra,96(sp)
  40de58:	afa60050 	sw	a2,80(sp)
  40de5c:	afa70054 	sw	a3,84(sp)
  40de60:	afbc005c 	sw	gp,92(sp)
  40de64:	8f9902ac 	lw	t9,684(gp)
  40de68:	00000000 	nop
  40de6c:	0320f809 	jalr	t9
  40de70:	00000000 	nop
  40de74:	8fbc0010 	lw	gp,16(sp)
  40de78:	27a40050 	addiu	a0,sp,80
  40de7c:	02002821 	move	a1,s0
  40de80:	8f9902ac 	lw	t9,684(gp)
  40de84:	00000000 	nop
  40de88:	0320f809 	jalr	t9
  40de8c:	00000000 	nop
  40de90:	8fbc0010 	lw	gp,16(sp)
  40de94:	8fa50018 	lw	a1,24(sp)
  40de98:	27ad0018 	addiu	t5,sp,24
  40de9c:	2ca20002 	sltiu	v0,a1,2
  40dea0:	14400013 	bnez	v0,40def0 <dpdiv+0xd0>
  40dea4:	01a02021 	move	a0,t5
  40dea8:	8fa60030 	lw	a2,48(sp)
  40deac:	00000000 	nop
  40deb0:	2cc20002 	sltiu	v0,a2,2
  40deb4:	1440000e 	bnez	v0,40def0 <dpdiv+0xd0>
  40deb8:	02002021 	move	a0,s0
  40debc:	8fa3001c 	lw	v1,28(sp)
  40dec0:	8fa40034 	lw	a0,52(sp)
  40dec4:	38a20004 	xori	v0,a1,0x4
  40dec8:	00641826 	xor	v1,v1,a0
  40decc:	10400004 	beqz	v0,40dee0 <dpdiv+0xc0>
  40ded0:	afa3001c 	sw	v1,28(sp)
  40ded4:	38a20002 	xori	v0,a1,0x2
  40ded8:	1440000e 	bnez	v0,40df14 <dpdiv+0xf4>
  40dedc:	38c20004 	xori	v0,a2,0x4
  40dee0:	8f840140 	lw	a0,320(gp)
  40dee4:	10a60002 	beq	a1,a2,40def0 <dpdiv+0xd0>
  40dee8:	00000000 	nop
  40deec:	01a02021 	move	a0,t5
  40def0:	8f990030 	lw	t9,48(gp)
  40def4:	00000000 	nop
  40def8:	0320f809 	jalr	t9
  40defc:	00000000 	nop
  40df00:	8fbc0010 	lw	gp,16(sp)
  40df04:	8fbf0060 	lw	ra,96(sp)
  40df08:	8fb00058 	lw	s0,88(sp)
  40df0c:	03e00008 	jr	ra
  40df10:	27bd0068 	addiu	sp,sp,104
  40df14:	14400008 	bnez	v0,40df38 <dpdiv+0x118>
  40df18:	38c20002 	xori	v0,a2,0x2
  40df1c:	00001021 	move	v0,zero
  40df20:	00001821 	move	v1,zero
  40df24:	01a02021 	move	a0,t5
  40df28:	afa20028 	sw	v0,40(sp)
  40df2c:	afa3002c 	sw	v1,44(sp)
  40df30:	1000ffef 	b	40def0 <dpdiv+0xd0>
  40df34:	afa00020 	sw	zero,32(sp)
  40df38:	14400004 	bnez	v0,40df4c <dpdiv+0x12c>
  40df3c:	24020004 	li	v0,4
  40df40:	01a02021 	move	a0,t5
  40df44:	1000ffea 	b	40def0 <dpdiv+0xd0>
  40df48:	afa20018 	sw	v0,24(sp)
  40df4c:	8fa30020 	lw	v1,32(sp)
  40df50:	8fa40028 	lw	a0,40(sp)
  40df54:	8fa5002c 	lw	a1,44(sp)
  40df58:	8faa0040 	lw	t2,64(sp)
  40df5c:	8fab0044 	lw	t3,68(sp)
  40df60:	8fa20038 	lw	v0,56(sp)
  40df64:	008a602b 	sltu	t4,a0,t2
  40df68:	00621823 	subu	v1,v1,v0
  40df6c:	1580003d 	bnez	t4,40e064 <dpdiv+0x244>
  40df70:	afa30020 	sw	v1,32(sp)
  40df74:	11440039 	beq	t2,a0,40e05c <dpdiv+0x23c>
  40df78:	00ab102b 	sltu	v0,a1,t3
  40df7c:	3c081000 	lui	t0,0x1000
  40df80:	24090000 	li	t1,0
  40df84:	00007021 	move	t6,zero
  40df88:	00007821 	move	t7,zero
  40df8c:	1580000a 	bnez	t4,40dfb8 <dpdiv+0x198>
  40df90:	000817c0 	sll	v0,t0,0x1f
  40df94:	1144002d 	beq	t2,a0,40e04c <dpdiv+0x22c>
  40df98:	00ab102b 	sltu	v0,a1,t3
  40df9c:	00ab102b 	sltu	v0,a1,t3
  40dfa0:	008a2023 	subu	a0,a0,t2
  40dfa4:	00ab2823 	subu	a1,a1,t3
  40dfa8:	00822023 	subu	a0,a0,v0
  40dfac:	01c87025 	or	t6,t6,t0
  40dfb0:	01e97825 	or	t7,t7,t1
  40dfb4:	000817c0 	sll	v0,t0,0x1f
  40dfb8:	00094842 	srl	t1,t1,0x1
  40dfbc:	00043040 	sll	a2,a0,0x1
  40dfc0:	00051fc2 	srl	v1,a1,0x1f
  40dfc4:	01224825 	or	t1,t1,v0
  40dfc8:	00084042 	srl	t0,t0,0x1
  40dfcc:	00c33025 	or	a2,a2,v1
  40dfd0:	00053840 	sll	a3,a1,0x1
  40dfd4:	01091025 	or	v0,t0,t1
  40dfd8:	00c02021 	move	a0,a2
  40dfdc:	00e02821 	move	a1,a3
  40dfe0:	1440ffea 	bnez	v0,40df8c <dpdiv+0x16c>
  40dfe4:	00ca602b 	sltu	t4,a2,t2
  40dfe8:	24020000 	li	v0,0
  40dfec:	240300ff 	li	v1,255
  40dff0:	01c22024 	and	a0,t6,v0
  40dff4:	14800004 	bnez	a0,40e008 <dpdiv+0x1e8>
  40dff8:	01e32824 	and	a1,t7,v1
  40dffc:	24020080 	li	v0,128
  40e000:	10a20005 	beq	a1,v0,40e018 <dpdiv+0x1f8>
  40e004:	00000000 	nop
  40e008:	adae0010 	sw	t6,16(t5)
  40e00c:	adaf0014 	sw	t7,20(t5)
  40e010:	1000ffb7 	b	40def0 <dpdiv+0xd0>
  40e014:	01a02021 	move	a0,t5
  40e018:	24020000 	li	v0,0
  40e01c:	24030100 	li	v1,256
  40e020:	01c21024 	and	v0,t6,v0
  40e024:	01e31824 	and	v1,t7,v1
  40e028:	00431025 	or	v0,v0,v1
  40e02c:	14400003 	bnez	v0,40e03c <dpdiv+0x21c>
  40e030:	00c71025 	or	v0,a2,a3
  40e034:	1040fff4 	beqz	v0,40e008 <dpdiv+0x1e8>
  40e038:	00000000 	nop
  40e03c:	25ef0080 	addiu	t7,t7,128
  40e040:	2de20080 	sltiu	v0,t7,128
  40e044:	1000fff0 	b	40e008 <dpdiv+0x1e8>
  40e048:	01c27021 	addu	t6,t6,v0
  40e04c:	1440ffd9 	bnez	v0,40dfb4 <dpdiv+0x194>
  40e050:	00ab102b 	sltu	v0,a1,t3
  40e054:	1000ffd3 	b	40dfa4 <dpdiv+0x184>
  40e058:	008a2023 	subu	a0,a0,t2
  40e05c:	1040ffc7 	beqz	v0,40df7c <dpdiv+0x15c>
  40e060:	00000000 	nop
  40e064:	2462ffff 	addiu	v0,v1,-1
  40e068:	00042040 	sll	a0,a0,0x1
  40e06c:	00051fc2 	srl	v1,a1,0x1f
  40e070:	00832025 	or	a0,a0,v1
  40e074:	00052840 	sll	a1,a1,0x1
  40e078:	afa20020 	sw	v0,32(sp)
  40e07c:	1000ffbf 	b	40df7c <dpdiv+0x15c>
  40e080:	008a602b 	sltu	t4,a0,t2
	...

0040e090 <dpcmp>:
  40e090:	3c1c0000 	lui	gp,0x0
  40e094:	279c09d0 	addiu	gp,gp,2512
  40e098:	0399e021 	addu	gp,gp,t9
  40e09c:	27bdff98 	addiu	sp,sp,-104
  40e0a0:	afbc0010 	sw	gp,16(sp)
  40e0a4:	00a01821 	move	v1,a1
  40e0a8:	00801021 	move	v0,a0
  40e0ac:	afb00058 	sw	s0,88(sp)
  40e0b0:	27a40048 	addiu	a0,sp,72
  40e0b4:	27b00030 	addiu	s0,sp,48
  40e0b8:	27a50018 	addiu	a1,sp,24
  40e0bc:	afbf0060 	sw	ra,96(sp)
  40e0c0:	afa20048 	sw	v0,72(sp)
  40e0c4:	afa3004c 	sw	v1,76(sp)
  40e0c8:	afa60050 	sw	a2,80(sp)
  40e0cc:	afa70054 	sw	a3,84(sp)
  40e0d0:	afbc005c 	sw	gp,92(sp)
  40e0d4:	8f9902ac 	lw	t9,684(gp)
  40e0d8:	00000000 	nop
  40e0dc:	0320f809 	jalr	t9
  40e0e0:	00000000 	nop
  40e0e4:	8fbc0010 	lw	gp,16(sp)
  40e0e8:	27a40050 	addiu	a0,sp,80
  40e0ec:	02002821 	move	a1,s0
  40e0f0:	8f9902ac 	lw	t9,684(gp)
  40e0f4:	00000000 	nop
  40e0f8:	0320f809 	jalr	t9
  40e0fc:	00000000 	nop
  40e100:	8fbc0010 	lw	gp,16(sp)
  40e104:	02002821 	move	a1,s0
  40e108:	27a40018 	addiu	a0,sp,24
  40e10c:	8f9901ac 	lw	t9,428(gp)
  40e110:	00000000 	nop
  40e114:	0320f809 	jalr	t9
  40e118:	00000000 	nop
  40e11c:	8fbc0010 	lw	gp,16(sp)
  40e120:	8fbf0060 	lw	ra,96(sp)
  40e124:	8fb00058 	lw	s0,88(sp)
  40e128:	03e00008 	jr	ra
  40e12c:	27bd0068 	addiu	sp,sp,104

0040e130 <litodp>:
  40e130:	3c1c0000 	lui	gp,0x0
  40e134:	279c0930 	addiu	gp,gp,2352
  40e138:	0399e021 	addu	gp,gp,t9
  40e13c:	27bdffc8 	addiu	sp,sp,-56
  40e140:	afbc0010 	sw	gp,16(sp)
  40e144:	00041fc2 	srl	v1,a0,0x1f
  40e148:	24020003 	li	v0,3
  40e14c:	afbf0034 	sw	ra,52(sp)
  40e150:	afbc0030 	sw	gp,48(sp)
  40e154:	afa20018 	sw	v0,24(sp)
  40e158:	1480000d 	bnez	a0,40e190 <litodp+0x60>
  40e15c:	afa3001c 	sw	v1,28(sp)
  40e160:	24020002 	li	v0,2
  40e164:	afa20018 	sw	v0,24(sp)
  40e168:	27a40018 	addiu	a0,sp,24
  40e16c:	8f990030 	lw	t9,48(gp)
  40e170:	00000000 	nop
  40e174:	0320f809 	jalr	t9
  40e178:	00000000 	nop
  40e17c:	8fbc0010 	lw	gp,16(sp)
  40e180:	8fbf0034 	lw	ra,52(sp)
  40e184:	00000000 	nop
  40e188:	03e00008 	jr	ra
  40e18c:	27bd0038 	addiu	sp,sp,56
  40e190:	2402003c 	li	v0,60
  40e194:	1060002b 	beqz	v1,40e244 <litodp+0x114>
  40e198:	afa20020 	sw	v0,32(sp)
  40e19c:	3c028000 	lui	v0,0x8000
  40e1a0:	1082001e 	beq	a0,v0,40e21c <litodp+0xec>
  40e1a4:	00000000 	nop
  40e1a8:	00041023 	negu	v0,a0
  40e1ac:	00401821 	move	v1,v0
  40e1b0:	000217c3 	sra	v0,v0,0x1f
  40e1b4:	afa20028 	sw	v0,40(sp)
  40e1b8:	afa3002c 	sw	v1,44(sp)
  40e1bc:	8fa30028 	lw	v1,40(sp)
  40e1c0:	3c020fff 	lui	v0,0xfff
  40e1c4:	3442ffff 	ori	v0,v0,0xffff
  40e1c8:	0043102b 	sltu	v0,v0,v1
  40e1cc:	1440ffe6 	bnez	v0,40e168 <litodp+0x38>
  40e1d0:	3c060fff 	lui	a2,0xfff
  40e1d4:	8fa50020 	lw	a1,32(sp)
  40e1d8:	34c6ffff 	ori	a2,a2,0xffff
  40e1dc:	8fa20028 	lw	v0,40(sp)
  40e1e0:	8fa3002c 	lw	v1,44(sp)
  40e1e4:	00000000 	nop
  40e1e8:	000327c2 	srl	a0,v1,0x1f
  40e1ec:	00021040 	sll	v0,v0,0x1
  40e1f0:	00441025 	or	v0,v0,a0
  40e1f4:	00031840 	sll	v1,v1,0x1
  40e1f8:	afa20028 	sw	v0,40(sp)
  40e1fc:	afa3002c 	sw	v1,44(sp)
  40e200:	8fa40028 	lw	a0,40(sp)
  40e204:	00000000 	nop
  40e208:	00c4202b 	sltu	a0,a2,a0
  40e20c:	1080fff3 	beqz	a0,40e1dc <litodp+0xac>
  40e210:	24a5ffff 	addiu	a1,a1,-1
  40e214:	1000ffd4 	b	40e168 <litodp+0x38>
  40e218:	afa50020 	sw	a1,32(sp)
  40e21c:	8f82000c 	lw	v0,12(gp)
  40e220:	00000000 	nop
  40e224:	2442ea58 	addiu	v0,v0,-5544
  40e228:	8c420000 	lw	v0,0(v0)
  40e22c:	8f83000c 	lw	v1,12(gp)
  40e230:	00000000 	nop
  40e234:	2463ea58 	addiu	v1,v1,-5544
  40e238:	8c630004 	lw	v1,4(v1)
  40e23c:	1000ffd0 	b	40e180 <litodp+0x50>
  40e240:	00000000 	nop
  40e244:	00801821 	move	v1,a0
  40e248:	1000ffda 	b	40e1b4 <litodp+0x84>
  40e24c:	000417c3 	sra	v0,a0,0x1f

0040e250 <dptoul>:
  40e250:	3c1c0000 	lui	gp,0x0
  40e254:	279c0810 	addiu	gp,gp,2064
  40e258:	0399e021 	addu	gp,gp,t9
  40e25c:	27bdffc0 	addiu	sp,sp,-64
  40e260:	afbc0010 	sw	gp,16(sp)
  40e264:	00801021 	move	v0,a0
  40e268:	00a01821 	move	v1,a1
  40e26c:	27a40030 	addiu	a0,sp,48
  40e270:	27a50018 	addiu	a1,sp,24
  40e274:	afa20030 	sw	v0,48(sp)
  40e278:	afa30034 	sw	v1,52(sp)
  40e27c:	afbf003c 	sw	ra,60(sp)
  40e280:	afbc0038 	sw	gp,56(sp)
  40e284:	8f9902ac 	lw	t9,684(gp)
  40e288:	00000000 	nop
  40e28c:	0320f809 	jalr	t9
  40e290:	00000000 	nop
  40e294:	8fbc0010 	lw	gp,16(sp)
  40e298:	8fa30018 	lw	v1,24(sp)
  40e29c:	00002021 	move	a0,zero
  40e2a0:	38620002 	xori	v0,v1,0x2
  40e2a4:	10400022 	beqz	v0,40e330 <dptoul+0xe0>
  40e2a8:	2c660002 	sltiu	a2,v1,2
  40e2ac:	14c00020 	bnez	a2,40e330 <dptoul+0xe0>
  40e2b0:	00000000 	nop
  40e2b4:	8fa2001c 	lw	v0,28(sp)
  40e2b8:	00000000 	nop
  40e2bc:	1440001c 	bnez	v0,40e330 <dptoul+0xe0>
  40e2c0:	38630004 	xori	v1,v1,0x4
  40e2c4:	1060001a 	beqz	v1,40e330 <dptoul+0xe0>
  40e2c8:	2404ffff 	li	a0,-1
  40e2cc:	8fa20020 	lw	v0,32(sp)
  40e2d0:	00002021 	move	a0,zero
  40e2d4:	04400016 	bltz	v0,40e330 <dptoul+0xe0>
  40e2d8:	28430020 	slti	v1,v0,32
  40e2dc:	2845003d 	slti	a1,v0,61
  40e2e0:	10600013 	beqz	v1,40e330 <dptoul+0xe0>
  40e2e4:	2404ffff 	li	a0,-1
  40e2e8:	14a00015 	bnez	a1,40e340 <dptoul+0xf0>
  40e2ec:	2444ffc4 	addiu	a0,v0,-60
  40e2f0:	8fa20028 	lw	v0,40(sp)
  40e2f4:	8fa3002c 	lw	v1,44(sp)
  40e2f8:	00043680 	sll	a2,a0,0x1a
  40e2fc:	04c10004 	bgez	a2,40e310 <dptoul+0xc0>
  40e300:	00000000 	nop
  40e304:	00834004 	sllv	t0,v1,a0
  40e308:	10000007 	b	40e328 <dptoul+0xd8>
  40e30c:	00004821 	move	t1,zero
  40e310:	10c00004 	beqz	a2,40e324 <dptoul+0xd4>
  40e314:	00824004 	sllv	t0,v0,a0
  40e318:	00043023 	negu	a2,a0
  40e31c:	00c33006 	srlv	a2,v1,a2
  40e320:	01064025 	or	t0,t0,a2
  40e324:	00834804 	sllv	t1,v1,a0
  40e328:	01202821 	move	a1,t1
  40e32c:	00a02021 	move	a0,a1
  40e330:	8fbf003c 	lw	ra,60(sp)
  40e334:	00801021 	move	v0,a0
  40e338:	03e00008 	jr	ra
  40e33c:	27bd0040 	addiu	sp,sp,64
  40e340:	2406003c 	li	a2,60
  40e344:	00c23023 	subu	a2,a2,v0
  40e348:	8fa20028 	lw	v0,40(sp)
  40e34c:	8fa3002c 	lw	v1,44(sp)
  40e350:	00063e80 	sll	a3,a2,0x1a
  40e354:	04e10004 	bgez	a3,40e368 <dptoul+0x118>
  40e358:	00000000 	nop
  40e35c:	00c22806 	srlv	a1,v0,a2
  40e360:	10000007 	b	40e380 <dptoul+0x130>
  40e364:	00002021 	move	a0,zero
  40e368:	10e00004 	beqz	a3,40e37c <dptoul+0x12c>
  40e36c:	00c32806 	srlv	a1,v1,a2
  40e370:	00063823 	negu	a3,a2
  40e374:	00e23804 	sllv	a3,v0,a3
  40e378:	00a72825 	or	a1,a1,a3
  40e37c:	00c22006 	srlv	a0,v0,a2
  40e380:	1000ffeb 	b	40e330 <dptoul+0xe0>
  40e384:	00a02021 	move	a0,a1
	...

0040e390 <__pack_d>:
  40e390:	3c1c0000 	lui	gp,0x0
  40e394:	279c06d0 	addiu	gp,gp,1744
  40e398:	0399e021 	addu	gp,gp,t9
  40e39c:	8c830000 	lw	v1,0(a0)
  40e3a0:	8c880010 	lw	t0,16(a0)
  40e3a4:	8c890014 	lw	t1,20(a0)
  40e3a8:	2c620002 	sltiu	v0,v1,2
  40e3ac:	8c8b0004 	lw	t3,4(a0)
  40e3b0:	10400017 	beqz	v0,40e410 <__pack_d+0x80>
  40e3b4:	00005021 	move	t2,zero
  40e3b8:	3c020008 	lui	v0,0x8
  40e3bc:	24030000 	li	v1,0
  40e3c0:	01024025 	or	t0,t0,v0
  40e3c4:	01234825 	or	t1,t1,v1
  40e3c8:	240a07ff 	li	t2,2047
  40e3cc:	24040000 	li	a0,0
  40e3d0:	240507ff 	li	a1,2047
  40e3d4:	01451824 	and	v1,t2,a1
  40e3d8:	3c06000f 	lui	a2,0xf
  40e3dc:	34c6ffff 	ori	a2,a2,0xffff
  40e3e0:	2407ffff 	li	a3,-1
  40e3e4:	00031500 	sll	v0,v1,0x14
  40e3e8:	01063024 	and	a2,t0,a2
  40e3ec:	01273824 	and	a3,t1,a3
  40e3f0:	00001821 	move	v1,zero
  40e3f4:	00c23025 	or	a2,a2,v0
  40e3f8:	00e33825 	or	a3,a3,v1
  40e3fc:	000b27c0 	sll	a0,t3,0x1f
  40e400:	00002821 	move	a1,zero
  40e404:	00c41025 	or	v0,a2,a0
  40e408:	03e00008 	jr	ra
  40e40c:	00e51825 	or	v1,a3,a1
  40e410:	38620004 	xori	v0,v1,0x4
  40e414:	1040005d 	beqz	v0,40e58c <__pack_d+0x1fc>
  40e418:	00000000 	nop
  40e41c:	38620002 	xori	v0,v1,0x2
  40e420:	1040005b 	beqz	v0,40e590 <__pack_d+0x200>
  40e424:	00000000 	nop
  40e428:	01091025 	or	v0,t0,t1
  40e42c:	1040ffe7 	beqz	v0,40e3cc <__pack_d+0x3c>
  40e430:	00000000 	nop
  40e434:	8c840008 	lw	a0,8(a0)
  40e438:	00000000 	nop
  40e43c:	2882fc02 	slti	v0,a0,-1022
  40e440:	10400050 	beqz	v0,40e584 <__pack_d+0x1f4>
  40e444:	28820400 	slti	v0,a0,1024
  40e448:	2402fc02 	li	v0,-1022
  40e44c:	00446023 	subu	t4,v0,a0
  40e450:	29830039 	slti	v1,t4,57
  40e454:	14600023 	bnez	v1,40e4e4 <__pack_d+0x154>
  40e458:	00000000 	nop
  40e45c:	00004021 	move	t0,zero
  40e460:	00004821 	move	t1,zero
  40e464:	24020000 	li	v0,0
  40e468:	240300ff 	li	v1,255
  40e46c:	01022024 	and	a0,t0,v0
  40e470:	14800004 	bnez	a0,40e484 <__pack_d+0xf4>
  40e474:	01232824 	and	a1,t1,v1
  40e478:	24020080 	li	v0,128
  40e47c:	10a2000f 	beq	a1,v0,40e4bc <__pack_d+0x12c>
  40e480:	00000000 	nop
  40e484:	2529007f 	addiu	t1,t1,127
  40e488:	2d22007f 	sltiu	v0,t1,127
  40e48c:	01024021 	addu	t0,t0,v0
  40e490:	3c020fff 	lui	v0,0xfff
  40e494:	3442ffff 	ori	v0,v0,0xffff
  40e498:	0048102b 	sltu	v0,v0,t0
  40e49c:	10400002 	beqz	v0,40e4a8 <__pack_d+0x118>
  40e4a0:	00000000 	nop
  40e4a4:	240a0001 	li	t2,1
  40e4a8:	00081600 	sll	v0,t0,0x18
  40e4ac:	00094a02 	srl	t1,t1,0x8
  40e4b0:	01224825 	or	t1,t1,v0
  40e4b4:	1000ffc5 	b	40e3cc <__pack_d+0x3c>
  40e4b8:	00084202 	srl	t0,t0,0x8
  40e4bc:	24020000 	li	v0,0
  40e4c0:	24030100 	li	v1,256
  40e4c4:	01021024 	and	v0,t0,v0
  40e4c8:	01231824 	and	v1,t1,v1
  40e4cc:	00431025 	or	v0,v0,v1
  40e4d0:	1040ffef 	beqz	v0,40e490 <__pack_d+0x100>
  40e4d4:	00000000 	nop
  40e4d8:	25290080 	addiu	t1,t1,128
  40e4dc:	1000ffeb 	b	40e48c <__pack_d+0xfc>
  40e4e0:	2d220080 	sltiu	v0,t1,128
  40e4e4:	24040000 	li	a0,0
  40e4e8:	24050001 	li	a1,1
  40e4ec:	000c3680 	sll	a2,t4,0x1a
  40e4f0:	04c10004 	bgez	a2,40e504 <__pack_d+0x174>
  40e4f4:	00000000 	nop
  40e4f8:	01851004 	sllv	v0,a1,t4
  40e4fc:	10000007 	b	40e51c <__pack_d+0x18c>
  40e500:	00001821 	move	v1,zero
  40e504:	10c00004 	beqz	a2,40e518 <__pack_d+0x188>
  40e508:	01841004 	sllv	v0,a0,t4
  40e50c:	000c3023 	negu	a2,t4
  40e510:	00c53006 	srlv	a2,a1,a2
  40e514:	00461025 	or	v0,v0,a2
  40e518:	01851804 	sllv	v1,a1,t4
  40e51c:	2463ffff 	addiu	v1,v1,-1
  40e520:	2c67ffff 	sltiu	a3,v1,-1
  40e524:	2442ffff 	addiu	v0,v0,-1
  40e528:	00471021 	addu	v0,v0,a3
  40e52c:	01021024 	and	v0,t0,v0
  40e530:	01231824 	and	v1,t1,v1
  40e534:	00431025 	or	v0,v0,v1
  40e538:	10400002 	beqz	v0,40e544 <__pack_d+0x1b4>
  40e53c:	00003821 	move	a3,zero
  40e540:	24070001 	li	a3,1
  40e544:	000c3680 	sll	a2,t4,0x1a
  40e548:	04c10004 	bgez	a2,40e55c <__pack_d+0x1cc>
  40e54c:	00000000 	nop
  40e550:	01882806 	srlv	a1,t0,t4
  40e554:	10000007 	b	40e574 <__pack_d+0x1e4>
  40e558:	00002021 	move	a0,zero
  40e55c:	10c00004 	beqz	a2,40e570 <__pack_d+0x1e0>
  40e560:	01892806 	srlv	a1,t1,t4
  40e564:	000c3023 	negu	a2,t4
  40e568:	00c83004 	sllv	a2,t0,a2
  40e56c:	00a62825 	or	a1,a1,a2
  40e570:	01882006 	srlv	a0,t0,t4
  40e574:	00001021 	move	v0,zero
  40e578:	00824025 	or	t0,a0,v0
  40e57c:	1000ffb9 	b	40e464 <__pack_d+0xd4>
  40e580:	00a74825 	or	t1,a1,a3
  40e584:	14400005 	bnez	v0,40e59c <__pack_d+0x20c>
  40e588:	00000000 	nop
  40e58c:	240a07ff 	li	t2,2047
  40e590:	00004021 	move	t0,zero
  40e594:	1000ff8d 	b	40e3cc <__pack_d+0x3c>
  40e598:	00004821 	move	t1,zero
  40e59c:	24020000 	li	v0,0
  40e5a0:	240300ff 	li	v1,255
  40e5a4:	01023024 	and	a2,t0,v0
  40e5a8:	01233824 	and	a3,t1,v1
  40e5ac:	14c00004 	bnez	a2,40e5c0 <__pack_d+0x230>
  40e5b0:	248a03ff 	addiu	t2,a0,1023
  40e5b4:	24020080 	li	v0,128
  40e5b8:	10e2000f 	beq	a3,v0,40e5f8 <__pack_d+0x268>
  40e5bc:	00000000 	nop
  40e5c0:	2529007f 	addiu	t1,t1,127
  40e5c4:	2d22007f 	sltiu	v0,t1,127
  40e5c8:	01024021 	addu	t0,t0,v0
  40e5cc:	3c021fff 	lui	v0,0x1fff
  40e5d0:	3442ffff 	ori	v0,v0,0xffff
  40e5d4:	0048102b 	sltu	v0,v0,t0
  40e5d8:	1040ffb3 	beqz	v0,40e4a8 <__pack_d+0x118>
  40e5dc:	00000000 	nop
  40e5e0:	000817c0 	sll	v0,t0,0x1f
  40e5e4:	00094842 	srl	t1,t1,0x1
  40e5e8:	01224825 	or	t1,t1,v0
  40e5ec:	00084042 	srl	t0,t0,0x1
  40e5f0:	1000ffad 	b	40e4a8 <__pack_d+0x118>
  40e5f4:	254a0001 	addiu	t2,t2,1
  40e5f8:	24020000 	li	v0,0
  40e5fc:	24030100 	li	v1,256
  40e600:	01021024 	and	v0,t0,v0
  40e604:	01231824 	and	v1,t1,v1
  40e608:	00431025 	or	v0,v0,v1
  40e60c:	1040ffef 	beqz	v0,40e5cc <__pack_d+0x23c>
  40e610:	00000000 	nop
  40e614:	25290080 	addiu	t1,t1,128
  40e618:	1000ffeb 	b	40e5c8 <__pack_d+0x238>
  40e61c:	2d220080 	sltiu	v0,t1,128

0040e620 <__unpack_d>:
  40e620:	3c1c0000 	lui	gp,0x0
  40e624:	279c0440 	addiu	gp,gp,1088
  40e628:	0399e021 	addu	gp,gp,t9
  40e62c:	8c860000 	lw	a2,0(a0)
  40e630:	8c870004 	lw	a3,4(a0)
  40e634:	00a05821 	move	t3,a1
  40e638:	00061fc2 	srl	v1,a2,0x1f
  40e63c:	00062d02 	srl	a1,a2,0x14
  40e640:	30680001 	andi	t0,v1,0x1
  40e644:	30aa07ff 	andi	t2,a1,0x7ff
  40e648:	3c02000f 	lui	v0,0xf
  40e64c:	3442ffff 	ori	v0,v0,0xffff
  40e650:	2403ffff 	li	v1,-1
  40e654:	ad680004 	sw	t0,4(t3)
  40e658:	00e34824 	and	t1,a3,v1
  40e65c:	15400020 	bnez	t2,40e6e0 <__unpack_d+0xc0>
  40e660:	00c24024 	and	t0,a2,v0
  40e664:	01091025 	or	v0,t0,t1
  40e668:	14400004 	bnez	v0,40e67c <__unpack_d+0x5c>
  40e66c:	00091602 	srl	v0,t1,0x18
  40e670:	24020002 	li	v0,2
  40e674:	03e00008 	jr	ra
  40e678:	ad620000 	sw	v0,0(t3)
  40e67c:	3c040fff 	lui	a0,0xfff
  40e680:	00084200 	sll	t0,t0,0x8
  40e684:	01024025 	or	t0,t0,v0
  40e688:	3484ffff 	ori	a0,a0,0xffff
  40e68c:	2402fc02 	li	v0,-1022
  40e690:	24030003 	li	v1,3
  40e694:	0088202b 	sltu	a0,a0,t0
  40e698:	00094a00 	sll	t1,t1,0x8
  40e69c:	ad620008 	sw	v0,8(t3)
  40e6a0:	1480000c 	bnez	a0,40e6d4 <__unpack_d+0xb4>
  40e6a4:	ad630000 	sw	v1,0(t3)
  40e6a8:	3c050fff 	lui	a1,0xfff
  40e6ac:	34a5ffff 	ori	a1,a1,0xffff
  40e6b0:	2404fc02 	li	a0,-1022
  40e6b4:	00091fc2 	srl	v1,t1,0x1f
  40e6b8:	00084040 	sll	t0,t0,0x1
  40e6bc:	01034025 	or	t0,t0,v1
  40e6c0:	00a8102b 	sltu	v0,a1,t0
  40e6c4:	00094840 	sll	t1,t1,0x1
  40e6c8:	1040fffa 	beqz	v0,40e6b4 <__unpack_d+0x94>
  40e6cc:	2484ffff 	addiu	a0,a0,-1
  40e6d0:	ad640008 	sw	a0,8(t3)
  40e6d4:	ad680010 	sw	t0,16(t3)
  40e6d8:	03e00008 	jr	ra
  40e6dc:	ad690014 	sw	t1,20(t3)
  40e6e0:	240207ff 	li	v0,2047
  40e6e4:	1142000e 	beq	t2,v0,40e720 <__unpack_d+0x100>
  40e6e8:	00093602 	srl	a2,t1,0x18
  40e6ec:	00081200 	sll	v0,t0,0x8
  40e6f0:	00461025 	or	v0,v0,a2
  40e6f4:	3c041000 	lui	a0,0x1000
  40e6f8:	24050000 	li	a1,0
  40e6fc:	00091a00 	sll	v1,t1,0x8
  40e700:	00441025 	or	v0,v0,a0
  40e704:	00651825 	or	v1,v1,a1
  40e708:	2546fc01 	addiu	a2,t2,-1023
  40e70c:	ad620010 	sw	v0,16(t3)
  40e710:	ad630014 	sw	v1,20(t3)
  40e714:	24020003 	li	v0,3
  40e718:	1000ffd6 	b	40e674 <__unpack_d+0x54>
  40e71c:	ad660008 	sw	a2,8(t3)
  40e720:	01091025 	or	v0,t0,t1
  40e724:	1040ffd3 	beqz	v0,40e674 <__unpack_d+0x54>
  40e728:	24020004 	li	v0,4
  40e72c:	3c020008 	lui	v0,0x8
  40e730:	24030000 	li	v1,0
  40e734:	01021024 	and	v0,t0,v0
  40e738:	01231824 	and	v1,t1,v1
  40e73c:	00431025 	or	v0,v0,v1
  40e740:	10400003 	beqz	v0,40e750 <__unpack_d+0x130>
  40e744:	24020001 	li	v0,1
  40e748:	1000ffe2 	b	40e6d4 <__unpack_d+0xb4>
  40e74c:	ad620000 	sw	v0,0(t3)
  40e750:	1000ffe0 	b	40e6d4 <__unpack_d+0xb4>
  40e754:	ad600000 	sw	zero,0(t3)
	...

0040e760 <__fpcmp_parts_d>:
  40e760:	3c1c0000 	lui	gp,0x0
  40e764:	279c0300 	addiu	gp,gp,768
  40e768:	0399e021 	addu	gp,gp,t9
  40e76c:	8c860000 	lw	a2,0(a0)
  40e770:	00000000 	nop
  40e774:	2cc20002 	sltiu	v0,a2,2
  40e778:	14400010 	bnez	v0,40e7bc <__fpcmp_parts_d+0x5c>
  40e77c:	24030001 	li	v1,1
  40e780:	8ca70000 	lw	a3,0(a1)
  40e784:	00000000 	nop
  40e788:	2ce20002 	sltiu	v0,a3,2
  40e78c:	1440000b 	bnez	v0,40e7bc <__fpcmp_parts_d+0x5c>
  40e790:	00000000 	nop
  40e794:	38c20004 	xori	v0,a2,0x4
  40e798:	1440000b 	bnez	v0,40e7c8 <__fpcmp_parts_d+0x68>
  40e79c:	00000000 	nop
  40e7a0:	38e20004 	xori	v0,a3,0x4
  40e7a4:	14400007 	bnez	v0,40e7c4 <__fpcmp_parts_d+0x64>
  40e7a8:	00000000 	nop
  40e7ac:	8ca30004 	lw	v1,4(a1)
  40e7b0:	8c820004 	lw	v0,4(a0)
  40e7b4:	00000000 	nop
  40e7b8:	00621823 	subu	v1,v1,v0
  40e7bc:	03e00008 	jr	ra
  40e7c0:	00601021 	move	v0,v1
  40e7c4:	38c20004 	xori	v0,a2,0x4
  40e7c8:	10400012 	beqz	v0,40e814 <__fpcmp_parts_d+0xb4>
  40e7cc:	38e20004 	xori	v0,a3,0x4
  40e7d0:	10400008 	beqz	v0,40e7f4 <__fpcmp_parts_d+0x94>
  40e7d4:	38c20002 	xori	v0,a2,0x2
  40e7d8:	1440000c 	bnez	v0,40e80c <__fpcmp_parts_d+0xac>
  40e7dc:	38e20002 	xori	v0,a3,0x2
  40e7e0:	1040fff6 	beqz	v0,40e7bc <__fpcmp_parts_d+0x5c>
  40e7e4:	00001821 	move	v1,zero
  40e7e8:	38c20002 	xori	v0,a2,0x2
  40e7ec:	14400007 	bnez	v0,40e80c <__fpcmp_parts_d+0xac>
  40e7f0:	38e20002 	xori	v0,a3,0x2
  40e7f4:	8ca20004 	lw	v0,4(a1)
  40e7f8:	00000000 	nop
  40e7fc:	1440ffef 	bnez	v0,40e7bc <__fpcmp_parts_d+0x5c>
  40e800:	24030001 	li	v1,1
  40e804:	1000ffed 	b	40e7bc <__fpcmp_parts_d+0x5c>
  40e808:	2403ffff 	li	v1,-1
  40e80c:	14400007 	bnez	v0,40e82c <__fpcmp_parts_d+0xcc>
  40e810:	00000000 	nop
  40e814:	8c820004 	lw	v0,4(a0)
  40e818:	00000000 	nop
  40e81c:	1440ffe7 	bnez	v0,40e7bc <__fpcmp_parts_d+0x5c>
  40e820:	2403ffff 	li	v1,-1
  40e824:	1000ffe5 	b	40e7bc <__fpcmp_parts_d+0x5c>
  40e828:	24030001 	li	v1,1
  40e82c:	8c860004 	lw	a2,4(a0)
  40e830:	8ca20004 	lw	v0,4(a1)
  40e834:	00000000 	nop
  40e838:	10c20006 	beq	a2,v0,40e854 <__fpcmp_parts_d+0xf4>
  40e83c:	00000000 	nop
  40e840:	14c00002 	bnez	a2,40e84c <__fpcmp_parts_d+0xec>
  40e844:	2402ffff 	li	v0,-1
  40e848:	24020001 	li	v0,1
  40e84c:	1000ffdb 	b	40e7bc <__fpcmp_parts_d+0x5c>
  40e850:	00401821 	move	v1,v0
  40e854:	8c870008 	lw	a3,8(a0)
  40e858:	8ca30008 	lw	v1,8(a1)
  40e85c:	00000000 	nop
  40e860:	0067102a 	slt	v0,v1,a3
  40e864:	1440fff6 	bnez	v0,40e840 <__fpcmp_parts_d+0xe0>
  40e868:	00000000 	nop
  40e86c:	00e3102a 	slt	v0,a3,v1
  40e870:	14400014 	bnez	v0,40e8c4 <__fpcmp_parts_d+0x164>
  40e874:	00000000 	nop
  40e878:	8c880010 	lw	t0,16(a0)
  40e87c:	8ca70010 	lw	a3,16(a1)
  40e880:	00000000 	nop
  40e884:	00e8102b 	sltu	v0,a3,t0
  40e888:	1440ffed 	bnez	v0,40e840 <__fpcmp_parts_d+0xe0>
  40e88c:	00000000 	nop
  40e890:	11070010 	beq	t0,a3,40e8d4 <__fpcmp_parts_d+0x174>
  40e894:	00000000 	nop
  40e898:	0107102b 	sltu	v0,t0,a3
  40e89c:	14400009 	bnez	v0,40e8c4 <__fpcmp_parts_d+0x164>
  40e8a0:	00000000 	nop
  40e8a4:	14e8ffc5 	bne	a3,t0,40e7bc <__fpcmp_parts_d+0x5c>
  40e8a8:	00001821 	move	v1,zero
  40e8ac:	8ca30014 	lw	v1,20(a1)
  40e8b0:	8c820014 	lw	v0,20(a0)
  40e8b4:	00000000 	nop
  40e8b8:	0043102b 	sltu	v0,v0,v1
  40e8bc:	1040ffbf 	beqz	v0,40e7bc <__fpcmp_parts_d+0x5c>
  40e8c0:	00001821 	move	v1,zero
  40e8c4:	14c0ffe1 	bnez	a2,40e84c <__fpcmp_parts_d+0xec>
  40e8c8:	24020001 	li	v0,1
  40e8cc:	1000ffdf 	b	40e84c <__fpcmp_parts_d+0xec>
  40e8d0:	2402ffff 	li	v0,-1
  40e8d4:	8c830014 	lw	v1,20(a0)
  40e8d8:	8ca20014 	lw	v0,20(a1)
  40e8dc:	00000000 	nop
  40e8e0:	0043102b 	sltu	v0,v0,v1
  40e8e4:	1040ffec 	beqz	v0,40e898 <__fpcmp_parts_d+0x138>
  40e8e8:	00000000 	nop
  40e8ec:	1000ffd4 	b	40e840 <__fpcmp_parts_d+0xe0>
  40e8f0:	00000000 	nop
	...
  40e900:	3c1c0000 	lui	gp,0x0
  40e904:	279c0160 	addiu	gp,gp,352
  40e908:	0399e021 	addu	gp,gp,t9
  40e90c:	27bdffd8 	addiu	sp,sp,-40
  40e910:	afbc0010 	sw	gp,16(sp)
  40e914:	8f83000c 	lw	v1,12(gp)
  40e918:	00000000 	nop
  40e91c:	24631db8 	addiu	v1,v1,7608
  40e920:	8c63fffc 	lw	v1,-4(v1)
  40e924:	2402ffff 	li	v0,-1
  40e928:	afb00018 	sw	s0,24(sp)
  40e92c:	afbf0024 	sw	ra,36(sp)
  40e930:	afbc0020 	sw	gp,32(sp)
  40e934:	8f90000c 	lw	s0,12(gp)
  40e938:	00000000 	nop
  40e93c:	26101db4 	addiu	s0,s0,7604
  40e940:	1062000b 	beq	v1,v0,40e970 <__fpcmp_parts_d+0x210>
  40e944:	afb1001c 	sw	s1,28(sp)
  40e948:	2411ffff 	li	s1,-1
  40e94c:	2610fffc 	addiu	s0,s0,-4
  40e950:	0060c821 	move	t9,v1
  40e954:	0320f809 	jalr	t9
  40e958:	00000000 	nop
  40e95c:	8fbc0010 	lw	gp,16(sp)
  40e960:	8e020000 	lw	v0,0(s0)
  40e964:	00000000 	nop
  40e968:	1451fff8 	bne	v0,s1,40e94c <__fpcmp_parts_d+0x1ec>
  40e96c:	00401821 	move	v1,v0
  40e970:	8fbf0024 	lw	ra,36(sp)
  40e974:	8fb1001c 	lw	s1,28(sp)
  40e978:	8fb00018 	lw	s0,24(sp)
  40e97c:	03e00008 	jr	ra
  40e980:	27bd0028 	addiu	sp,sp,40
	...
  40e994:	04110001 	bal	40e99c <__fpcmp_parts_d+0x23c>
  40e998:	00000000 	nop
  40e99c:	3c1c0000 	lui	gp,0x0
  40e9a0:	279c00c4 	addiu	gp,gp,196
  40e9a4:	039fe021 	addu	gp,gp,ra
  40e9a8:	8f990008 	lw	t9,8(gp)
  40e9ac:	00000000 	nop
  40e9b0:	2739016c 	addiu	t9,t9,364
  40e9b4:	0320f809 	jalr	t9
  40e9b8:	00000000 	nop
  40e9bc:	8fbc0010 	lw	gp,16(sp)
  40e9c0:	00000000 	nop
  40e9c4:	04110001 	bal	40e9cc <__fpcmp_parts_d+0x26c>
  40e9c8:	00000000 	nop
  40e9cc:	3c1c0000 	lui	gp,0x0
  40e9d0:	279c0094 	addiu	gp,gp,148
  40e9d4:	039fe021 	addu	gp,gp,ra
  40e9d8:	8f99000c 	lw	t9,12(gp)
  40e9dc:	00000000 	nop
  40e9e0:	2739e900 	addiu	t9,t9,-5888
  40e9e4:	0320f809 	jalr	t9
  40e9e8:	00000000 	nop
  40e9ec:	8fbc0010 	lw	gp,16(sp)
  40e9f0:	00000000 	nop
  40e9f4:	04110001 	bal	40e9fc <__fpcmp_parts_d+0x29c>
  40e9f8:	00000000 	nop
  40e9fc:	3c1c0000 	lui	gp,0x0
  40ea00:	279c0064 	addiu	gp,gp,100
  40ea04:	039fe021 	addu	gp,gp,ra
  40ea08:	8f990008 	lw	t9,8(gp)
  40ea0c:	00000000 	nop
  40ea10:	27390080 	addiu	t9,t9,128
  40ea14:	0320f809 	jalr	t9
  40ea18:	00000000 	nop
  40ea1c:	8fbc0010 	lw	gp,16(sp)
	...
  40ea28:	3ff00000 	0x3ff00000
  40ea2c:	00000000 	nop
  40ea30:	3fd00000 	0x3fd00000
  40ea34:	00000000 	nop
  40ea38:	4197d784 	0x4197d784
  40ea3c:	00000000 	nop
  40ea40:	41cdcd65 	0x41cdcd65
  40ea44:	00000000 	nop
  40ea48:	40240000 	0x40240000
  40ea4c:	00000000 	nop
  40ea50:	41f00000 	0x41f00000
  40ea54:	00000000 	nop
  40ea58:	c1e00000 	lwc0	$0,0(t7)
  40ea5c:	00000000 	nop
