Certificate:
    Data:
        Version: 3 (0x2)
        Serial Number: 4097 (0x1001)
        Signature Algorithm: sha1WithRSAEncryption
        Issuer: C=IN, ST=Karnataka, L=Bangalore, O=calsoft, OU=ngdc, CN=ca/emailAddress=ca@email.com
        Validity
            Not Before: Apr 18 11:01:19 2011 GMT
            Not After : Apr 17 11:01:19 2012 GMT
        Subject: C=IN, ST=Karanataka, L=Bangalore, O=calsoft, OU=ngdc, CN=client/emailAddress=client@email.com
        Subject Public Key Info:
            Public Key Algorithm: rsaEncryption
            RSA Public Key: (1024 bit)
                Modulus (1024 bit):
                    00:c1:4e:10:e2:a2:41:52:6b:ed:1a:8e:30:9a:39:
                    e5:6f:80:06:4c:a2:57:eb:fd:b2:a6:5a:8f:b4:86:
                    8b:76:e5:af:3f:88:b3:8c:16:96:08:63:3e:dd:61:
                    d5:86:27:4b:ca:3c:3c:30:5d:e2:e7:eb:9d:fc:83:
                    9d:0e:8d:60:2d:45:b8:82:13:5b:cf:3e:29:f0:8d:
                    d7:8d:f0:75:a2:15:f3:a4:f0:8f:8b:71:57:ee:fb:
                    2a:65:93:58:29:00:b1:78:89:5a:3e:b9:b7:95:9c:
                    0a:52:75:af:5e:b6:a3:f7:43:7a:19:e4:fe:9a:06:
                    7c:f1:8c:3b:fe:b8:91:b8:df
                Exponent: 65537 (0x10001)
        X509v3 extensions:
            X509v3 Basic Constraints: 
                CA:FALSE
            Netscape Comment: 
                OpenSSL Generated Certificate
            X509v3 Subject Key Identifier: 
                77:BD:AB:10:23:BC:87:99:3C:12:4A:10:10:BD:CA:88:0D:75:56:14
            X509v3 Authority Key Identifier: 
                keyid:4E:3A:A2:DE:65:DB:81:2F:1B:46:E0:B0:BB:E0:A3:29:27:6F:EB:B4

    Signature Algorithm: sha1WithRSAEncryption
        df:df:fc:eb:e2:ea:b3:1a:53:c8:fd:35:c0:1f:77:1b:44:cf:
        be:b9:de:db:d8:0e:25:dd:fa:3a:6f:59:52:ed:7e:4b:d3:48:
        ef:35:99:42:64:fd:2b:11:4c:36:62:64:cb:e9:97:a4:07:d6:
        f6:b1:b0:3d:26:5f:b8:f1:ec:70:90:de:53:96:cb:d3:1b:9b:
        fb:80:2a:8a:d7:4c:93:a0:66:d7:c7:01:0b:fb:68:d5:3f:28:
        81:96:19:fc:98:65:d8:c6:45:24:96:92:90:47:79:b3:56:44:
        45:19:2b:5d:be:5e:a0:72:5b:33:34:03:b8:08:81:34:fb:e8:
        53:40
-----BEGIN CERTIFICATE-----
MIIC/TCCAmagAwIBAgICEAEwDQYJKoZIhvcNAQEFBQAwgYAxCzAJBgNVBAYTAklO
MRIwEAYDVQQIEwlLYXJuYXRha2ExEjAQBgNVBAcTCUJhbmdhbG9yZTEQMA4GA1UE
ChMHY2Fsc29mdDENMAsGA1UECxMEbmdkYzELMAkGA1UEAxMCY2ExGzAZBgkqhkiG
9w0BCQEWDGNhQGVtYWlsLmNvbTAeFw0xMTA0MTgxMTAxMTlaFw0xMjA0MTcxMTAx
MTlaMIGJMQswCQYDVQQGEwJJTjETMBEGA1UECBMKS2FyYW5hdGFrYTESMBAGA1UE
BxMJQmFuZ2Fsb3JlMRAwDgYDVQQKEwdjYWxzb2Z0MQ0wCwYDVQQLEwRuZ2RjMQ8w
DQYDVQQDEwZjbGllbnQxHzAdBgkqhkiG9w0BCQEWEGNsaWVudEBlbWFpbC5jb20w
gZ8wDQYJKoZIhvcNAQEBBQADgY0AMIGJAoGBAMFOEOKiQVJr7RqOMJo55W+ABkyi
V+v9sqZaj7SGi3blrz+Is4wWlghjPt1h1YYnS8o8PDBd4ufrnfyDnQ6NYC1FuIIT
W88+KfCN143wdaIV86Twj4txV+77KmWTWCkAsXiJWj65t5WcClJ1r162o/dDehnk
/poGfPGMO/64kbjfAgMBAAGjezB5MAkGA1UdEwQCMAAwLAYJYIZIAYb4QgENBB8W
HU9wZW5TU0wgR2VuZXJhdGVkIENlcnRpZmljYXRlMB0GA1UdDgQWBBR3vasQI7yH
mTwSShAQvcqIDXVWFDAfBgNVHSMEGDAWgBROOqLeZduBLxtG4LC74KMpJ2/rtDAN
BgkqhkiG9w0BAQUFAAOBgQDf3/zr4uqzGlPI/TXAH3cbRM++ud7b2A4l3fo6b1lS
7X5L00jvNZlCZP0rEUw2YmTL6ZekB9b2sbA9Jl+48exwkN5TlsvTG5v7gCqK10yT
oGbXxwEL+2jVPyiBlhn8mGXYxkUklpKQR3mzVkRFGStdvl6gclszNAO4CIE0++hT
QA==
-----END CERTIFICATE-----
